******************************************************************************
                  TI ARM Linker PC v16.9.6                     
******************************************************************************
>> Linked Wed Jun 05 15:09:48 2019

OUTPUT FILE NAME:   <multi_gesture_68xx_mss.xer4f>
ENTRY POINT SYMBOL: "_c_int00"  address: 0000f054


MEMORY CONFIGURATION

         name            origin    length      used     unused   attr    fill
----------------------  --------  ---------  --------  --------  ----  --------
PAGE 0:
  VECTORS               00000000   00000100  0000003c  000000c4     X
  PROG_RAM              00000100   0007ff00  000191c0  00066d40  R  X
  DATA_RAM              08000000   00030000  000114e8  0001eb18  RW  
  L3_RAM                51000000   000c0000  00000000  000c0000  RW  
  HWA_RAM               52030000   00010000  00000000  00010000  RW  
  HS_RAM                52080000   00008000  00000000  00008000  RW  

PAGE 1:
  L3_RAM                51000000   000c0000  00000000  000c0000  RW  


SEGMENT ALLOCATION MAP

run origin  load origin   length   init length attrs members
----------  ----------- ---------- ----------- ----- -------
00000000    00000000    0000003c   0000003c    r--
  00000000    00000000    0000003c   0000003c    r-- .vecs
00000100    00000100    000191c8   000191c8    r-x
  00000100    00000100    00013402   00013402    r-x .text
  00013508    00013508    00002e76   00002e76    r-- .const
  00016380    00016380    00002f48   00002f48    r-- .cinit
08000000    08000000    000114e8   00000000    rw-
  08000000    08000000    0000a000   00000000    rw- systemHeap
  0800a000    0800a000    00004018   00000000    rw- .data
  0800e018    0800e018    00001cd0   00000000    rw- .bss
  0800fce8    0800fce8    00001000   00000000    rw- .stack
  08010ce8    08010ce8    00000800   00000000    rw- .myFiqStack


SECTION ALLOCATION MAP

 output                                  attributes/
section   page    origin      length       input sections
--------  ----  ----------  ----------   ----------------
.vecs      0    00000000    0000003c     
                  00000000    0000003c     mss_mmw_per4ft.oer4ft (.vecs)

.text      0    00000100    00013402     
                  00000100    0000107a     rtsv7R4_T_le_v3D16_eabi.lib : _printfi.obj (.text)
                  0000117a    00000002     libmmwave_xwr68xx.aer4f : mmwave_link.oer4f (.text:MMWave_maskHostIRQ)
                  0000117c    0000064e     mss_cli.oer4f (.text:MmwDemo_CLIInit)
                  000017ca    00000006     libosal_xwr68xx.aer4f : HwiP_tirtos.oer4f (.text:HwiP_restore)
                  000017d0    000004e1     sysbios.aer4ft : BIOS.obj (.text:xdc_runtime_System_doPrint__I)
                  00001cb1    00000001     --HOLE-- [fill = 0]
                  00001cb2    00000002     mss_main.oer4f (.text:MmwDemo_mssMmwaveCloseCallbackFxn)
                  00001cb4    000004bc     mss_main.oer4f (.text:MmwDemo_mssInitTask)
                  00002170    000003d0     cli_mmwave.oer4f (.text:CLI_MMWaveVersion)
                  00002540    00000394     sysbios.aer4ft : BIOS.obj (.text:ti_sysbios_knl_Event_pend__E)
                  000028d4    0000000c     cli_mmwave.oer4f (.text:CLI_getMMWaveExtensionConfig)
                  000028e0    00000310     sysbios.aer4ft : BIOS.obj (.text:ti_sysbios_knl_Semaphore_pend__E)
                  00002bf0    00000300     libsoc_xwr68xx.aer4f : soc_xwr68xx_mss.oer4f (.text:SOC_deviceInit)
                  00002ef0    000002f0     mss_main.oer4f (.text:MmwDemo_mboxReadTask)
                  000031e0    000002b8     rtsv7R4_T_le_v3D16_eabi.lib : ull_div32.obj (.text)
                  00003498    00000008     libosal_xwr68xx.aer4f : HwiP_tirtos.oer4f (.text:HwiP_disable)
                  000034a0    000002a4     sysbios.aer4ft : BIOS.obj (.text:ti_sysbios_heaps_HeapMem_freeUnprotected__E)
                  00003744    00000284     libmmwave_xwr68xx.aer4f : mmwave_dualcore.oer4f (.text:MMWave_deviceExecuteFxn)
                  000039c8    00000008                             : mmwave.oer4f (.text:MMWave_decodeErrorLevel)
                  000039d0    00000280     sysbios.aer4ft : BIOS.obj (.text:ti_sysbios_family_arm_exc_Exception_excDumpContext__I)
                  00003c50    00000268                    : BIOS.obj (.text:ti_sysbios_knl_Task_Instance_finalize__E)
                  00003eb8    00000260     libmailbox_xwr68xx.aer4f : mailbox.oer4f (.text:Mailbox_open)
                  00004118    00000258     rtsv7R4_T_le_v3D16_eabi.lib : e_exp.obj (.text)
                  00004370    00000254     cli_mmwave.oer4f (.text:CLI_MMWaveProfileCfg)
                  000045c4    00000244     mss_main.oer4f (.text:MmwDemo_mssCtrlPathTask)
                  00004808    00000008     libmmwave_xwr68xx.aer4f : mmwave_link.oer4f (.text:MMWave_mboxCallbackFxn)
                  00004810    00000228     sysbios.aer4ft : BIOS.obj (.text:ti_sysbios_heaps_HeapMem_allocUnprotected__E)
                  00004a38    00000008     libosal_xwr68xx.aer4f : SemaphoreP_tirtos.oer4f (.text:SemaphoreP_Params_init)
                  00004a40    00000220     sysbios.aer4ft : BIOS.obj (.text:ti_sysbios_knl_Task_sleep__E)
                  00004c60    00000214     libuart_xwr68xx.aer4f : uartsci.oer4f (.text:UartSci_open)
                  00004e74    00000210     mss_main.oer4f (.text:MmwDemo_mssDataPathConfig)
                  00005084    00000204     cli_mmwave.oer4f (.text:CLI_MMWaveChirpCfg)
                  00005288    00000200     libcrc_xwr68xx.aer4f : crc.oer4f (.text:CRC_open)
                  00005488    000001f8     cli.oer4f (.text:CLI_task)
                  00005680    000001f0     libdma_xwr68xx.aer4f : dma.oer4f (.text:DMA_setChannelParams)
                  00005870    000001e4     rtsv7R4_T_le_v3D16_eabi.lib : strtod.obj (.text)
                  00005a54    0000000c     libmmwave_xwr68xx.aer4f : mmwave_dualcore.oer4f (.text:MMWave_deviceMailboxCallbackFxn)
                  00005a60    000001e4     sysbios.aer4ft : BIOS.obj (.text:ti_sysbios_family_arm_v7r_vim_Hwi_dispatchIRQC__I)
                  00005c44    0000000c     libmmwave_xwr68xx.aer4f : mmwave_osal.oer4f (.text:MMWave_osalMutexUnlock)
                  00005c50    000001dc     sysbios.aer4ft : BIOS.obj (.text:ti_sysbios_knl_Task_Module_startup__E)
                  00005e2c    000001c8     rtsv7R4_T_le_v3D16_eabi.lib : fopen.obj (.text)
                  00005ff4    0000000c     libmmwave_xwr68xx.aer4f : mmwave_osal.oer4f (.text:MMWave_osalSemSignal)
                  00006000    000001c8     sysbios.aer4ft : BIOS.obj (.text:ti_sysbios_knl_Task_Instance_init__E)
                  000061c8    000001b0     mss_main.oer4f (.text:MmwDemo_bpmConfig)
                  00006378    000001a8     cli_mmwave.oer4f (.text:CLI_MMWaveSubFrameCfg)
                  00006520    000001a4     libmmwave_xwr68xx.aer4f : mmwave_dualcore.oer4f (.text:MMWave_serializeCfg)
                  000066c4    0000000c     mss_main.oer4f (.text:MmwDemo_mboxCallback)
                  000066d0    0000019c     sysbios.aer4ft : BIOS.obj (.text:xdc_runtime_Error_policyDefault__E)
                  0000686c    00000184     libmmwavelink_xwr68xx.aer4f : rl_driver.oer4f (.text:rlDriverCmdInvoke)
                  000069f0    00000184     sysbios.aer4ft : BIOS.obj (.text:ti_sysbios_timers_rti_Timer_Module_startup__E)
                  00006b74    00000180     libmmwavelink_xwr68xx.aer4f : rl_driver.oer4f (.text:rlDriverRxHdrRead)
                  00006cf4    0000000c     libuart_xwr68xx.aer4f : UART.oer4f (.text:UART_Params_init)
                  00006d00    0000017c     sysbios.aer4ft : BIOS.obj (.text:ti_sysbios_family_arm_exc_Exception_excHandler__I)
                  00006e7c    00000004     libosal_xwr68xx.aer4f : HwiP_tirtos.oer4f (.text:HwiP_disableInterrupt)
                  00006e80    0000017c     sysbios.aer4ft : BIOS.obj (.text:ti_sysbios_knl_Semaphore_post__E)
                  00006ffc    00000004     libmmwave_xwr68xx.aer4f : mmwave_link.oer4f (.text:MMWave_disableDevice)
                  00007000    00000174     sysbios.aer4ft : BIOS.obj (.text:ti_sysbios_knl_Event_post__E)
                  00007174    00000170     libgpio_xwr68xx.aer4f : gpio.oer4f (.text:GPIO_setConfig)
                  000072e4    0000000c     libuart_xwr68xx.aer4f : uartsci_dma.oer4f (.text:UartSci_isDMAEnabled)
                  000072f0    00000160     sysbios.aer4ft : BIOS.obj (.text:ti_sysbios_family_arm_v7r_vim_Hwi_reconfig__E)
                  00007450    00000158     mss_main.oer4f (.text:main)
                  000075a8    00000150     mss_cli.oer4f (.text:MmwDemo_CLICalibDcRangeSig)
                  000076f8    0000014c     cli_mmwave.oer4f (.text:CLI_MMWaveFrameCfg)
                  00007844    0000014c     libmmwave_xwr68xx.aer4f : mmwave_link.oer4f (.text:MMWave_initMMWaveLink)
                  00007990    0000014a     libuart_xwr68xx.aer4f : uartsci.oer4f (.text:UartSci_ISR)
                  00007ada    00000006     libmmwavelink_xwr68xx.aer4f : rl_controller.oer4f (.text:rlGetSubBlockId)
                  00007ae0    00000140     sysbios.aer4ft : BIOS.obj (.text:ti_sysbios_heaps_HeapMem_Instance_init__E)
                  00007c20    00000140                    : BIOS.obj (.text:xdc_runtime_Core_createObject__I)
                  00007d60    0000013c                    : BIOS.obj (.text:ti_sysbios_knl_Clock_workFunc__E)
                  00007e9c    00000138     mss_main.oer4f (.text:correlation_function)
                  00007fd4    00000138     rtsv7R4_T_le_v3D16_eabi.lib : fputs.obj (.text)
                  0000810c    00000004     libmmwave_xwr68xx.aer4f : mmwave_link.oer4f (.text:MMWave_enableDevice)
                  00008110    00000134     sysbios.aer4ft : BIOS.obj (.text:xdc_runtime_Startup_startMods__I)
                  00008244    0000012c     mss_main.oer4f (.text:postProcessing)
                  00008370    00000128     libmmwave_xwr68xx.aer4f : mmwave_link.oer4f (.text:MMWave_openLink)
                  00008498    00000128     libmmwavelink_xwr68xx.aer4f : rl_driver.oer4f (.text:rlDriverMsgRead)
                  000085c0    00000124     cli_mmwave.oer4f (.text:CLI_MMWaveAdvFrameCfg)
                  000086e4    00000124     cli_mmwave.oer4f (.text:CLI_MMWaveContModeCfg)
                  00008808    00000120     mss_cli.oer4f (.text:MmwDemo_CLICompRangeBiasAndRxChanPhaseCfg)
                  00008928    00000008     libmmwavelink_xwr68xx.aer4f : rl_driver.oer4f (.text:rlDriverConstructOutMsg)
                  00008930    00000118     sysbios.aer4ft : BIOS.obj (.text:ti_sysbios_family_arm_v7r_vim_Hwi_Instance_init__E)
                  00008a48    00000008     libmmwavelink_xwr68xx.aer4f : rl_driver.oer4f (.text:rlDriverGetHandle)
                  00008a50    00000118     sysbios.aer4ft : BIOS.obj (.text:ti_sysbios_knl_Swi_run__I)
                  00008b68    00000114     libmmwavelink_xwr68xx.aer4f : rl_driver.oer4f (.text:rlDriverCmdSendRetry)
                  00008c7c    0000010c     libmmwave_xwr68xx.aer4f : mmwave_dualcore.oer4f (.text:MMWave_deviceInitFxn)
                  00008d88    00000008     sysbios.aer4ft : BIOS.obj (.text:ti_sysbios_family_arm_v7a_Pmu_getEnabled__E)
                  00008d90    0000010c                    : BIOS.obj (.text:xdc_runtime_Core_constructObject__I)
                  00008e9c    00000108     libmailbox_xwr68xx.aer4f : mailbox.oer4f (.text:Mailbox_write)
                  00008fa4    00000108     mss_main.oer4f (.text:MmwDemo_mssMmwaveEventCallbackFxn)
                  000090ac    00000004     libmmwave_xwr68xx.aer4f : mmwave_listlib.oer4f (.text:MMWave_listGetHead)
                  000090b0    00000104     sysbios.aer4ft : BIOS.obj (.text:ti_sysbios_timers_rti_Timer_getFreq__E)
                  000091b4    00000100     cli_mmwave.oer4f (.text:CLI_MMWaveBPMCfgAdvanced)
                  000092b4    00000100     libmmwave_xwr68xx.aer4f : mmwave_link.oer4f (.text:MMWave_startLink)
                  000093b4    000000fc     libcrc_xwr68xx.aer4f : crc.oer4f (.text:CRC_computeSignature)
                  000094b0    000000fc     libdma_xwr68xx.aer4f : dma.oer4f (.text:DMA_disableInterrupt)
                  000095ac    000000fc     libmmwavelink_xwr68xx.aer4f : rl_driver.oer4f (.text:rlDriverInit)
                  000096a8    000000f8                                 : rl_driver.oer4f (.text:rlDriverRdVerifyMsg)
                  000097a0    000000f8     mss_mmw_per4ft.oer4ft (.text:xdc_runtime_System_printfExtend__I)
                  00009898    00000006     libmmwavelink_xwr68xx.aer4f : rl_controller.oer4f (.text:rlGetSubBlockLen)
                  0000989e    00000002     mss_main.oer4f (.text:MmwDemo_mssMmwaveOpenCallbackFxn)
                  000098a0    000000f0     sysbios.aer4ft : BIOS.obj (.text:ti_sysbios_family_arm_v7r_vim_Hwi_Module_startup__E)
                  00009990    000000ec     rtsv7R4_T_le_v3D16_eabi.lib : s_scalbn.obj (.text)
                  00009a7c    00000004     libmmwave_xwr68xx.aer4f : mmwave_listlib.oer4f (.text:MMWave_listGetNext)
                  00009a80    000000ec     sysbios.aer4ft : BIOS.obj (.text:ti_sysbios_heaps_HeapBuf_Module_startup__E)
                  00009b6c    000000e8     cli.oer4f (.text:CLI_open)
                  00009c54    000000e6     inference.oer4f (.text:Inference)
                  00009d3a    00000002     libuart_xwr68xx.aer4f : uartsci.oer4f (.text:UartSci_init)
                  00009d3c    000000e4     libdma_xwr68xx.aer4f : dma.oer4f (.text:DMA_clearChannelInterruptFlag)
                  00009e20    000000e4     libmmwave_xwr68xx.aer4f : mmwave_link.oer4f (.text:MMWave_asyncEventHandler)
                  00009f04    000000dc     mss_cli.oer4f (.text:MmwDemo_CLIPeakGroupingCfg)
                  00009fe0    000000dc     rtsv7R4_T_le_v3D16_eabi.lib : setvbuf.obj (.text)
                  0000a0bc    000000d8     libdma_xwr68xx.aer4f : dma.oer4f (.text:DMA_enableInterrupt)
                  0000a194    000000d8     libmmwave_xwr68xx.aer4f : mmwave.oer4f (.text:MMWave_init)
                  0000a26c    000000d8     mss_cli.oer4f (.text:MmwDemo_CLIChirpQualityRxSatMonCfg)
                  0000a344    000000d4     libmailbox_xwr68xx.aer4f : mailbox.oer4f (.text:Mailbox_read)
                  0000a418    000000d4     mss_main.oer4f (.text:MmwDemo_mssDataPathStop)
                  0000a4ec    000000d4     libmmwavelink_xwr68xx.aer4f : rl_sensor.oer4f (.text:rlSetMultiBpmChirpConfig)
                  0000a5c0    000000d4     sysbios.aer4ft : BIOS.obj (.text:ti_sysbios_knl_Task_exit__E)
                  0000a694    0000000c                    : arm_IntrinsicsSupport_asm.obj (.text:_ti_sysbios_family_arm_IntrinsicsSupport_maxbitA)
                  0000a6a0    000000d4                    : BIOS.obj (.text:ti_sysbios_knl_Task_schedule__I)
                  0000a774    000000d0     libsoc_xwr68xx.aer4f : soc_xwr68xx_mss.oer4f (.text:SOC_controlSecureFirewall)
                  0000a844    000000d0     sysbios.aer4ft : exc_Exception_asm.obj (.text:ti_sysbios_family_arm_exc_Exception_excHandlerAsm__I)
                  0000a914    000000cc     libmmwavelink_xwr68xx.aer4f : rl_sensor.oer4f (.text:rlRfCalibDataRestore)
                  0000a9e0    000000cc                                 : rl_sensor.oer4f (.text:rlSetChirpConfig)
                  0000aaac    000000cc     rtsv7R4_T_le_v3D16_eabi.lib : fflush.obj (.text)
                  0000ab78    00000004     libmmwave_xwr68xx.aer4f : mmwave_link.oer4f (.text:MMWave_mboxClose)
                  0000ab7c    00000004                             : mmwave_link.oer4f (.text:MMWave_mboxRead)
                  0000ab80    000000cc     sysbios.aer4ft : BIOS.obj (.text:ti_sysbios_knl_Task_checkStacks__E)
                  0000ac4c    000000c8     libmmwave_xwr68xx.aer4f : mmwave_fullcfg.oer4f (.text:MMWave_addChirp)
                  0000ad14    000000c8                             : mmwave_link.oer4f (.text:MMWave_configBPM)
                  0000addc    000000c8                             : mmwave_fullcfg.oer4f (.text:MMWave_flushCfg)
                  0000aea4    000000c8                             : mmwave_fullcfg.oer4f (.text:MMWave_getChirpHandle)
                  0000af6c    00000004                             : mmwave_link.oer4f (.text:MMWave_registerInterruptHandler)
                  0000af70    000000c8     sysbios.aer4ft : BIOS.obj (.text:ti_sysbios_knl_Task_postInit__I)
                  0000b038    000000c4     cli.oer4f (.text:CLI_help)
                  0000b0fc    000000c4     mss_cli.oer4f (.text:MmwDemo_CLILvdsStreamCfg)
                  0000b1c0    000000c4     sysbios.aer4ft : BIOS.obj (.text:ti_sysbios_family_arm_v7a_Pmu_configureCounter__E)
                  0000b284    000000c0     mss_cli.oer4f (.text:MmwDemo_CLIChirpQualitySigImgMonCfg)
                  0000b344    000000c0     libmmwavelink_xwr68xx.aer4f : rl_driver.oer4f (.text:rlDriverMsgWrite)
                  0000b404    000000c0                                 : rl_sensor.oer4f (.text:rlSetFrameConfig)
                  0000b4c4    0000000c     rtsv7R4_T_le_v3D16_eabi.lib : copy_zero_init.obj (.text:decompress:ZI)
                  0000b4d0    000000c0     sysbios.aer4ft : BIOS.obj (.text:ti_sysbios_timers_rti_Timer_startup__E)
                  0000b590    000000bc     libgpio_xwr68xx.aer4f : gpio.oer4f (.text:GPIO_write)
                  0000b64c    000000bc     libmmwave_xwr68xx.aer4f : mmwave_link.oer4f (.text:MMWave_computeCRC)
                  0000b708    000000bc     mss_cli.oer4f (.text:MmwDemo_CLIBpmCfg)
                  0000b7c4    000000bc     mss_cli.oer4f (.text:MmwDemo_CLICfarCfg)
                  0000b880    000000bc     rtsv7R4_T_le_v3D16_eabi.lib : open.obj (.text)
                  0000b93c    000000b8     mss_cli.oer4f (.text:MmwDemo_CLIMeasureRangeBiasAndRxChanPhaseCfg)
                  0000b9f4    000000b6     libsoc_xwr68xx.aer4f : soc_mpu.o (.text)
                  0000baaa    00000002     rtsv7R4_T_le_v3D16_eabi.lib : i_div0.obj (.text)
                  0000baac    000000b4     mss_main.oer4f (.text:MmwDemo_mssDataPathStart)
                  0000bb60    000000b4     sysbios.aer4ft : BIOS.obj (.text:ti_sysbios_gates_GateMutex_enter__E)
                  0000bc14    0000000c     libmmwavelink_xwr68xx.aer4f : rl_driver.oer4f (.text:rlDriverGetPlatformId)
                  0000bc20    000000b4     sysbios.aer4ft : BIOS.obj (.text:ti_sysbios_knl_Task_startCore__E)
                  0000bcd4    000000b2     libuart_xwr68xx.aer4f : uartsci_dma.oer4f (.text:UartSci_openDMA)
                  0000bd86    00000002     mss_mmw_per4ft.oer4ft (.text:ti_sysbios_BIOS_nullFunc__I)
                  0000bd88    000000b0     libmmwave_xwr68xx.aer4f : mmwave_fullcfg.oer4f (.text:MMWave_addProfile)
                  0000be38    000000b0     libmmwavelink_xwr68xx.aer4f : rl_sensor.oer4f (.text:rlSetProfileConfig)
                  0000bee8    00000004     libmmwave_xwr68xx.aer4f : mmwave_link.oer4f (.text:MMWave_unmaskHostIRQ)
                  0000beec    00000004                             : mmwave_link.oer4f (.text:MMWave_waitIRQStatus)
                  0000bef0    000000b0     sysbios.aer4ft : BIOS.obj (.text:xdc_runtime_Text_putMod__E)
                  0000bfa0    000000ae     rtsv7R4_T_le_v3D16_eabi.lib : _io_perm.obj (.text)
                  0000c04e    00000002     mss_mmw_per4ft.oer4ft (.text:xdc_runtime_Startup_reset__I)
                  0000c050    000000ac     libesm_xwr68xx.aer4f : esm.oer4f (.text:ESM_processInterrupt)
                  0000c0fc    000000ac     mss_cli.oer4f (.text:MmwDemo_CLISetDataLogger)
                  0000c1a8    000000a8     cli_mmwave.oer4f (.text:CLI_MMWaveExtensionHelp)
                  0000c250    000000a8     libmmwave_xwr68xx.aer4f : mmwave_link.oer4f (.text:MMWave_configureProfileChirp)
                  0000c2f8    000000a8                             : mmwave_fullcfg.oer4f (.text:MMWave_getBpmChirpHandle)
                  0000c3a0    000000a8     mss_cli.oer4f (.text:MmwDemo_CLIGuiMonSel)
                  0000c448    000000a8     libpinmux_xwr68xx.aer4f : pinmux.oer4f (.text:Pinmux_Set_OverrideCtrl)
                  0000c4f0    000000a8     libmmwavelink_xwr68xx.aer4f : rl_sensor.oer4f (.text:rlSetAdvFrameConfig)
                  0000c598    000000a8     mss_main.oer4f (.text:runPeopleDetection)
                  0000c640    000000a8     sysbios.aer4ft : BIOS.obj (.text:ti_sysbios_knl_Swi_post__E)
                  0000c6e8    000000a4     libdma_xwr68xx.aer4f : dma.oer4f (.text:DMA_assignChannel)
                  0000c78c    000000a4                          : dma.oer4f (.text:DMA_getChannelInterruptFlag)
                  0000c830    000000a4     libesm_xwr68xx.aer4f : esm.oer4f (.text:ESM_init)
                  0000c8d4    000000a4     libmmwave_xwr68xx.aer4f : mmwave_fullcfg.oer4f (.text:MMWave_addBpmChirp)
                  0000c978    000000a4                             : mmwave.oer4f (.text:MMWave_start)
                  0000ca1c    000000a4     mss_main.oer4f (.text:MmwDemo_waitSensorStopComplete)
                  0000cac0    000000a4     libsoc_xwr68xx.aer4f : soc_xwr68xx_mss.oer4f (.text:SOC_unhaltDSS)
                  0000cb64    0000000c     sysbios.aer4ft : BIOS.obj (.text:ti_sysbios_family_arm_v7a_Pmu_configureCounterI__I)
                  0000cb70    000000a2                    : BIOS.obj (.text:xdc_runtime_Text_putSite__E)
                  0000cc12    00000002     --HOLE-- [fill = 0]
                  0000cc14    000000a0     auto_init.aer4ft : auto_init.oer4ft (.text)
                  0000ccb4    000000a0     libmmwavelink_xwr68xx.aer4f : rl_driver.oer4f (.text:rlDriverWaitForResponse)
                  0000cd54    0000000c     mss_mmw_per4ft.oer4ft (.text:ti_sysbios_knl_Queue_Object__get__S)
                  0000cd60    000000a0     sysbios.aer4ft : BIOS.obj (.text:ti_sysbios_knl_Task_blockI__E)
                  0000ce00    0000009c     libmmwave_xwr68xx.aer4f : mmwave_link.oer4f (.text:MMWave_configLink)
                  0000ce9c    0000009c                             : mmwave_fullcfg.oer4f (.text:MMWave_getProfileHandle)
                  0000cf38    0000009c     libuart_xwr68xx.aer4f : uartsci.oer4f (.text:UartSci_write)
                  0000cfd4    0000009c     rtsv7R4_T_le_v3D16_eabi.lib : memcpy_t2.obj (.text)
                  0000d070    0000009c     sysbios.aer4ft : BIOS.obj (.text:ti_sysbios_family_arm_v7r_vim_Hwi_initIntController__I)
                  0000d10c    00000004     mss_main.oer4f (.text:MmwDemo_sleep)
                  0000d110    0000009c     sysbios.aer4ft : BIOS.obj (.text:ti_sysbios_family_arm_v7r_vim_Hwi_mapChannel__I)
                  0000d1ac    00000004     libsoc_xwr68xx.aer4f : soc_xwr68xx_mss.oer4f (.text:SOC_isSecureDevice)
                  0000d1b0    0000009c     sysbios.aer4ft : BIOS.obj (.text:ti_sysbios_knl_Semaphore_Instance_init__E)
                  0000d24c    00000098     libmmwave_xwr68xx.aer4f : mmwave_fullcfg.oer4f (.text:MMWave_getChirpCfg)
                  0000d2e4    00000098     rtsv7R4_T_le_v3D16_eabi.lib : fclose.obj (.text)
                  0000d37c    00000098                                 : fputc.obj (.text)
                  0000d414    00000098     sysbios.aer4ft : vim_Hwi_asm_switch.obj (.text)
                  0000d4ac    00000096     libuart_xwr68xx.aer4f : uartsci.oer4f (.text:UartSci_readChar)
                  0000d542    00000002     --HOLE-- [fill = 0]
                  0000d544    00000094     libmmwavelink_xwr68xx.aer4f : rl_driver.oer4f (.text:rlDriverDeInit)
                  0000d5d8    00000094                                 : rl_driver.oer4f (.text:rlDriverMsgReadCmdCtx)
                  0000d66c    00000094     sysbios.aer4ft : vim_Hwi_asm.obj (.text:ti_sysbios_family_arm_v7r_vim_Hwi_dispatchIRQ__I)
                  0000d700    00000090     libgpio_xwr68xx.aer4f : gpio.oer4f (.text:GPIO_init)
                  0000d790    00000090     libmailbox_xwr68xx.aer4f : mailbox.oer4f (.text:Mailbox_close)
                  0000d820    00000090     mss_cli.oer4f (.text:MmwDemo_CLIADCBufCfg)
                  0000d8b0    00000090     mss_main.oer4f (.text:MmwDemo_waitSensorStartComplete)
                  0000d940    00000090     libuart_xwr68xx.aer4f : uartsci_dma.oer4f (.text:UartSci_initiateTxDMA)
                  0000d9d0    00000090                           : uartsci.oer4f (.text:UartSci_read)
                  0000da60    00000090     utils.oer4f (.text:soft_max)
                  0000daf0    00000090     sysbios.aer4ft : BIOS.obj (.text:ti_sysbios_family_arm_v7a_Pmu_startCounter__E)
                  0000db80    00000090                    : BIOS.obj (.text:ti_sysbios_knl_Task_unblockI__E)
                  0000dc10    0000008c     cli_mmwave.oer4f (.text:CLI_MMWaveDataOutputMode)
                  0000dc9c    0000008c     mss_cli.oer4f (.text:MmwDemo_CLIAnalogMonitorCfg)
                  0000dd28    0000008c     libsoc_xwr68xx.aer4f : soc_xwr68xx.oer4f (.text:SOC_translateAddress)
                  0000ddb4    0000008c     libuart_xwr68xx.aer4f : uartsci_dma.oer4f (.text:UartSci_initiateRxDMA)
                  0000de40    0000008c     libmmwavelink_xwr68xx.aer4f : rl_device.oer4f (.text:rlDevicePowerOn)
                  0000decc    0000008c                                 : rl_driver.oer4f (.text:rlDriverMsgCmdReply)
                  0000df58    00000004     mss_mmw_per4ft.oer4ft (.text:ti_sysbios_BIOS_RtsGateProxy_enter__E)
                  0000df5c    00000004     mss_mmw_per4ft.oer4ft (.text:ti_sysbios_BIOS_RtsGateProxy_leave__E)
                  0000df60    0000008c     sysbios.aer4ft : BIOS.obj (.text:ti_sysbios_family_arm_v7r_vim_Hwi_Instance_finalize__E)
                  0000dfec    00000004     mss_mmw_per4ft.oer4ft (.text:ti_sysbios_family_arm_TaskSupport_Module__startupDone__S)
                  0000dff0    0000008c     sysbios.aer4ft : BIOS.obj (.text:xdc_runtime_Memory_alloc__E)
                  0000e07c    00000088     libmmwave_xwr68xx.aer4f : mmwave_fullcfg.oer4f (.text:MMWave_getProfileCfg)
                  0000e104    00000088     mss_cli.oer4f (.text:MmwDemo_CLIMultiObjBeamForming)
                  0000e18c    00000088     mss_cli.oer4f (.text:MmwDemo_CLINearFieldCorrection)
                  0000e214    00000088     mss_main.oer4f (.text:MmwDemo_gpioSwitchTask)
                  0000e29c    00000088     libsoc_xwr68xx.aer4f : soc.oer4f (.text:SOC_init)
                  0000e324    00000088     rtsv7R4_T_le_v3D16_eabi.lib : vsnprintf.obj (.text)
                  0000e3ac    00000084     libmmwave_xwr68xx.aer4f : mmwave_dualcore.oer4f (.text:MMWave_deviceCfgAsyncEvent)
                  0000e430    00000084                             : mmwave_dualcore.oer4f (.text:MMWave_deviceEventFxn)
                  0000e4b4    00000084                             : mmwave_fullcfg.oer4f (.text:MMWave_getNumBpmChirp)
                  0000e538    00000084                             : mmwave.oer4f (.text:MMWave_open)
                  0000e5bc    00000080     cli_mmwave.oer4f (.text:CLI_MMWaveChannelCfg)
                  0000e63c    00000080     libmmwave_xwr68xx.aer4f : mmwave_fullcfg.oer4f (.text:MMWave_getBpmChirpCfg)
                  0000e6bc    00000080     libuart_xwr68xx.aer4f : uartsci.oer4f (.text:UartSci_writePolling)
                  0000e73c    00000080     mss_main.oer4f (.text:findDelta)
                  0000e7bc    00000080     libmmwavelink_xwr68xx.aer4f : rl_driver.oer4f (.text:rlDriverExecuteGetApi)
                  0000e83c    00000004     mss_mmw_per4ft.oer4ft (.text:ti_sysbios_family_arm_v7r_vim_Hwi_delete)
                  0000e840    00000080     sysbios.aer4ft : BIOS.obj (.text:ti_sysbios_timers_rti_Timer_initDevice__I)
                  0000e8c0    0000007e     libosal_xwr68xx.aer4f : HwiP_tirtos.oer4f (.text:HwiP_create)
                  0000e93e    00000002     --HOLE-- [fill = 0]
                  0000e940    0000007c     libmmwave_xwr68xx.aer4f : mmwave_dualcore.oer4f (.text:MMWave_deviceOpenFxn)
                  0000e9bc    0000007c     libmailbox_xwr68xx.aer4f : mailbox.oer4f (.text:Mailbox_init)
                  0000ea38    0000007c     libuart_xwr68xx.aer4f : uartsci.oer4f (.text:UartSci_readPolling)
                  0000eab4    0000007c     sysbios.aer4ft : arm_TaskSupport_asm.obj (.text:_ti_sysbios_family_arm_TaskSupport_buildTaskStack)
                  0000eb30    0000007c                    : BIOS.obj (.text:xdc_runtime_Core_deleteObject__I)
                  0000ebac    0000007b     mss_cli.oer4f (.text:MmwDemo_CLIGetSubframe)
                  0000ec27    00000001     --HOLE-- [fill = 0]
                  0000ec28    0000007a     rtsv7R4_T_le_v3D16_eabi.lib : memset_t2.obj (.text)
                  0000eca2    00000002     --HOLE-- [fill = 0]
                  0000eca4    00000078     cli_mmwave.oer4f (.text:CLI_MMWaveADCCfg)
                  0000ed1c    00000078     libmmwave_xwr68xx.aer4f : mmwave_fullcfg.oer4f (.text:MMWave_getNumChirps)
                  0000ed94    00000078     mss_cli.oer4f (.text:MmwDemo_CLIExtendedMaxVelocity)
                  0000ee0c    00000078     mss_main.oer4f (.text:MmwDemo_Dss2MssISR)
                  0000ee84    00000074     libmmwave_xwr68xx.aer4f : mmwave.oer4f (.text:MMWave_config)
                  0000eef8    00000074                             : mmwave_dualcore.oer4f (.text:MMWave_deviceStartFxn)
                  0000ef6c    00000074     mss_cli.oer4f (.text:MmwDemo_CLIClutterRemoval)
                  0000efe0    00000074     libsoc_xwr68xx.aer4f : soc.oer4f (.text:SOC_getDeviceRFFreqScaleFactor)
                  0000f054    00000074     boot.aer4ft : boot.oer4ft (.text)
                  0000f0c8    00000074     libmmwavelink_xwr68xx.aer4f : rl_driver.oer4f (.text:rlDriverAsyncEventHandler)
                  0000f13c    00000074                                 : rl_driver.oer4f (.text:rlDriverProcRdMsg)
                  0000f1b0    00000074     rtsv7R4_T_le_v3D16_eabi.lib : getdevice.obj (.text)
                  0000f224    00000074                                 : s_frexp.obj (.text)
                  0000f298    00000072     libmmwavelink_xwr68xx.aer4f : rl_driver.oer4f (.text:rlDriverClientCbCheck)
                  0000f30a    00000002     --HOLE-- [fill = 0]
                  0000f30c    00000070     libmmwave_xwr68xx.aer4f : mmwave_dualcore.oer4f (.text:MMWave_deviceCfgFxn)
                  0000f37c    00000070     mss_main.oer4f (.text:gestureInferenceProcessing)
                  0000f3ec    00000070     mss_main.oer4f (.text:logFeatures)
                  0000f45c    00000070     rtsv7R4_T_le_v3D16_eabi.lib : printf.obj (.text)
                  0000f4cc    00000004     mss_mmw_per4ft.oer4ft (.text:ti_sysbios_heaps_HeapMem_Module_GateProxy_enter__E)
                  0000f4d0    00000070     sysbios.aer4ft : BIOS.obj (.text:xdc_runtime_Error_print__E)
                  0000f540    00000070                    : BIOS.obj (.text:xdc_runtime_Text_visitRope2__I)
                  0000f5b0    0000006c     libdma_xwr68xx.aer4f : dma.oer4f (.text:DMA_disableChannel)
                  0000f61c    0000006c     libgpio_xwr68xx.aer4f : gpio.oer4f (.text:GPIO_enableInt)
                  0000f688    0000006c     libmmwave_xwr68xx.aer4f : mmwave_link.oer4f (.text:MMWave_spawn)
                  0000f6f4    0000006c                             : mmwave_link.oer4f (.text:MMWave_stopLink)
                  0000f760    0000006c     libpinmux_xwr68xx.aer4f : pinmux.oer4f (.text:Pinmux_Set_FuncSel)
                  0000f7cc    0000006c     mss_main.oer4f (.text:angleDelta)
                  0000f838    0000006c     rtsv7R4_T_le_v3D16_eabi.lib : copy_decompress_lzss.obj (.text:decompress:lzss)
                  0000f8a4    0000006c                                 : trgmsg.obj (.text)
                  0000f910    0000006a     libuart_xwr68xx.aer4f : uartsci.oer4f (.text:UartSci_control)
                  0000f97a    00000002     --HOLE-- [fill = 0]
                  0000f97c    00000068     libdma_xwr68xx.aer4f : dma.oer4f (.text:DMA_enableChannel)
                  0000f9e4    00000068     libmmwave_xwr68xx.aer4f : mmwave_dualcore.oer4f (.text:MMWave_deviceStopFxn)
                  0000fa4c    00000068     libmailbox_xwr68xx.aer4f : mailbox.oer4f (.text:Mailbox_readFlush)
                  0000fab4    00000068     libmmwavelink_xwr68xx.aer4f : rl_driver.oer4f (.text:rlDriverExecuteSetApi)
                  0000fb1c    00000068                                 : rl_driver.oer4f (.text:rlDriverHostIrqHandler)
                  0000fb84    00000068     rtsv7R4_T_le_v3D16_eabi.lib : hostlseek.obj (.text)
                  0000fbec    00000068                                 : hostrename.obj (.text)
                  0000fc54    0000000a     libosal_xwr68xx.aer4f : MemoryP_tirtos.oer4f (.text:MemoryP_ctrlFree)
                  0000fc5e    00000002     --HOLE-- [fill = 0]
                  0000fc60    00000068     sysbios.aer4ft : BIOS.obj (.text:ti_sysbios_knl_Swi_schedule__I)
                  0000fcc8    00000067     mss_main.oer4f (.text:MmwDemo_mssSetHsiClk)
                  0000fd2f    00000001     --HOLE-- [fill = 0]
                  0000fd30    00000066     libmmwavelink_xwr68xx.aer4f : rl_device.oer4f (.text:rlDevicePowerOff)
                  0000fd96    00000002     --HOLE-- [fill = 0]
                  0000fd98    00000064     cli_mmwave.oer4f (.text:CLI_MMWaveLowPowerCfg)
                  0000fdfc    00000064     libosal_xwr68xx.aer4f : SemaphoreP_tirtos.oer4f (.text:SemaphoreP_create)
                  0000fe60    00000064     rtsv7R4_T_le_v3D16_eabi.lib : fseek.obj (.text)
                  0000fec4    00000064                                 : sprintf.obj (.text)
                  0000ff28    00000064     sysbios.aer4ft : exc_Exception_asm.obj (.text:ti_sysbios_family_arm_exc_Exception_initCore0__I)
                  0000ff8c    00000004     mss_mmw_per4ft.oer4ft (.text:ti_sysbios_heaps_HeapMem_Module_GateProxy_leave__E)
                  0000ff90    00000064     sysbios.aer4ft : BIOS.obj (.text:ti_sysbios_family_arm_v7r_vim_Hwi_phantomIntHandler__I)
                  0000fff4    0000000a     libosal_xwr68xx.aer4f : SemaphoreP_tirtos.oer4f (.text:SemaphoreP_post)
                  0000fffe    00000002     --HOLE-- [fill = 0]
                  00010000    00000064     sysbios.aer4ft : BIOS.obj (.text:ti_sysbios_knl_Clock_logTick__E)
                  00010064    0000000a     libuart_xwr68xx.aer4f : UART.oer4f (.text:UART_read)
                  0001006e    00000002     --HOLE-- [fill = 0]
                  00010070    00000064     sysbios.aer4ft : BIOS.obj (.text:xdc_runtime_Startup_exec__E)
                  000100d4    00000060     cli_mmwave.oer4f (.text:CLI_MMWaveExtensionHandler)
                  00010134    00000060     libgpio_xwr68xx.aer4f : gpio.oer4f (.text:GPIO_setCallback)
                  00010194    0000000a     libuart_xwr68xx.aer4f : UART.oer4f (.text:UART_write)
                  0001019e    00000002     --HOLE-- [fill = 0]
                  000101a0    00000060     sysbios.aer4ft : BIOS.obj (.text:ti_sysbios_heaps_HeapMem_alloc__E)
                  00010200    00000060                    : BIOS.obj (.text:xdc_runtime_Assert_raise__I)
                  00010260    0000005f                    : BIOS.obj (.text:xdc_runtime_Text_putLab__E)
                  000102bf    00000001     --HOLE-- [fill = 0]
                  000102c0    0000005e     libuart_xwr68xx.aer4f : uartsci.oer4f (.text:UartSci_writeChar)
                  0001031e    00000002     --HOLE-- [fill = 0]
                  00010320    0000005c     libmmwave_xwr68xx.aer4f : mmwave_link.oer4f (.text:MMWave_mboxOpen)
                  0001037c    0000005c                             : mmwave.oer4f (.text:MMWave_stop)
                  000103d8    0000005c     rtsv7R4_T_le_v3D16_eabi.lib : hostopen.obj (.text)
                  00010434    0000005c                                 : hostread.obj (.text)
                  00010490    0000005a     libuart_xwr68xx.aer4f : uartsci.oer4f (.text:UartSci_readCancel)
                  000104ea    0000005a     libmmwavelink_xwr68xx.aer4f : rl_driver.oer4f (.text:rlDriverCalChkSum)
                  00010544    00000058     libesm_xwr68xx.aer4f : esm.oer4f (.text:ESM_highpriority_FIQ)
                  0001059c    00000058     libmmwave_xwr68xx.aer4f : mmwave.oer4f (.text:MMWave_execute)
                  000105f4    00000058                             : mmwave_link.oer4f (.text:MMWave_initCRC)
                  0001064c    00000058     mss_main.oer4f (.text:MmwDemo_mmWaveCtrlTask)
                  000106a4    00000058     libuart_xwr68xx.aer4f : uartsci_dma.oer4f (.text:UartSci_closeDMA)
                  000106fc    00000058     libmmwavelink_xwr68xx.aer4f : rl_driver.oer4f (.text:rlDriverMsgReadSpawnCtx)
                  00010754    00000058     rtsv7R4_T_le_v3D16_eabi.lib : close.obj (.text)
                  000107ac    00000058                                 : hostwrite.obj (.text)
                  00010804    0000000a     libuart_xwr68xx.aer4f : UART.oer4f (.text:UART_writePolling)
                  0001080e    00000002     --HOLE-- [fill = 0]
                  00010810    00000058     sysbios.aer4ft : BIOS.obj (.text:ti_sysbios_knl_Swi_restoreHwi__E)
                  00010868    00000056     libmmwavelink_xwr68xx.aer4f : rl_driver.oer4f (.text:rlDriverOsiCbCheck)
                  000108be    00000002     --HOLE-- [fill = 0]
                  000108c0    00000054     libcrc_xwr68xx.aer4f : crc.oer4f (.text:CRC_getTransactionId)
                  00010914    00000054     libdma_xwr68xx.aer4f : dma.oer4f (.text:DMA_freeChannel)
                  00010968    00000054     libmmwave_xwr68xx.aer4f : mmwave_link.oer4f (.text:MMWave_initLink)
                  000109bc    00000054     rtsv7R4_T_le_v3D16_eabi.lib : ltoa.obj (.text)
                  00010a10    00000054     mss_mmw_per4ft.oer4ft (.text:ti_sysbios_family_arm_v7r_vim_Hwi_create)
                  00010a64    0000000a     sysbios.aer4ft : tms570_Core_asm.obj (.text:ti_sysbios_family_arm_v7r_tms570_Core_getId__E)
                  00010a6e    00000002     --HOLE-- [fill = 0]
                  00010a70    00000054                    : BIOS.obj (.text:ti_sysbios_heaps_HeapMem_getStats__E)
                  00010ac4    0000000a     mss_mmw_per4ft.oer4ft (.text:xdc_runtime_IHeap_alloc)
                  00010ace    00000002     --HOLE-- [fill = 0]
                  00010ad0    00000054     sysbios.aer4ft : BIOS.obj (.text:ti_sysbios_knl_Swi_runLoop__I)
                  00010b24    0000000a     mss_mmw_per4ft.oer4ft (.text:xdc_runtime_IHeap_free)
                  00010b2e    00000002     --HOLE-- [fill = 0]
                  00010b30    00000054     sysbios.aer4ft : BIOS.obj (.text:ti_sysbios_knl_Swi_startup__E)
                  00010b84    00000004     mss_mmw_per4ft.oer4ft (.text:ti_sysbios_knl_Clock_TimerProxy_getMaxTicks__E)
                  00010b88    00000004     mss_mmw_per4ft.oer4ft (.text:ti_sysbios_knl_Semaphore_delete)
                  00010b8c    00000004     mss_mmw_per4ft.oer4ft (.text:xdc_runtime_System_Module_GateProxy_enter__E)
                  00010b90    00000054     sysbios.aer4ft : BIOS.obj (.text:xdc_runtime_Core_assignLabel__I)
                  00010be4    00000050     cli.oer4f (.text:CLI_write)
                  00010c34    00000050     libcrc_xwr68xx.aer4f : crc.oer4f (.text:CRC_getSignature)
                  00010c84    00000050     libmmwave_xwr68xx.aer4f : mmwave.oer4f (.text:MMWave_sync)
                  00010cd4    00000050     libmmwavelink_xwr68xx.aer4f : rl_driver.oer4f (.text:rlDeviceIdentifyCmdDir)
                  00010d24    00000050                                 : rl_driver.oer4f (.text:rlDriverVerifyCRC)
                  00010d74    00000050     rtsv7R4_T_le_v3D16_eabi.lib : atoi.obj (.text)
                  00010dc4    00000050                                 : exit.obj (.text)
                  00010e14    00000050                                 : u_div32.obj (.text)
                  00010e64    00000004     mss_mmw_per4ft.oer4ft (.text:xdc_runtime_System_Module_GateProxy_leave__E)
                  00010e68    00000008     --HOLE-- [fill = 0]
                  00010e70    00000050     sysbios.aer4ft : BIOS.obj (.text:xdc_runtime_System_exit__E)
                  00010ec0    0000004c     libmailbox_xwr68xx.aer4f : mailbox.oer4f (.text:Mailbox_boxEmptyISRProcessing)
                  00010f0c    0000004c     libuart_xwr68xx.aer4f : uartsci.oer4f (.text:UartSci_writeCancel)
                  00010f58    0000004c     rtsv7R4_T_le_v3D16_eabi.lib : cpy_tbl.obj (.text)
                  00010fa4    0000000c     --HOLE-- [fill = 0]
                  00010fb0    0000004c     sysbios.aer4ft : BIOS.obj (.text:ti_sysbios_family_arm_v7r_vim_Hwi_getStackInfo__E)
                  00010ffc    0000004c     mss_mmw_per4ft.oer4ft (.text:ti_sysbios_knl_Task_create)
                  00011048    0000004a     libmailbox_xwr68xx.aer4f : mailbox.oer4f (.text:Mailbox_boxFullISRProcessing)
                  00011092    0000000e     mss_cli.oer4f (.text:MmwDemo_CLISensorStop)
                  000110a0    0000004a     sysbios.aer4ft : BIOS.obj (.text:xdc_runtime_Core_assignParams__I)
                  000110ea    00000006     --HOLE-- [fill = 0]
                  000110f0    0000004a                    : BIOS.obj (.text:xdc_runtime_Text_xprintf__I)
                  0001113a    00000048     libmmwavelink_xwr68xx.aer4f : rl_device.oer4f (.text:rlDeviceGetVersion)
                  00011182    00000002     --HOLE-- [fill = 0]
                  00011184    00000048                                 : rl_driver.oer4f (.text:rlDriverOsiInit)
                  000111cc    00000046     libmailbox_xwr68xx.aer4f : mailbox.oer4f (.text:CSL_FINSR)
                  00011212    00000044     libcrc_xwr68xx.aer4f : crc.oer4f (.text:CRC_resetSignature)
                  00011256    00000002     --HOLE-- [fill = 0]
                  00011258    00000044     libmailbox_xwr68xx.aer4f : mailbox.oer4f (.text:Mailbox_boxFullISRMssDss)
                  0001129c    00000044     mss_cli.oer4f (.text:MmwDemo_mssCfgUpdate)
                  000112e0    00000044     rtsv7R4_T_le_v3D16_eabi.lib : hostclose.obj (.text)
                  00011324    00000044                                 : hostunlink.obj (.text)
                  00011368    00000008     --HOLE-- [fill = 0]
                  00011370    00000044     sysbios.aer4ft : BIOS.obj (.text:ti_sysbios_family_arm_v7r_tms570_Core_Module_startup__E)
                  000113b4    0000000c     --HOLE-- [fill = 0]
                  000113c0    00000044                    : BIOS.obj (.text:ti_sysbios_knl_Task_allBlockedFunction__I)
                  00011404    0000000c     --HOLE-- [fill = 0]
                  00011410    00000044                    : BIOS.obj (.text:xdc_runtime_System_atexit__E)
                  00011454    00000042     libmmwave_xwr68xx.aer4f : mmwave_link.oer4f (.text:MMWave_executeLink)
                  00011496    00000040     libmmwavelink_xwr68xx.aer4f : rl_driver.oer4f (.text:rlDriverValidateHdr)
                  000114d6    00000002     --HOLE-- [fill = 0]
                  000114d8    00000040     rtsv7R4_T_le_v3D16_eabi.lib : strtok.obj (.text)
                  00011518    00000008     --HOLE-- [fill = 0]
                  00011520    00000040     sysbios.aer4ft : BIOS.obj (.text:ti_sysbios_timers_rti_Timer_stop__E)
                  00011560    0000003e     libcrc_xwr68xx.aer4f : crc.oer4f (.text:CSL_FINSR)
                  0001159e    0000003e     libdma_xwr68xx.aer4f : dma.oer4f (.text:CSL_FINSR)
                  000115dc    0000003e     libgpio_xwr68xx.aer4f : gpio.oer4f (.text:CSL_FINSR)
                  0001161a    0000003e     libpinmux_xwr68xx.aer4f : pinmux.oer4f (.text:CSL_FINSR)
                  00011658    0000003e     libsoc_xwr68xx.aer4f : soc.oer4f (.text:CSL_FINSR)
                  00011696    0000003e                          : soc_xwr68xx.oer4f (.text:CSL_FINSR)
                  000116d4    0000003e                          : soc_xwr68xx_mss.oer4f (.text:CSL_FINSR)
                  00011712    0000003e     libuart_xwr68xx.aer4f : uartsci.oer4f (.text:CSL_FINSR)
                  00011750    0000003e     libmmwave_xwr68xx.aer4f : mmwave.oer4f (.text:MMWave_decodeError)
                  0001178e    0000003e     libuart_xwr68xx.aer4f : uartsci.oer4f (.text:UartSci_close)
                  000117cc    0000003c     cli_mmwave.oer4f (.text:CLI_MMWaveFlushCfg)
                  00011808    0000003c     libmailbox_xwr68xx.aer4f : mailbox.oer4f (.text:Mailbox_writeReset)
                  00011844    0000003c     libsoc_xwr68xx.aer4f : soc.oer4f (.text:SOC_unhaltBSS)
                  00011880    0000003c     libmmwavelink_xwr68xx.aer4f : rl_controller.oer4f (.text:rlGetSubBlock)
                  000118bc    0000003c     sysbios.aer4ft : vim_Hwi_asm.obj (.text:ti_sysbios_family_arm_v7r_vim_Hwi_init__I)
                  000118f8    00000008     --HOLE-- [fill = 0]
                  00011900    0000003c                    : BIOS.obj (.text:ti_sysbios_hal_Hwi_checkStack)
                  0001193c    00000004     --HOLE-- [fill = 0]
                  00011940    0000003c                    : BIOS.obj (.text:ti_sysbios_heaps_HeapMem_init__I)
                  0001197c    00000004     --HOLE-- [fill = 0]
                  00011980    0000003c                    : BIOS.obj (.text:ti_sysbios_timers_rti_Timer_setPeriod__E)
                  000119bc    0000003a     libosal_xwr68xx.aer4f : HwiP_tirtos.oer4f (.text:HwiP_delete)
                  000119f6    0000003a     mss_main.oer4f (.text:maxCheck)
                  00011a30    00000038     cli_mmwave.oer4f (.text:CLI_MMWaveExtensionInit)
                  00011a68    00000038     libuart_xwr68xx.aer4f : UART.oer4f (.text:UART_init)
                  00011aa0    00000036     mss_main.oer4f (.text:logEnergy)
                  00011ad6    00000036     libmmwavelink_xwr68xx.aer4f : rl_controller.oer4f (.text:rlAppendSubBlock)
                  00011b0c    00000036     rtsv7R4_T_le_v3D16_eabi.lib : strncpy.obj (.text)
                  00011b42    00000002     --HOLE-- [fill = 0]
                  00011b44    00000034     libmmwave_xwr68xx.aer4f : mmwave_link.oer4f (.text:MMWave_mboxWrite)
                  00011b78    00000034     mss_main.oer4f (.text:MmwDemo_installDss2MssExceptionSignallingISR)
                  00011bac    00000034     libsoc_xwr68xx.aer4f : soc_xwr68xx.oer4f (.text:SOC_setMMWaveDSSLinkState)
                  00011be0    00000034                          : soc_xwr68xx.oer4f (.text:SOC_setMMWaveMSSLinkState)
                  00011c14    00000034     libuart_xwr68xx.aer4f : UART.oer4f (.text:UART_open)
                  00011c48    00000034     mss_mmw_per4ft.oer4ft (.text:ti_sysbios_knl_Semaphore_create)
                  00011c7c    00000032     libcrc_xwr68xx.aer4f : crc.oer4f (.text:CRC_getCRCDataSelectBitValue)
                  00011cae    00000002     --HOLE-- [fill = 0]
                  00011cb0    00000032                          : crc.oer4f (.text:CRC_getCRCTypeBitValue)
                  00011ce2    0000000e     libosal_xwr68xx.aer4f : SemaphoreP_tirtos.oer4f (.text:SemaphoreP_delete)
                  00011cf0    00000032     sysbios.aer4ft : BIOS.obj (.text:ti_sysbios_hal_Hwi_initStack)
                  00011d22    00000030     libmmwave_xwr68xx.aer4f : mmwave_listlib.oer4f (.text:MMWave_listRemoveNode)
                  00011d52    00000002     --HOLE-- [fill = 0]
                  00011d54    00000030     libsoc_xwr68xx.aer4f : soc.oer4f (.text:SOC_getDevicePartNumber)
                  00011d84    00000030     libmmwavelink_xwr68xx.aer4f : rl_sensor.oer4f (.text:rlSensorStart)
                  00011db4    00000030     mss_mmw_per4ft.oer4ft (.text:ti_sysbios_BIOS_atExitFunc__I)
                  00011de4    00000030     mss_mmw_per4ft.oer4ft (.text:ti_sysbios_BIOS_startFunc__I)
                  00011e14    0000000c     --HOLE-- [fill = 0]
                  00011e20    00000030     sysbios.aer4ft : BIOS.obj (.text:ti_sysbios_family_arm_TaskSupport_start__E)
                  00011e50    00000030     mss_mmw_per4ft.oer4ft (.text:ti_sysbios_gates_GateHwi_Object__create__S)
                  00011e80    00000030     mss_mmw_per4ft.oer4ft (.text:ti_sysbios_gates_GateMutex_Object__create__S)
                  00011eb0    00000030     mss_mmw_per4ft.oer4ft (.text:ti_sysbios_heaps_HeapMem_Object__create__S)
                  00011ee0    00000030     sysbios.aer4ft : BIOS.obj (.text:ti_sysbios_heaps_HeapMem_free__E)
                  00011f10    00000030     mss_mmw_per4ft.oer4ft (.text:ti_sysbios_knl_Event_create)
                  00011f40    00000030     mss_mmw_per4ft.oer4ft (.text:ti_sysbios_knl_Semaphore_construct)
                  00011f70    0000002f     sysbios.aer4ft : BIOS.obj (.text:xdc_runtime_Text_printVisFxn__I)
                  00011f9f    00000001     --HOLE-- [fill = 0]
                  00011fa0    0000002e                    : BIOS.obj (.text:ti_sysbios_knl_Event_pendTimeout__I)
                  00011fce    00000002     --HOLE-- [fill = 0]
                  00011fd0    0000002e                    : BIOS.obj (.text:ti_sysbios_knl_Semaphore_pendTimeout__I)
                  00011ffe    0000002e     mss_mmw_per4ft.oer4ft (.text:ti_sysbios_rts_MemAlloc_alloc)
                  0001202c    0000002c     libgpio_xwr68xx.aer4f : gpio.oer4f (.text:GPIO_HighPriorityISR)
                  00012058    0000002c                           : gpio.oer4f (.text:GPIO_LowPriorityISR)
                  00012084    0000002c     libmmwave_xwr68xx.aer4f : mmwave_osal.oer4f (.text:MMWave_osalMutexCreate)
                  000120b0    0000002c                             : mmwave_osal.oer4f (.text:MMWave_osalSemCreate)
                  000120dc    0000002c     libsoc_xwr68xx.aer4f : soc_xwr68xx_mss.oer4f (.text:SOC_waitBSSPowerUp)
                  00012108    0000002c     utils.oer4f (.text:compute_innerprod)
                  00012134    0000002c     utils.oer4f (.text:relu_activation)
                  00012160    0000002c     libmmwavelink_xwr68xx.aer4f : rl_device.oer4f (.text:rlDeviceGetMssVersion)
                  0001218c    0000002c                                 : rl_sensor.oer4f (.text:rlSensorStop)
                  000121b8    0000002c     rtsv7R4_T_le_v3D16_eabi.lib : e_sqrt.obj (.text)
                  000121e4    0000002c                                 : unlink.obj (.text)
                  00012210    0000002c     mss_mmw_per4ft.oer4ft (.text:ti_sysbios_knl_Clock_doTick__I)
                  0001223c    0000002c     mss_mmw_per4ft.oer4ft (.text:ti_sysbios_knl_Queue_construct)
                  00012268    00000008     --HOLE-- [fill = 0]
                  00012270    0000002c     sysbios.aer4ft : BIOS.obj (.text:ti_sysbios_knl_Swi_Module_startup__E)
                  0001229c    00000004     --HOLE-- [fill = 0]
                  000122a0    0000002c                    : BIOS.obj (.text:ti_sysbios_timers_rti_Timer_periodicStub__E)
                  000122cc    0000002a     libsoc_xwr68xx.aer4f : soc.oer4f (.text:SOC_SystemISR)
                  000122f6    0000002a     libmmwavelink_xwr68xx.aer4f : rl_device.oer4f (.text:rlDeviceGetMmWaveLinkVersion)
                  00012320    0000002a     rtsv7R4_T_le_v3D16_eabi.lib : strspn.obj (.text)
                  0001234a    00000002     --HOLE-- [fill = 0]
                  0001234c    00000028     libmailbox_xwr68xx.aer4f : mailbox.oer4f (.text:Mailbox_Config_init)
                  00012374    00000028     libuart_xwr68xx.aer4f : uartsci_dma.oer4f (.text:UartSci_RxDMACallbackFxn)
                  0001239c    00000028                           : uartsci_dma.oer4f (.text:UartSci_TxDMACallbackFxn)
                  000123c4    00000028     mss_cli.oer4f (.text:log2Approx)
                  000123ec    00000028     libmmwavelink_xwr68xx.aer4f : rl_driver.oer4f (.text:rlDriverConstructInMsg)
                  00012414    00000028     rtsv7R4_T_le_v3D16_eabi.lib : lseek.obj (.text)
                  0001243c    00000028                                 : write.obj (.text)
                  00012464    0000000c     --HOLE-- [fill = 0]
                  00012470    00000028     sysbios.aer4ft : BIOS.obj (.text:ti_sysbios_knl_Idle_run__E)
                  00012498    00000008     --HOLE-- [fill = 0]
                  000124a0    00000028                    : BIOS.obj (.text:xdc_runtime_SysStd_abort__E)
                  000124c8    00000008     --HOLE-- [fill = 0]
                  000124d0    00000028                    : BIOS.obj (.text:xdc_runtime_System_aprintf_va__F)
                  000124f8    00000026     libmmwavelink_xwr68xx.aer4f : rl_sensor.oer4f (.text:rlRfInitCalibConfig)
                  0001251e    00000026                                 : rl_sensor.oer4f (.text:rlRfRunTimeCalibConfig)
                  00012544    00000026                                 : rl_sensor.oer4f (.text:rlRfSetDeviceCfg)
                  0001256a    00000026                                 : rl_sensor.oer4f (.text:rlSetAdcOutConfig)
                  00012590    00000026                                 : rl_sensor.oer4f (.text:rlSetBpmCommonConfig)
                  000125b6    00000026                                 : rl_sensor.oer4f (.text:rlSetChannelConfig)
                  000125dc    00000026                                 : rl_sensor.oer4f (.text:rlSetContModeConfig)
                  00012602    00000026     rtsv7R4_T_le_v3D16_eabi.lib : memcmp.obj (.text)
                  00012628    00000008     --HOLE-- [fill = 0]
                  00012630    00000026     sysbios.aer4ft : BIOS.obj (.text:xdc_runtime_System_printf_va__F)
                  00012656    00000024     libcrc_xwr68xx.aer4f : crc.oer4f (.text:CRC_isTransactionIdValid)
                  0001267a    00000002     --HOLE-- [fill = 0]
                  0001267c    00000024     libgpio_xwr68xx.aer4f : gpio.oer4f (.text:GPIO_processInterrupt)
                  000126a0    00000024     mss_main.oer4f (.text:MmwDemo_notifySensorStart)
                  000126c4    00000024     libsoc_xwr68xx.aer4f : soc_xwr68xx.oer4f (.text:SOC_isMMWaveDSSOperational)
                  000126e8    00000024                          : soc_xwr68xx.oer4f (.text:SOC_isMMWaveMSSOperational)
                  0001270c    00000024     libmmwavelink_xwr68xx.aer4f : rl_device.oer4f (.text:rlDeviceSetHsiClk)
                  00012730    00000024                                 : rl_sensor.oer4f (.text:rlEnableContMode)
                  00012754    00000024                                 : rl_sensor.oer4f (.text:rlRfSetCalMonTimeUnitConfig)
                  00012778    00000024                                 : rl_sensor.oer4f (.text:rlSetLowPowerModeConfig)
                  0001279c    00000024     mss_mmw_per4ft.oer4ft (.text:ti_sysbios_BIOS_errorRaiseHook__I)
                  000127c0    00000024     mss_mmw_per4ft.oer4ft (.text:ti_sysbios_BIOS_registerRTSLock__I)
                  000127e4    00000024     mss_mmw_per4ft.oer4ft (.text:ti_sysbios_BIOS_removeRTSLock__I)
                  00012808    00000024     mss_mmw_per4ft.oer4ft (.text:ti_sysbios_gates_GateMutex_Object__delete__S)
                  0001282c    00000004     --HOLE-- [fill = 0]
                  00012830    00000024     sysbios.aer4ft : BIOS.obj (.text:ti_sysbios_knl_Clock_Module_startup__E)
                  00012854    00000024     mss_mmw_per4ft.oer4ft (.text:ti_sysbios_knl_Semaphore_Object__delete__S)
                  00012878    00000008     --HOLE-- [fill = 0]
                  00012880    00000024     sysbios.aer4ft : BIOS.obj (.text:ti_sysbios_knl_Task_restoreHwi__E)
                  000128a4    00000022     mss_cli.oer4f (.text:MmwDemo_CLISensorStart)
                  000128c6    00000022     libuart_xwr68xx.aer4f : uartsci.oer4f (.text:UartSci_disableRxDMA)
                  000128e8    00000022                           : uartsci.oer4f (.text:UartSci_enableRxDMA)
                  0001290a    00000022     rtsv7R4_T_le_v3D16_eabi.lib : strcspn.obj (.text)
                  0001292c    00000020     libesm_xwr68xx.aer4f : esm.oer4f (.text:ESM_lowpriority_IRQ)
                  0001294c    00000020     libmmwave_xwr68xx.aer4f : mmwave_listlib.oer4f (.text:MMWave_listCat)
                  0001296c    00000020     mss_main.oer4f (.text:MmwDemo_mboxWrite)
                  0001298c    00000020     libpinmux_xwr68xx.aer4f : pinmux.oer4f (.text:Pinmux_Unlock)
                  000129ac    00000020     libmmwavelink_xwr68xx.aer4f : rl_sensor.oer4f (.text:rlRfInit)
                  000129cc    00000020     rtsv7R4_T_le_v3D16_eabi.lib : memchr.obj (.text)
                  000129ec    00000004     --HOLE-- [fill = 0]
                  000129f0    00000020     sysbios.aer4ft : BIOS.obj (.text:ti_sysbios_family_arm_v7a_Pmu_Module_startup__E)
                  00012a10    00000020     mss_mmw_per4ft.oer4ft (.text:ti_sysbios_family_arm_v7r_vim_Hwi_Object__delete__S)
                  00012a30    00000020     sysbios.aer4ft : BIOS.obj (.text:ti_sysbios_family_arm_v7r_vim_Hwi_disableInterrupt__E)
                  00012a50    00000020                    : BIOS.obj (.text:ti_sysbios_family_arm_v7r_vim_Hwi_enableInterrupt__E)
                  00012a70    00000020     mss_mmw_per4ft.oer4ft (.text:ti_sysbios_gates_GateHwi_Object__delete__S)
                  00012a90    00000020     mss_mmw_per4ft.oer4ft (.text:ti_sysbios_heaps_HeapMem_Object__delete__S)
                  00012ab0    00000020     mss_mmw_per4ft.oer4ft (.text:ti_sysbios_knl_Semaphore_destruct)
                  00012ad0    0000001e     libmmwave_xwr68xx.aer4f : mmwave_fullcfg.oer4f (.text:MMWave_internalDelChirp)
                  00012aee    0000001e     libsoc_xwr68xx.aer4f : soc_xwr68xx_mss.oer4f (.text:SOC_getOutAddr_LUTType)
                  00012b0c    0000001c     libcrc_xwr68xx.aer4f : crc.oer4f (.text:CRC_releaseTransactionId)
                  00012b28    0000001c     libdma_xwr68xx.aer4f : dma.oer4f (.text:CSL_FEXTR)
                  00012b44    0000001c     libmmwave_xwr68xx.aer4f : mmwave.oer4f (.text:CSL_FEXTR)
                  00012b60    0000001c     libsoc_xwr68xx.aer4f : soc.oer4f (.text:CSL_FEXTR)
                  00012b7c    0000001c                          : soc_xwr68xx.oer4f (.text:CSL_FEXTR)
                  00012b98    0000001c                          : soc_xwr68xx_mss.oer4f (.text:CSL_FEXTR)
                  00012bb4    0000001c     libuart_xwr68xx.aer4f : uartsci.oer4f (.text:CSL_FEXTR)
                  00012bd0    0000001c     libmmwave_xwr68xx.aer4f : mmwave_listlib.oer4f (.text:MMWave_listRemove)
                  00012bec    0000001c     mss_main.oer4f (.text:MmwDemo_mssMmwaveStartCallbackFxn)
                  00012c08    0000001c     mss_main.oer4f (.text:MmwDemo_notifySensorStop)
                  00012c24    0000001c     libsoc_xwr68xx.aer4f : soc_xwr68xx_mss.oer4f (.text:SOC_getInAddr_LUTType)
                  00012c40    0000001c     sysbios.aer4ft : arm_TaskSupport_asm.obj (.text:_ti_sysbios_family_arm_TaskSupport_glue)
                  00012c5c    0000001c                    : arm_TaskSupport_asm.obj (.text:_ti_sysbios_family_arm_TaskSupport_swap__E)
                  00012c78    0000001c     rtsv7R4_T_le_v3D16_eabi.lib : memccpy.obj (.text)
                  00012c94    0000001c     mss_mmw_per4ft.oer4ft (.text:ti_sysbios_BIOS_rtsLock__I)
                  00012cb0    0000001c     sysbios.aer4ft : BIOS.obj (.text:ti_sysbios_family_arm_v7r_vim_Hwi_clearInterrupt__E)
                  00012ccc    00000004     --HOLE-- [fill = 0]
                  00012cd0    0000001c                    : BIOS.obj (.text:ti_sysbios_gates_GateMutex_Instance_init__E)
                  00012cec    00000004     --HOLE-- [fill = 0]
                  00012cf0    0000001c                    : BIOS.obj (.text:ti_sysbios_gates_GateMutex_leave__E)
                  00012d0c    0000001c     mss_mmw_per4ft.oer4ft (.text:ti_sysbios_knl_Queue_destruct)
                  00012d28    0000001a     libmmwave_xwr68xx.aer4f : mmwave_dualcore.oer4f (.text:MMWave_deviceSyncFxn)
                  00012d42    0000001a                             : mmwave.oer4f (.text:MMWave_encodeError)
                  00012d5c    0000001a                             : mmwave_listlib.oer4f (.text:MMWave_listAdd)
                  00012d76    0000001a     mss_mmw_per4ft.oer4ft (.text:free)
                  00012d90    0000001a     libmmwavelink_xwr68xx.aer4f : rl_sensor.oer4f (.text:rlGetRfDieId)
                  00012daa    0000001a     rtsv7R4_T_le_v3D16_eabi.lib : s_copysign.obj (.text)
                  00012dc4    0000001a     mss_mmw_per4ft.oer4ft (.text:ti_sysbios_gates_GateHwi_Handle__label__S)
                  00012dde    0000001a     mss_mmw_per4ft.oer4ft (.text:ti_sysbios_gates_GateMutex_Handle__label__S)
                  00012df8    0000001a     mss_mmw_per4ft.oer4ft (.text:ti_sysbios_heaps_HeapMem_Handle__label__S)
                  00012e12    0000001a     mss_mmw_per4ft.oer4ft (.text:xdc_runtime_System_aprintf__E)
                  00012e2c    0000001a     mss_mmw_per4ft.oer4ft (.text:xdc_runtime_System_printf__E)
                  00012e46    00000002     --HOLE-- [fill = 0]
                  00012e48    00000018     cli_mmwave.oer4f (.text:CLI_getMMWaveExtensionOpenConfig)
                  00012e60    00000018     libmmwave_xwr68xx.aer4f : mmwave_osal.oer4f (.text:MMWave_osalMutexLock)
                  00012e78    00000018                             : mmwave_osal.oer4f (.text:MMWave_osalSemWait)
                  00012e90    00000018     libmailbox_xwr68xx.aer4f : mailbox.oer4f (.text:Mailbox_boxEmptyISRBss)
                  00012ea8    00000018                              : mailbox.oer4f (.text:Mailbox_boxEmptyISRMssDss)
                  00012ec0    00000018                              : mailbox.oer4f (.text:Mailbox_boxFullISRBss)
                  00012ed8    00000018     libmmwavelink_xwr68xx.aer4f : rl_device.oer4f (.text:rlDeviceGetRfVersion)
                  00012ef0    00000018                                 : rl_driver.oer4f (.text:rlDriverCalCRC)
                  00012f08    00000018                                 : rl_driver.oer4f (.text:rlDriverFillPayload)
                  00012f20    00000018                                 : rl_driver.oer4f (.text:rlDriverIsDeviceMapValid)
                  00012f38    00000018     rtsv7R4_T_le_v3D16_eabi.lib : args_main.obj (.text)
                  00012f50    00000018                                 : strcmp.obj (.text)
                  00012f68    00000018     mss_mmw_per4ft.oer4ft (.text:ti_sysbios_BIOS_rtsUnlock__I)
                  00012f80    00000018     sysbios.aer4ft : BIOS.obj (.text:ti_sysbios_family_arm_v7a_Pmu_initCounters__I)
                  00012f98    00000018     mss_mmw_per4ft.oer4ft (.text:ti_sysbios_family_arm_v7r_vim_Hwi_Module__startupDone__F)
                  00012fb0    00000018     mss_mmw_per4ft.oer4ft (.text:ti_sysbios_family_arm_v7r_vim_Hwi_Params__init__S)
                  00012fc8    00000018     mss_mmw_per4ft.oer4ft (.text:ti_sysbios_knl_Semaphore_Params__init__S)
                  00012fe0    00000018     mss_mmw_per4ft.oer4ft (.text:ti_sysbios_knl_Task_Params__init__S)
                  00012ff8    00000008     --HOLE-- [fill = 0]
                  00013000    00000018     sysbios.aer4ft : BIOS.obj (.text:ti_sysbios_knl_Task_enter__I)
                  00013018    00000018     mss_mmw_per4ft.oer4ft (.text:ti_sysbios_timers_rti_Timer_Module__startupDone__F)
                  00013030    00000018     sysbios.aer4ft : BIOS.obj (.text:xdc_runtime_Error_init__E)
                  00013048    00000016     rtsv7R4_T_le_v3D16_eabi.lib : strchr.obj (.text)
                  0001305e    00000016                                 : strlen.obj (.text)
                  00013074    00000016     mss_mmw_per4ft.oer4ft (.text:ti_sysbios_BIOS_exitFunc__I)
                  0001308a    00000006     --HOLE-- [fill = 0]
                  00013090    00000016     sysbios.aer4ft : BIOS.obj (.text:ti_sysbios_knl_Idle_loop__E)
                  000130a6    0000000a     --HOLE-- [fill = 0]
                  000130b0    00000016                    : BIOS.obj (.text:ti_sysbios_knl_Task_sleepTimeout__I)
                  000130c6    00000014     libosal_xwr68xx.aer4f : HwiP_tirtos.oer4f (.text:HwiP_Params_init)
                  000130da    00000014     libmmwave_xwr68xx.aer4f : mmwave_fullcfg.oer4f (.text:MMWave_internalDelBpmChirp)
                  000130ee    00000014                             : mmwave_fullcfg.oer4f (.text:MMWave_internalDelProfile)
                  00013102    00000014                             : mmwave_osal.oer4f (.text:MMWave_osalMutexDelete)
                  00013116    00000014                             : mmwave_osal.oer4f (.text:MMWave_osalSemDelete)
                  0001312a    00000002     --HOLE-- [fill = 0]
                  0001312c    00000014     mss_main.oer4f (.text:MmwDemo_mssMmwaveConfigCallbackFxn)
                  00013140    00000014     mss_main.oer4f (.text:MmwDemo_mssMmwaveStopCallbackFxn)
                  00013154    00000014     libpinmux_xwr68xx.aer4f : pinmux.oer4f (.text:Pinmux_Lock)
                  00013168    00000014     libuart_xwr68xx.aer4f : uartsci.oer4f (.text:UartSci_disableTxDMA)
                  0001317c    00000014                           : uartsci.oer4f (.text:UartSci_enableTxDMA)
                  00013190    00000014     libosal_xwr68xx.aer4f : DebugP_tirtos.oer4f (.text:_DebugP_assert)
                  000131a4    00000014     libmmwavelink_xwr68xx.aer4f : rl_controller.oer4f (.text:rlAppendDummy)
                  000131b8    00000014     rtsv7R4_T_le_v3D16_eabi.lib : _lock.obj (.text)
                  000131cc    00000014                                 : strcpy.obj (.text)
                  000131e0    00000014     mss_mmw_per4ft.oer4ft (.text:ti_sysbios_heaps_HeapMem_Object__get__S)
                  000131f4    0000000c     --HOLE-- [fill = 0]
                  00013200    00000014     sysbios.aer4ft : BIOS.obj (.text:ti_sysbios_knl_Event_Instance_init__E)
                  00013214    00000014     mss_mmw_per4ft.oer4ft (.text:ti_sysbios_knl_Swi_Object__get__S)
                  00013228    00000012     libcrc_xwr68xx.aer4f : crc.oer4f (.text:CRC_initConfigParams)
                  0001323a    00000012     libmmwave_xwr68xx.aer4f : mmwave_dualcore.oer4f (.text:MMWave_deviceGetDeviceInfo)
                  0001324c    00000012     libosal_xwr68xx.aer4f : MemoryP_tirtos.oer4f (.text:MemoryP_ctrlAlloc)
                  0001325e    00000012                           : SemaphoreP_tirtos.oer4f (.text:SemaphoreP_pend)
                  00013270    00000012     sysbios.aer4ft : BIOS.obj (.text:ti_sysbios_hal_Hwi_Module_startup__E)
                  00013282    00000012     mss_mmw_per4ft.oer4ft (.text:xdc_runtime_Startup_exec__I)
                  00013294    00000010     libcrc_xwr68xx.aer4f : crc.oer4f (.text:CRC_getSignatureRegister)
                  000132a4    00000010     mss_main.oer4f (.text:MmwDemo_switchPressFxn)
                  000132b4    0000000c     --HOLE-- [fill = 0]
                  000132c0    00000010     sysbios.aer4ft : BIOS.obj (.text:ti_sysbios_BIOS_setThreadType__E)
                  000132d0    00000010                    : BIOS.obj (.text:ti_sysbios_BIOS_start__E)
                  000132e0    00000010                    : BIOS.obj (.text:ti_sysbios_family_arm_v7a_Pmu_disableInterruptI__E)
                  000132f0    00000010                    : BIOS.obj (.text:ti_sysbios_family_arm_v7a_Pmu_enableInterruptI__E)
                  00013300    00000010                    : BIOS.obj (.text:ti_sysbios_family_arm_v7a_Pmu_getNumCounters__E)
                  00013310    00000010                    : BIOS.obj (.text:ti_sysbios_family_arm_v7a_Pmu_startCounterI__E)
                  00013320    00000010                    : BIOS.obj (.text:ti_sysbios_family_arm_v7a_Pmu_stopCounterI__E)
                  00013330    00000010                    : BIOS.obj (.text:ti_sysbios_gates_GateMutex_Instance_finalize__E)
                  00013340    00000010     mss_mmw_per4ft.oer4ft (.text:ti_sysbios_heaps_HeapBuf_Object__get__S)
                  00013350    00000010     sysbios.aer4ft : BIOS.obj (.text:ti_sysbios_knl_Semaphore_Instance_finalize__E)
                  00013360    00000010                    : BIOS.obj (.text:ti_sysbios_knl_Swi_disable__E)
                  00013370    00000010     mss_mmw_per4ft.oer4ft (.text:ti_sysbios_knl_Task_Object__get__S)
                  00013380    00000010     sysbios.aer4ft : BIOS.obj (.text:ti_sysbios_knl_Task_disable__E)
                  00013390    00000010                    : BIOS.obj (.text:xdc_runtime_Memory_free__E)
                  000133a0    00000010     mss_mmw_per4ft.oer4ft (.text:xdc_runtime_Text_visitRope__I)
                  000133b0    0000000e     rtsv7R4_T_le_v3D16_eabi.lib : copy_decompress_none.obj (.text:decompress:none)
                  000133be    00000002     --HOLE-- [fill = 0]
                  000133c0    0000000e     sysbios.aer4ft : BIOS.obj (.text:ti_sysbios_knl_Queue_empty__E)
                  000133ce    00000002     --HOLE-- [fill = 0]
                  000133d0    0000000c                    : BIOS.obj (.text:ti_sysbios_family_arm_TaskSupport_checkStack__E)
                  000133dc    00000004     --HOLE-- [fill = 0]
                  000133e0    0000000c                    : BIOS.obj (.text:ti_sysbios_family_arm_TaskSupport_getStackAlignment__E)
                  000133ec    00000004     --HOLE-- [fill = 0]
                  000133f0    0000000c                    : BIOS.obj (.text:ti_sysbios_family_arm_exc_Exception_Module_startup__E)
                  000133fc    00000004     --HOLE-- [fill = 0]
                  00013400    0000000c                    : BIOS.obj (.text:ti_sysbios_family_arm_v7r_vim_Hwi_switchFromBootStack__E)
                  0001340c    00000004     --HOLE-- [fill = 0]
                  00013410    0000000c                    : BIOS.obj (.text:xdc_runtime_Startup_rtsDone__E)
                  0001341c    00000004     --HOLE-- [fill = 0]
                  00013420    0000000c                    : BIOS.obj (.text:xdc_runtime_SysStd_exit__E)
                  0001342c    00000004     --HOLE-- [fill = 0]
                  00013430    00000008                    : BIOS.obj (.text:ti_sysbios_gates_GateHwi_enter__E)
                  00013438    00000008     --HOLE-- [fill = 0]
                  00013440    00000006                    : BIOS.obj (.text:ti_sysbios_family_arm_v7r_vim_Hwi_startup__E)
                  00013446    0000000a     --HOLE-- [fill = 0]
                  00013450    00000006                    : BIOS.obj (.text:ti_sysbios_gates_GateHwi_leave__E)
                  00013456    0000000a     --HOLE-- [fill = 0]
                  00013460    00000006                    : BIOS.obj (.text:ti_sysbios_heaps_HeapMem_isBlocking__E)
                  00013466    0000000a     --HOLE-- [fill = 0]
                  00013470    00000006                    : BIOS.obj (.text:ti_sysbios_knl_Queue_Instance_init__E)
                  00013476    0000000a     --HOLE-- [fill = 0]
                  00013480    00000006                    : BIOS.obj (.text:xdc_runtime_System_Module_startup__E)
                  00013486    0000000a     --HOLE-- [fill = 0]
                  00013490    00000004                    : BIOS.obj (.text:ti_sysbios_gates_GateHwi_query__E)
                  00013494    0000000c     --HOLE-- [fill = 0]
                  000134a0    00000004                    : BIOS.obj (.text:ti_sysbios_gates_GateMutex_query__E)
                  000134a4    0000000c     --HOLE-- [fill = 0]
                  000134b0    00000004                    : BIOS.obj (.text:ti_sysbios_knl_Task_startup__E)
                  000134b4    0000000c     --HOLE-- [fill = 0]
                  000134c0    00000004                    : BIOS.obj (.text:ti_sysbios_timers_rti_Timer_getMaxTicks__E)
                  000134c4    0000000c     --HOLE-- [fill = 0]
                  000134d0    00000004                    : BIOS.obj (.text:xdc_runtime_SysStd_putch__E)
                  000134d4    0000000c     --HOLE-- [fill = 0]
                  000134e0    00000004                    : BIOS.obj (.text:xdc_runtime_SysStd_ready__E)
                  000134e4    0000000c     --HOLE-- [fill = 0]
                  000134f0    00000002                    : BIOS.obj (.text:ti_sysbios_BIOS_linkedWithIncorrectBootLibrary__E)
                  000134f2    0000000e     --HOLE-- [fill = 0]
                  00013500    00000002                    : BIOS.obj (.text:ti_sysbios_gates_GateHwi_Instance_init__E)

.const     0    00013508    00002e76     
                  00013508    00001b6f     mss_mmw_per4ft.oer4ft (.const:xdc_runtime_Text_charTab__A)
                  00015077    00000001     --HOLE-- [fill = 0]
                  00015078    0000034e     cli.oer4f (.const:.string)
                  000153c6    00000002     mss_mmw_per4ft.oer4ft (.const:ti_sysbios_family_arm_exc_Exception_Module__id__C)
                  000153c8    000002b8     libmmwavelink_xwr68xx.aer4f : rl_sensor.oer4f (.const:$O1$$)
                  00015680    000001de     mss_cli.oer4f (.const:.string)
                  0001585e    00000101     rtsv7R4_T_le_v3D16_eabi.lib : ctype.obj (.const:.string:_ctypes_)
                  0001595f    00000001     --HOLE-- [fill = 0]
                  00015960    000000d8     mss_mmw_per4ft.oer4ft (.const:xdc_runtime_Text_nodeTab__A)
                  00015a38    000000a0     cli_mmwave.oer4f (.const:.string)
                  00015ad8    00000098     rtsv7R4_T_le_v3D16_eabi.lib : strtod.obj (.const:$O1$$)
                  00015b70    00000080     mss_mmw_per4ft.oer4ft (.const:ti_sysbios_family_arm_v7r_vim_Hwi_channelMap__A)
                  00015bf0    00000078     libmmwavelink_xwr68xx.aer4f : rl_driver.oer4f (.const:$O2$$)
                  00015c68    00000058     mss_mmw_per4ft.oer4ft (.const:.string)
                  00015cc0    00000044     mss_mmw_per4ft.oer4ft (.const:ti_sysbios_knl_Task_Object__PARAMS__C)
                  00015d04    0000003c     libuart_xwr68xx.aer4f : UART.oer4f (.const:UART_defaultParams)
                  00015d40    00000030     rtsv7R4_T_le_v3D16_eabi.lib : e_exp.obj (.const:$O1$$)
                  00015d70    00000030     mss_mmw_per4ft.oer4ft (.const:ti_sysbios_family_arm_v7r_vim_Hwi_Object__PARAMS__C)
                  00015da0    0000002c     mss_mmw_per4ft.oer4ft (.const:xdc_runtime_Startup_sfxnTab__A)
                  00015dcc    00000028     mss_mmw_per4ft.oer4ft (.const:ti_sysbios_heaps_HeapMem_Module__FXNS__C)
                  00015df4    00000024     libmailbox_xwr68xx.aer4f : mailbox.oer4f (.const:Mailbox_defaultCfg)
                  00015e18    00000024     mss_mmw_per4ft.oer4ft (.const:ti_sysbios_gates_GateHwi_Module__FXNS__C)
                  00015e3c    00000024     mss_mmw_per4ft.oer4ft (.const:ti_sysbios_gates_GateMutex_Module__FXNS__C)
                  00015e60    00000024     mss_mmw_per4ft.oer4ft (.const:ti_sysbios_heaps_HeapMem_Object__PARAMS__C)
                  00015e84    00000024     mss_mmw_per4ft.oer4ft (.const:ti_sysbios_knl_Semaphore_Object__PARAMS__C)
                  00015ea8    00000020     cli_mmwave.oer4f (.const:$P$T0$1)
                  00015ec8    00000020     mss_mmw_per4ft.oer4ft (.const:ti_sysbios_family_arm_v7r_vim_Hwi_Object__DESC__C)
                  00015ee8    00000020     mss_mmw_per4ft.oer4ft (.const:ti_sysbios_gates_GateHwi_Object__DESC__C)
                  00015f08    00000020     mss_mmw_per4ft.oer4ft (.const:ti_sysbios_gates_GateMutex_Object__DESC__C)
                  00015f28    00000020     mss_mmw_per4ft.oer4ft (.const:ti_sysbios_heaps_HeapMem_Object__DESC__C)
                  00015f48    00000020     mss_mmw_per4ft.oer4ft (.const:ti_sysbios_knl_Event_Object__DESC__C)
                  00015f68    00000020     mss_mmw_per4ft.oer4ft (.const:ti_sysbios_knl_Queue_Object__DESC__C)
                  00015f88    00000020     mss_mmw_per4ft.oer4ft (.const:ti_sysbios_knl_Semaphore_Object__DESC__C)
                  00015fa8    00000020     mss_mmw_per4ft.oer4ft (.const:ti_sysbios_knl_Task_Object__DESC__C)
                  00015fc8    0000001c     mss_main.oer4f (.const:$P$T0$1)
                  00015fe4    00000018     mss_mmw_per4ft.oer4ft (.const:ti_sysbios_gates_GateHwi_Object__PARAMS__C)
                  00015ffc    00000018     mss_mmw_per4ft.oer4ft (.const:ti_sysbios_gates_GateMutex_Object__PARAMS__C)
                  00016014    00000018     mss_mmw_per4ft.oer4ft (.const:ti_sysbios_knl_Event_Object__PARAMS__C)
                  0001602c    00000018     mss_mmw_per4ft.oer4ft (.const:ti_sysbios_knl_Queue_Object__PARAMS__C)
                  00016044    00000016     mss_mmw_per4ft.oer4ft (.const:xdc_runtime_Startup_sfxnRts__A)
                  0001605a    00000002     mss_mmw_per4ft.oer4ft (.const:ti_sysbios_family_arm_v7a_Pmu_Module__id__C)
                  0001605c    00000010     mss_mmw_per4ft.oer4ft (.const:ti_sysbios_family_arm_v7r_vim_Hwi_intReqEnaSet__A)
                  0001606c    00000010     mss_mmw_per4ft.oer4ft (.const:ti_sysbios_family_arm_v7r_vim_Hwi_wakeEnaSet__A)
                  0001607c    00000008     mss_mmw_per4ft.oer4ft (.const:ti_sysbios_knl_Idle_funcList__A)
                  00016084    00000008     mss_mmw_per4ft.oer4ft (.const:ti_sysbios_knl_Idle_funcList__C)
                  0001608c    00000008     mss_mmw_per4ft.oer4ft (.const:xdc_runtime_Startup_firstFxns__A)
                  00016094    00000008     mss_mmw_per4ft.oer4ft (.const:xdc_runtime_Startup_firstFxns__C)
                  0001609c    00000008     mss_mmw_per4ft.oer4ft (.const:xdc_runtime_Startup_lastFxns__C)
                  000160a4    00000004     cli.oer4f (.const:.string:$P$T0$1)
                  000160a8    00000004     mss_mmw_per4ft.oer4ft (.const:ti_sysbios_family_arm_TaskSupport_stackAlignment__C)
                  000160ac    00000004     mss_mmw_per4ft.oer4ft (.const:ti_sysbios_family_arm_exc_Exception_E_dataAbort__C)
                  000160b0    00000004     mss_mmw_per4ft.oer4ft (.const:ti_sysbios_family_arm_exc_Exception_E_prefetchAbort__C)
                  000160b4    00000004     mss_mmw_per4ft.oer4ft (.const:ti_sysbios_family_arm_exc_Exception_E_swi__C)
                  000160b8    00000004     mss_mmw_per4ft.oer4ft (.const:ti_sysbios_family_arm_exc_Exception_E_undefinedInstruction__C)
                  000160bc    00000004     mss_mmw_per4ft.oer4ft (.const:ti_sysbios_family_arm_exc_Exception_excHookFuncs__A)
                  000160c0    00000004     mss_mmw_per4ft.oer4ft (.const:ti_sysbios_family_arm_exc_Exception_excHookFuncs__C)
                  000160c4    00000004     mss_mmw_per4ft.oer4ft (.const:ti_sysbios_family_arm_v7a_Pmu_A_invalidCounterId__C)
                  000160c8    00000004     mss_mmw_per4ft.oer4ft (.const:ti_sysbios_family_arm_v7a_Pmu_Module__diagsEnabled__C)
                  000160cc    00000004     mss_mmw_per4ft.oer4ft (.const:ti_sysbios_family_arm_v7a_Pmu_Module__diagsIncluded__C)
                  000160d0    00000004     mss_mmw_per4ft.oer4ft (.const:ti_sysbios_family_arm_v7a_Pmu_Module__diagsMask__C)
                  000160d4    00000004     mss_mmw_per4ft.oer4ft (.const:ti_sysbios_family_arm_v7r_tms570_Core_E_mismatchedIds__C)
                  000160d8    00000004     mss_mmw_per4ft.oer4ft (.const:ti_sysbios_family_arm_v7r_tms570_Core_id__C)
                  000160dc    00000004     mss_mmw_per4ft.oer4ft (.const:ti_sysbios_family_arm_v7r_vim_Hwi_A_badChannelId__C)
                  000160e0    00000004     mss_mmw_per4ft.oer4ft (.const:ti_sysbios_family_arm_v7r_vim_Hwi_E_alreadyDefined__C)
                  000160e4    00000004     mss_mmw_per4ft.oer4ft (.const:ti_sysbios_family_arm_v7r_vim_Hwi_E_badIntNum__C)
                  000160e8    00000004     mss_mmw_per4ft.oer4ft (.const:ti_sysbios_family_arm_v7r_vim_Hwi_E_phantomInterrupt__C)
                  000160ec    00000004     mss_mmw_per4ft.oer4ft (.const:ti_sysbios_family_arm_v7r_vim_Hwi_E_undefined__C)
                  000160f0    00000004     mss_mmw_per4ft.oer4ft (.const:ti_sysbios_family_arm_v7r_vim_Hwi_E_unsupportedMaskingOption__C)
                  000160f4    00000004     mss_mmw_per4ft.oer4ft (.const:ti_sysbios_family_arm_v7r_vim_Hwi_LD_end__C)
                  000160f8    00000004     mss_mmw_per4ft.oer4ft (.const:ti_sysbios_family_arm_v7r_vim_Hwi_LM_begin__C)
                  000160fc    00000004     mss_mmw_per4ft.oer4ft (.const:ti_sysbios_family_arm_v7r_vim_Hwi_Module__diagsEnabled__C)
                  00016100    00000004     mss_mmw_per4ft.oer4ft (.const:ti_sysbios_family_arm_v7r_vim_Hwi_Module__diagsIncluded__C)
                  00016104    00000004     mss_mmw_per4ft.oer4ft (.const:ti_sysbios_family_arm_v7r_vim_Hwi_Module__diagsMask__C)
                  00016108    00000004     mss_mmw_per4ft.oer4ft (.const:ti_sysbios_family_arm_v7r_vim_Hwi_Module__loggerFxn1__C)
                  0001610c    00000004     mss_mmw_per4ft.oer4ft (.const:ti_sysbios_family_arm_v7r_vim_Hwi_Module__loggerFxn8__C)
                  00016110    00000004     mss_mmw_per4ft.oer4ft (.const:ti_sysbios_family_arm_v7r_vim_Hwi_Module__loggerObj__C)
                  00016114    00000004     mss_mmw_per4ft.oer4ft (.const:ti_sysbios_family_arm_v7r_vim_Hwi_NUM_INTERRUPTS__C)
                  00016118    00000004     mss_mmw_per4ft.oer4ft (.const:ti_sysbios_family_arm_v7r_vim_Hwi_channelMap__C)
                  0001611c    00000004     mss_mmw_per4ft.oer4ft (.const:ti_sysbios_family_arm_v7r_vim_Hwi_intReqEnaSet__C)
                  00016120    00000004     mss_mmw_per4ft.oer4ft (.const:ti_sysbios_family_arm_v7r_vim_Hwi_phantomFunc__C)
                  00016124    00000004     mss_mmw_per4ft.oer4ft (.const:ti_sysbios_family_arm_v7r_vim_Hwi_swiDisable__C)
                  00016128    00000004     mss_mmw_per4ft.oer4ft (.const:ti_sysbios_family_arm_v7r_vim_Hwi_swiRestoreHwi__C)
                  0001612c    00000004     mss_mmw_per4ft.oer4ft (.const:ti_sysbios_family_arm_v7r_vim_Hwi_taskDisable__C)
                  00016130    00000004     mss_mmw_per4ft.oer4ft (.const:ti_sysbios_family_arm_v7r_vim_Hwi_taskRestoreHwi__C)
                  00016134    00000004     mss_mmw_per4ft.oer4ft (.const:ti_sysbios_family_arm_v7r_vim_Hwi_wakeEnaSet__C)
                  00016138    00000004     mss_mmw_per4ft.oer4ft (.const:ti_sysbios_gates_GateMutex_A_badContext__C)
                  0001613c    00000004     mss_mmw_per4ft.oer4ft (.const:ti_sysbios_gates_GateMutex_Instance_State_sem__O)
                  00016140    00000004     mss_mmw_per4ft.oer4ft (.const:ti_sysbios_gates_GateMutex_Module__diagsEnabled__C)
                  00016144    00000004     mss_mmw_per4ft.oer4ft (.const:ti_sysbios_gates_GateMutex_Module__diagsIncluded__C)
                  00016148    00000004     mss_mmw_per4ft.oer4ft (.const:ti_sysbios_gates_GateMutex_Module__diagsMask__C)
                  0001614c    00000004     mss_mmw_per4ft.oer4ft (.const:ti_sysbios_hal_Hwi_E_stackOverflow__C)
                  00016150    00000004     mss_mmw_per4ft.oer4ft (.const:ti_sysbios_heaps_HeapBuf_Instance_State_freeList__O)
                  00016154    00000004     mss_mmw_per4ft.oer4ft (.const:ti_sysbios_heaps_HeapBuf_Object__count__C)
                  00016158    00000004     mss_mmw_per4ft.oer4ft (.const:ti_sysbios_heaps_HeapBuf_numConstructedHeaps__C)
                  0001615c    00000004     mss_mmw_per4ft.oer4ft (.const:ti_sysbios_heaps_HeapMem_A_align__C)
                  00016160    00000004     mss_mmw_per4ft.oer4ft (.const:ti_sysbios_heaps_HeapMem_A_heapSize__C)
                  00016164    00000004     mss_mmw_per4ft.oer4ft (.const:ti_sysbios_heaps_HeapMem_A_invalidFree__C)
                  00016168    00000004     mss_mmw_per4ft.oer4ft (.const:ti_sysbios_heaps_HeapMem_A_zeroBlock__C)
                  0001616c    00000004     mss_mmw_per4ft.oer4ft (.const:ti_sysbios_heaps_HeapMem_E_memory__C)
                  00016170    00000004     mss_mmw_per4ft.oer4ft (.const:ti_sysbios_heaps_HeapMem_Module__diagsEnabled__C)
                  00016174    00000004     mss_mmw_per4ft.oer4ft (.const:ti_sysbios_heaps_HeapMem_Module__diagsIncluded__C)
                  00016178    00000004     mss_mmw_per4ft.oer4ft (.const:ti_sysbios_heaps_HeapMem_Module__diagsMask__C)
                  0001617c    00000004     mss_mmw_per4ft.oer4ft (.const:ti_sysbios_heaps_HeapMem_Module__gateObj__C)
                  00016180    00000004     mss_mmw_per4ft.oer4ft (.const:ti_sysbios_heaps_HeapMem_Object__count__C)
                  00016184    00000004     mss_mmw_per4ft.oer4ft (.const:ti_sysbios_heaps_HeapMem_reqAlign__C)
                  00016188    00000004     mss_mmw_per4ft.oer4ft (.const:ti_sysbios_knl_Clock_LM_begin__C)
                  0001618c    00000004     mss_mmw_per4ft.oer4ft (.const:ti_sysbios_knl_Clock_LM_tick__C)
                  00016190    00000004     mss_mmw_per4ft.oer4ft (.const:ti_sysbios_knl_Clock_LW_delayed__C)
                  00016194    00000004     mss_mmw_per4ft.oer4ft (.const:ti_sysbios_knl_Clock_Module_State_clockQ__O)
                  00016198    00000004     mss_mmw_per4ft.oer4ft (.const:ti_sysbios_knl_Clock_Module__diagsEnabled__C)
                  0001619c    00000004     mss_mmw_per4ft.oer4ft (.const:ti_sysbios_knl_Clock_Module__diagsIncluded__C)
                  000161a0    00000004     mss_mmw_per4ft.oer4ft (.const:ti_sysbios_knl_Clock_Module__diagsMask__C)
                  000161a4    00000004     mss_mmw_per4ft.oer4ft (.const:ti_sysbios_knl_Clock_Module__loggerFxn1__C)
                  000161a8    00000004     mss_mmw_per4ft.oer4ft (.const:ti_sysbios_knl_Clock_Module__loggerFxn2__C)
                  000161ac    00000004     mss_mmw_per4ft.oer4ft (.const:ti_sysbios_knl_Clock_Module__loggerObj__C)
                  000161b0    00000004     mss_mmw_per4ft.oer4ft (.const:ti_sysbios_knl_Event_A_badContext__C)
                  000161b4    00000004     mss_mmw_per4ft.oer4ft (.const:ti_sysbios_knl_Event_A_eventInUse__C)
                  000161b8    00000004     mss_mmw_per4ft.oer4ft (.const:ti_sysbios_knl_Event_A_nullEventId__C)
                  000161bc    00000004     mss_mmw_per4ft.oer4ft (.const:ti_sysbios_knl_Event_A_nullEventMasks__C)
                  000161c0    00000004     mss_mmw_per4ft.oer4ft (.const:ti_sysbios_knl_Event_A_pendTaskDisabled__C)
                  000161c4    00000004     mss_mmw_per4ft.oer4ft (.const:ti_sysbios_knl_Event_Instance_State_pendQ__O)
                  000161c8    00000004     mss_mmw_per4ft.oer4ft (.const:ti_sysbios_knl_Event_LM_pend__C)
                  000161cc    00000004     mss_mmw_per4ft.oer4ft (.const:ti_sysbios_knl_Event_LM_post__C)
                  000161d0    00000004     mss_mmw_per4ft.oer4ft (.const:ti_sysbios_knl_Event_Module__diagsEnabled__C)
                  000161d4    00000004     mss_mmw_per4ft.oer4ft (.const:ti_sysbios_knl_Event_Module__diagsIncluded__C)
                  000161d8    00000004     mss_mmw_per4ft.oer4ft (.const:ti_sysbios_knl_Event_Module__diagsMask__C)
                  000161dc    00000004     mss_mmw_per4ft.oer4ft (.const:ti_sysbios_knl_Event_Module__loggerFxn4__C)
                  000161e0    00000004     mss_mmw_per4ft.oer4ft (.const:ti_sysbios_knl_Event_Module__loggerFxn8__C)
                  000161e4    00000004     mss_mmw_per4ft.oer4ft (.const:ti_sysbios_knl_Event_Module__loggerObj__C)
                  000161e8    00000004     mss_mmw_per4ft.oer4ft (.const:ti_sysbios_knl_Semaphore_A_badContext__C)
                  000161ec    00000004     mss_mmw_per4ft.oer4ft (.const:ti_sysbios_knl_Semaphore_A_noEvents__C)
                  000161f0    00000004     mss_mmw_per4ft.oer4ft (.const:ti_sysbios_knl_Semaphore_A_overflow__C)
                  000161f4    00000004     mss_mmw_per4ft.oer4ft (.const:ti_sysbios_knl_Semaphore_A_pendTaskDisabled__C)
                  000161f8    00000004     mss_mmw_per4ft.oer4ft (.const:ti_sysbios_knl_Semaphore_Instance_State_pendQ__O)
                  000161fc    00000004     mss_mmw_per4ft.oer4ft (.const:ti_sysbios_knl_Semaphore_LM_pend__C)
                  00016200    00000004     mss_mmw_per4ft.oer4ft (.const:ti_sysbios_knl_Semaphore_LM_post__C)
                  00016204    00000004     mss_mmw_per4ft.oer4ft (.const:ti_sysbios_knl_Semaphore_Module__diagsEnabled__C)
                  00016208    00000004     mss_mmw_per4ft.oer4ft (.const:ti_sysbios_knl_Semaphore_Module__diagsIncluded__C)
                  0001620c    00000004     mss_mmw_per4ft.oer4ft (.const:ti_sysbios_knl_Semaphore_Module__diagsMask__C)
                  00016210    00000004     mss_mmw_per4ft.oer4ft (.const:ti_sysbios_knl_Semaphore_Module__loggerFxn2__C)
                  00016214    00000004     mss_mmw_per4ft.oer4ft (.const:ti_sysbios_knl_Semaphore_Module__loggerFxn4__C)
                  00016218    00000004     mss_mmw_per4ft.oer4ft (.const:ti_sysbios_knl_Semaphore_Module__loggerObj__C)
                  0001621c    00000004     mss_mmw_per4ft.oer4ft (.const:ti_sysbios_knl_Swi_LD_end__C)
                  00016220    00000004     mss_mmw_per4ft.oer4ft (.const:ti_sysbios_knl_Swi_LM_begin__C)
                  00016224    00000004     mss_mmw_per4ft.oer4ft (.const:ti_sysbios_knl_Swi_LM_post__C)
                  00016228    00000004     mss_mmw_per4ft.oer4ft (.const:ti_sysbios_knl_Swi_Module__diagsEnabled__C)
                  0001622c    00000004     mss_mmw_per4ft.oer4ft (.const:ti_sysbios_knl_Swi_Module__diagsIncluded__C)
                  00016230    00000004     mss_mmw_per4ft.oer4ft (.const:ti_sysbios_knl_Swi_Module__diagsMask__C)
                  00016234    00000004     mss_mmw_per4ft.oer4ft (.const:ti_sysbios_knl_Swi_Module__loggerFxn1__C)
                  00016238    00000004     mss_mmw_per4ft.oer4ft (.const:ti_sysbios_knl_Swi_Module__loggerFxn4__C)
                  0001623c    00000004     mss_mmw_per4ft.oer4ft (.const:ti_sysbios_knl_Swi_Module__loggerObj__C)
                  00016240    00000004     mss_mmw_per4ft.oer4ft (.const:ti_sysbios_knl_Swi_Object__count__C)
                  00016244    00000004     mss_mmw_per4ft.oer4ft (.const:ti_sysbios_knl_Task_A_badPriority__C)
                  00016248    00000004     mss_mmw_per4ft.oer4ft (.const:ti_sysbios_knl_Task_A_badTaskState__C)
                  0001624c    00000004     mss_mmw_per4ft.oer4ft (.const:ti_sysbios_knl_Task_A_badThreadType__C)
                  00016250    00000004     mss_mmw_per4ft.oer4ft (.const:ti_sysbios_knl_Task_A_badTimeout__C)
                  00016254    00000004     mss_mmw_per4ft.oer4ft (.const:ti_sysbios_knl_Task_A_noPendElem__C)
                  00016258    00000004     mss_mmw_per4ft.oer4ft (.const:ti_sysbios_knl_Task_A_sleepTaskDisabled__C)
                  0001625c    00000004     mss_mmw_per4ft.oer4ft (.const:ti_sysbios_knl_Task_E_spOutOfBounds__C)
                  00016260    00000004     mss_mmw_per4ft.oer4ft (.const:ti_sysbios_knl_Task_E_stackOverflow__C)
                  00016264    00000004     mss_mmw_per4ft.oer4ft (.const:ti_sysbios_knl_Task_LD_block__C)
                  00016268    00000004     mss_mmw_per4ft.oer4ft (.const:ti_sysbios_knl_Task_LD_exit__C)
                  0001626c    00000004     mss_mmw_per4ft.oer4ft (.const:ti_sysbios_knl_Task_LD_ready__C)
                  00016270    00000004     mss_mmw_per4ft.oer4ft (.const:ti_sysbios_knl_Task_LM_sleep__C)
                  00016274    00000004     mss_mmw_per4ft.oer4ft (.const:ti_sysbios_knl_Task_LM_switch__C)
                  00016278    00000004     mss_mmw_per4ft.oer4ft (.const:ti_sysbios_knl_Task_Module_State_inactiveQ__O)
                  0001627c    00000004     mss_mmw_per4ft.oer4ft (.const:ti_sysbios_knl_Task_Module__diagsEnabled__C)
                  00016280    00000004     mss_mmw_per4ft.oer4ft (.const:ti_sysbios_knl_Task_Module__diagsIncluded__C)
                  00016284    00000004     mss_mmw_per4ft.oer4ft (.const:ti_sysbios_knl_Task_Module__diagsMask__C)
                  00016288    00000004     mss_mmw_per4ft.oer4ft (.const:ti_sysbios_knl_Task_Module__loggerFxn2__C)
                  0001628c    00000004     mss_mmw_per4ft.oer4ft (.const:ti_sysbios_knl_Task_Module__loggerFxn4__C)
                  00016290    00000004     mss_mmw_per4ft.oer4ft (.const:ti_sysbios_knl_Task_Module__loggerObj__C)
                  00016294    00000004     mss_mmw_per4ft.oer4ft (.const:ti_sysbios_knl_Task_Object__count__C)
                  00016298    00000004     mss_mmw_per4ft.oer4ft (.const:ti_sysbios_knl_Task_allBlockedFunc__C)
                  0001629c    00000004     mss_mmw_per4ft.oer4ft (.const:ti_sysbios_knl_Task_defaultStackHeap__C)
                  000162a0    00000004     mss_mmw_per4ft.oer4ft (.const:ti_sysbios_knl_Task_defaultStackSize__C)
                  000162a4    00000004     mss_mmw_per4ft.oer4ft (.const:ti_sysbios_knl_Task_numConstructedTasks__C)
                  000162a8    00000004     mss_mmw_per4ft.oer4ft (.const:ti_sysbios_timers_rti_Timer_E_cannotSupport__C)
                  000162ac    00000004     mss_mmw_per4ft.oer4ft (.const:ti_sysbios_timers_rti_Timer_Module__diagsEnabled__C)
                  000162b0    00000004     mss_mmw_per4ft.oer4ft (.const:ti_sysbios_timers_rti_Timer_Module__diagsIncluded__C)
                  000162b4    00000004     mss_mmw_per4ft.oer4ft (.const:ti_sysbios_timers_rti_Timer_Module__diagsMask__C)
                  000162b8    00000004     mss_mmw_per4ft.oer4ft (.const:ti_sysbios_timers_rti_Timer_numTimerDevices__C)
                  000162bc    00000004     mss_mmw_per4ft.oer4ft (.const:ti_sysbios_timers_rti_Timer_startupNeeded__C)
                  000162c0    00000004     mss_mmw_per4ft.oer4ft (.const:xdc_runtime_Assert_E_assertFailed__C)
                  000162c4    00000004     mss_mmw_per4ft.oer4ft (.const:xdc_runtime_Core_A_initializedParams__C)
                  000162c8    00000004     mss_mmw_per4ft.oer4ft (.const:xdc_runtime_Core_Module__diagsEnabled__C)
                  000162cc    00000004     mss_mmw_per4ft.oer4ft (.const:xdc_runtime_Core_Module__diagsIncluded__C)
                  000162d0    00000004     mss_mmw_per4ft.oer4ft (.const:xdc_runtime_Core_Module__diagsMask__C)
                  000162d4    00000004     mss_mmw_per4ft.oer4ft (.const:xdc_runtime_Error_E_memory__C)
                  000162d8    00000004     mss_mmw_per4ft.oer4ft (.const:xdc_runtime_Error_Module__diagsEnabled__C)
                  000162dc    00000004     mss_mmw_per4ft.oer4ft (.const:xdc_runtime_Error_Module__diagsIncluded__C)
                  000162e0    00000004     mss_mmw_per4ft.oer4ft (.const:xdc_runtime_Error_Module__diagsMask__C)
                  000162e4    00000004     mss_mmw_per4ft.oer4ft (.const:xdc_runtime_Error_Module__loggerFxn8__C)
                  000162e8    00000004     mss_mmw_per4ft.oer4ft (.const:xdc_runtime_Error_Module__loggerObj__C)
                  000162ec    00000004     mss_mmw_per4ft.oer4ft (.const:xdc_runtime_Error_policyFxn__C)
                  000162f0    00000004     mss_mmw_per4ft.oer4ft (.const:xdc_runtime_Error_policy__C)
                  000162f4    00000004     mss_mmw_per4ft.oer4ft (.const:xdc_runtime_Error_raiseHook__C)
                  000162f8    00000004     mss_mmw_per4ft.oer4ft (.const:xdc_runtime_IGateProvider_Interface__BASE__C)
                  000162fc    00000004     mss_mmw_per4ft.oer4ft (.const:xdc_runtime_IHeap_Interface__BASE__C)
                  00016300    00000004     mss_mmw_per4ft.oer4ft (.const:xdc_runtime_IModule_Interface__BASE__C)
                  00016304    00000004     mss_mmw_per4ft.oer4ft (.const:xdc_runtime_Log_L_error__C)
                  00016308    00000004     mss_mmw_per4ft.oer4ft (.const:xdc_runtime_Memory_defaultHeapInstance__C)
                  0001630c    00000004     mss_mmw_per4ft.oer4ft (.const:xdc_runtime_Startup_execImpl__C)
                  00016310    00000004     mss_mmw_per4ft.oer4ft (.const:xdc_runtime_Startup_maxPasses__C)
                  00016314    00000004     mss_mmw_per4ft.oer4ft (.const:xdc_runtime_Startup_sfxnRts__C)
                  00016318    00000004     mss_mmw_per4ft.oer4ft (.const:xdc_runtime_Startup_sfxnTab__C)
                  0001631c    00000004     mss_mmw_per4ft.oer4ft (.const:xdc_runtime_System_Module__gateObj__C)
                  00016320    00000004     mss_mmw_per4ft.oer4ft (.const:xdc_runtime_System_abortFxn__C)
                  00016324    00000004     mss_mmw_per4ft.oer4ft (.const:xdc_runtime_System_exitFxn__C)
                  00016328    00000004     mss_mmw_per4ft.oer4ft (.const:xdc_runtime_System_extendFxn__C)
                  0001632c    00000004     mss_mmw_per4ft.oer4ft (.const:xdc_runtime_System_maxAtexitHandlers__C)
                  00016330    00000004     mss_mmw_per4ft.oer4ft (.const:xdc_runtime_Text_charTab__C)
                  00016334    00000004     mss_mmw_per4ft.oer4ft (.const:xdc_runtime_Text_nameEmpty__C)
                  00016338    00000004     mss_mmw_per4ft.oer4ft (.const:xdc_runtime_Text_nameStatic__C)
                  0001633c    00000004     mss_mmw_per4ft.oer4ft (.const:xdc_runtime_Text_nameUnknown__C)
                  00016340    00000004     mss_mmw_per4ft.oer4ft (.const:xdc_runtime_Text_nodeTab__C)
                  00016344    00000004     mss_mmw_per4ft.oer4ft (.const:xdc_runtime_Text_visitRopeFxn__C)
                  00016348    00000002     mss_mmw_per4ft.oer4ft (.const:ti_sysbios_family_arm_v7r_tms570_Core_Module__id__C)
                  0001634a    00000002     mss_mmw_per4ft.oer4ft (.const:ti_sysbios_family_arm_v7r_vim_Hwi_Module__id__C)
                  0001634c    00000002     mss_mmw_per4ft.oer4ft (.const:ti_sysbios_family_arm_v7r_vim_Hwi_Module__loggerDefined__C)
                  0001634e    00000002     mss_mmw_per4ft.oer4ft (.const:ti_sysbios_gates_GateMutex_Module__id__C)
                  00016350    00000002     mss_mmw_per4ft.oer4ft (.const:ti_sysbios_hal_Hwi_Module__id__C)
                  00016352    00000002     mss_mmw_per4ft.oer4ft (.const:ti_sysbios_heaps_HeapMem_Module__id__C)
                  00016354    00000002     mss_mmw_per4ft.oer4ft (.const:ti_sysbios_knl_Clock_Module__id__C)
                  00016356    00000002     mss_mmw_per4ft.oer4ft (.const:ti_sysbios_knl_Clock_Module__loggerDefined__C)
                  00016358    00000002     mss_mmw_per4ft.oer4ft (.const:ti_sysbios_knl_Event_Module__id__C)
                  0001635a    00000002     mss_mmw_per4ft.oer4ft (.const:ti_sysbios_knl_Event_Module__loggerDefined__C)
                  0001635c    00000002     mss_mmw_per4ft.oer4ft (.const:ti_sysbios_knl_Semaphore_Module__id__C)
                  0001635e    00000002     mss_mmw_per4ft.oer4ft (.const:ti_sysbios_knl_Semaphore_Module__loggerDefined__C)
                  00016360    00000002     mss_mmw_per4ft.oer4ft (.const:ti_sysbios_knl_Swi_Module__id__C)
                  00016362    00000002     mss_mmw_per4ft.oer4ft (.const:ti_sysbios_knl_Swi_Module__loggerDefined__C)
                  00016364    00000002     mss_mmw_per4ft.oer4ft (.const:ti_sysbios_knl_Task_Module__id__C)
                  00016366    00000002     mss_mmw_per4ft.oer4ft (.const:ti_sysbios_knl_Task_Module__loggerDefined__C)
                  00016368    00000002     mss_mmw_per4ft.oer4ft (.const:ti_sysbios_timers_rti_Timer_Module__id__C)
                  0001636a    00000002     mss_mmw_per4ft.oer4ft (.const:ti_sysbios_timers_rti_Timer_continueOnSuspend__C)
                  0001636c    00000002     mss_mmw_per4ft.oer4ft (.const:xdc_runtime_Core_Module__id__C)
                  0001636e    00000002     mss_mmw_per4ft.oer4ft (.const:xdc_runtime_Error_Module__loggerDefined__C)
                  00016370    00000002     mss_mmw_per4ft.oer4ft (.const:xdc_runtime_Error_maxDepth__C)
                  00016372    00000002     mss_mmw_per4ft.oer4ft (.const:xdc_runtime_Main_Module__id__C)
                  00016374    00000002     mss_mmw_per4ft.oer4ft (.const:xdc_runtime_Memory_Module__id__C)
                  00016376    00000002     mss_mmw_per4ft.oer4ft (.const:xdc_runtime_Text_charCnt__C)
                  00016378    00000002     mss_mmw_per4ft.oer4ft (.const:xdc_runtime_Text_isLoaded__C)
                  0001637a    00000002     mss_mmw_per4ft.oer4ft (.const:xdc_runtime_Text_registryModsLastId__C)
                  0001637c    00000002     mss_mmw_per4ft.oer4ft (.const:xdc_runtime_Text_unnamedModsLastId__C)

.cinit     0    00016380    00002f48     
                  00016380    00002efe     (.cinit..data.load) [load image, compression = lzss]
                  0001927e    00000002     --HOLE-- [fill = 0]
                  00019280    0000000c     (__TI_handler_table)
                  0001928c    00000004     --HOLE-- [fill = 0]
                  00019290    00000008     (.cinit..bss.load) [load image, compression = zero_init]
                  00019298    00000008     (.cinit..myFiqStack.load) [load image, compression = zero_init]
                  000192a0    00000008     (.cinit.systemHeap.load) [load image, compression = zero_init]
                  000192a8    00000020     (__TI_cinit_table)

systemHeap 
*          0    08000000    0000a000     UNINITIALIZED
                  08000000    0000a000     mss_mmw_per4ft.oer4ft (systemHeap)

.data      0    0800a000    00004018     UNINITIALIZED
                  0800a000    00002e5c     mss_main.oer4f (.data:$O1$$)
                  0800ce5c    000003e4     libmmwavelink_xwr68xx.aer4f : rl_driver.oer4f (.data:$O1$$)
                  0800d240    0000021c     cli.oer4f (.data:$O1$$)
                  0800d45c    00000200     mss_mmw_per4ft.oer4ft (.data:ti_sysbios_family_arm_v7r_vim_Hwi_Module_State_0_dispatchTable__A)
                  0800d65c    00000004     libcrc_xwr68xx.aer4f : crc_xwr68xx.oer4f (.data)
                  0800d660    000001e0     cli_mmwave.oer4f (.data:$O1$$)
                  0800d840    000000f0     rtsv7R4_T_le_v3D16_eabi.lib : defs.obj (.data:_ftable)
                  0800d930    00000080     mss_mmw_per4ft.oer4ft (.data:ti_sysbios_knl_Swi_Module_State_0_readyQ__A)
                  0800d9b0    00000080     mss_mmw_per4ft.oer4ft (.data:ti_sysbios_knl_Task_Module_State_0_readyQ__A)
                  0800da30    00000078     rtsv7R4_T_le_v3D16_eabi.lib : write.obj (.data:_device)
                  0800daa8    0000005c     mss_mmw_per4ft.oer4ft (.data:ti_sysbios_knl_Task_Object__table__V)
                  0800db04    00000058     libuart_xwr68xx.aer4f : uart_xwr68xx.oer4f (.data:gUartSciHwCfg)
                  0800db5c    00000050     rtsv7R4_T_le_v3D16_eabi.lib : write.obj (.data:_stream)
                  0800dbac    00000050     libmailbox_xwr68xx.aer4f : mailbox.oer4f (.data:gMailboxMCB)
                  0800dbfc    00000048     mss_mmw_per4ft.oer4ft (.data:ti_sysbios_knl_Task_Module__state__V)
                  0800dc44    00000040     libsoc_xwr68xx.aer4f : soc_xwr68xx.oer4f (.data:SOC_TranslateAddr_LUT)
                  0800dc84    00000040     mss_mmw_per4ft.oer4ft (.data:ti_sysbios_gates_GateMutex_Object__table__V)
                  0800dcc4    0000003c     mss_mmw_per4ft.oer4ft (.data:ti_sysbios_timers_rti_Timer_Object__table__V)
                  0800dd00    00000034     mss_mmw_per4ft.oer4ft (.data:ti_sysbios_family_arm_v7r_vim_Hwi_Module__state__V)
                  0800dd34    00000030     mss_mmw_per4ft.oer4ft (.data:ti_sysbios_knl_Swi_Object__table__V)
                  0800dd64    0000002c     mss_mmw_per4ft.oer4ft (.data:ti_sysbios_family_arm_v7r_vim_Hwi_Object__table__V)
                  0800dd90    0000002c     mss_mmw_per4ft.oer4ft (.data:ti_sysbios_knl_Clock_Module__state__V)
                  0800ddbc    00000028     libuart_xwr68xx.aer4f : uartsci.oer4f (.data:gUartSciFxnTable)
                  0800dde4    00000024                           : uart_xwr68xx.oer4f (.data:UART_config)
                  0800de08    00000024     mss_mmw_per4ft.oer4ft (.data:ti_sysbios_BIOS_Module__state__V)
                  0800de2c    00000020     mss_mmw_per4ft.oer4ft (.data:xdc_runtime_Error_IgnoreBlock)
                  0800de4c    00000020     mss_mmw_per4ft.oer4ft (.data:xdc_runtime_System_Module_State_0_atexitHandlers__A)
                  0800de6c    0000001c     mss_mmw_per4ft.oer4ft (.data:ti_sysbios_knl_Swi_Module__state__V)
                  0800de88    00000018     libmailbox_xwr68xx.aer4f : mailbox_xwr68xx.oer4f (.data:gMailboxMssBssHwCfg)
                  0800dea0    00000018                              : mailbox_xwr68xx.oer4f (.data:gMailboxMssDssHwCfg)
                  0800deb8    00000018     mss_mmw_per4ft.oer4ft (.data:ti_sysbios_heaps_HeapMem_Object__table__V)
                  0800ded0    00000018     mss_mmw_per4ft.oer4ft (.data:ti_sysbios_timers_rti_Timer_Module_State_0_device__A)
                  0800dee8    00000014     libsoc_xwr68xx.aer4f : soc_xwr68xx_mss.oer4f (.data:gSOCHwAttrib)
                  0800defc    00000014     mss_mmw_per4ft.oer4ft (.data:ti_sysbios_family_arm_exc_Exception_Module__state__V)
                  0800df10    00000010     rtsv7R4_T_le_v3D16_eabi.lib : defs.obj (.data)
                  0800df20    00000010     mss_mmw_per4ft.oer4ft (.data:ti_sysbios_timers_rti_Timer_Module_State_0_intFreqs__A)
                  0800df30    00000010     mss_mmw_per4ft.oer4ft (.data:ti_sysbios_timers_rti_Timer_Module__state__V)
                  0800df40    0000000c     rtsv7R4_T_le_v3D16_eabi.lib : exit.obj (.data:$O1$$)
                  0800df4c    0000000c     libesm_xwr68xx.aer4f : esm_xwr1xxx.oer4f (.data:gESMHwCfgAttrs)
                  0800df58    0000000c     mss_mmw_per4ft.oer4ft (.data:ti_sysbios_family_arm_v7a_Pmu_Module__state__V)
                  0800df64    00000008     rtsv7R4_T_le_v3D16_eabi.lib : _lock.obj (.data:$O1$$)
                  0800df6c    00000008     libgpio_xwr68xx.aer4f : gpio_xwr68xx.oer4f (.data:gGPIOHwAtrrib)
                  0800df74    00000008     mss_mmw_per4ft.oer4ft (.data:ti_sysbios_family_arm_v7r_vim_Hwi_Module__root__V)
                  0800df7c    00000008     mss_mmw_per4ft.oer4ft (.data:ti_sysbios_gates_GateHwi_Module__root__V)
                  0800df84    00000008     mss_mmw_per4ft.oer4ft (.data:ti_sysbios_gates_GateMutex_Module__root__V)
                  0800df8c    00000008     mss_mmw_per4ft.oer4ft (.data:ti_sysbios_hal_Hwi_Object__table__V)
                  0800df94    00000008     mss_mmw_per4ft.oer4ft (.data:ti_sysbios_heaps_HeapMem_Module__root__V)
                  0800df9c    00000008     mss_mmw_per4ft.oer4ft (.data:ti_sysbios_knl_Event_Module__root__V)
                  0800dfa4    00000008     mss_mmw_per4ft.oer4ft (.data:ti_sysbios_knl_Queue_Module__root__V)
                  0800dfac    00000008     mss_mmw_per4ft.oer4ft (.data:ti_sysbios_knl_Semaphore_Module__root__V)
                  0800dfb4    00000008     mss_mmw_per4ft.oer4ft (.data:ti_sysbios_knl_Task_Module__root__V)
                  0800dfbc    00000008     mss_mmw_per4ft.oer4ft (.data:ti_sysbios_timers_rti_Timer_Module_State_0_handles__A)
                  0800dfc4    00000008     mss_mmw_per4ft.oer4ft (.data:xdc_runtime_Registry_Module__state__V)
                  0800dfcc    00000008     mss_mmw_per4ft.oer4ft (.data:xdc_runtime_Startup_Module__state__V)
                  0800dfd4    00000008     mss_mmw_per4ft.oer4ft (.data:xdc_runtime_System_Module__state__V)
                  0800dfdc    00000004     libpinmux_xwr68xx.aer4f : pinmux_xwr1xxx.oer4f (.data)
                  0800dfe0    00000004     libuart_xwr68xx.aer4f : UART.oer4f (.data)
                  0800dfe4    00000004     rtsv7R4_T_le_v3D16_eabi.lib : errno.obj (.data)
                  0800dfe8    00000004                                 : fopen.obj (.data)
                  0800dfec    00000004                                 : open.obj (.data)
                  0800dff0    00000004                                 : stkdepth_vars.obj (.data)
                  0800dff4    00000004                                 : strtok.obj (.data)
                  0800dff8    00000004     mss_mmw_per4ft.oer4ft (.data:ti_sysbios_family_arm_exc_Exception_Module_State_0_excContext__A)
                  0800dffc    00000004     mss_mmw_per4ft.oer4ft (.data:ti_sysbios_family_arm_exc_Exception_Module_State_0_excStackBuffers__A)
                  0800e000    00000004     mss_mmw_per4ft.oer4ft (.data:ti_sysbios_family_arm_exc_Exception_Module_State_0_excStack__A)
                  0800e004    00000004     mss_mmw_per4ft.oer4ft (.data:ti_sysbios_gates_GateHwi_Object__table__V)
                  0800e008    00000004     mss_mmw_per4ft.oer4ft (.data:ti_sysbios_heaps_HeapBuf_Module__state__V)
                  0800e00c    00000004     mss_mmw_per4ft.oer4ft (.data:ti_sysbios_knl_Task_Module_State_0_idleTask__A)
                  0800e010    00000004     mss_mmw_per4ft.oer4ft (.data:xdc_runtime_Memory_Module__state__V)
                  0800e014    00000002     mss_mmw_per4ft.oer4ft (.data:ti_sysbios_family_arm_exc_Exception_Module_State_0_excActive__A)
                  0800e016    00000002     mss_mmw_per4ft.oer4ft (.data:xdc_runtime_Error_Module__state__V)

.bss       0    0800e018    00001cd0     UNINITIALIZED
                  0800e018    00001000     (.common:ti_sysbios_family_arm_exc_Exception_Module_State_0_excStack_0__A)
                  0800f018    00000800     mss_mmw_per4ft.oer4ft (.bss:taskStackSection)
                  0800f818    00000194     (.common:gGPIOMCB)
                  0800f9ac    00000120     rtsv7R4_T_le_v3D16_eabi.lib : trgmsg.obj (.bss:_CIOBUF_)
                  0800facc    000000fc     (.common:gMMWave_MCB)
                  0800fbc8    000000a0     (.common:__TI_tmpnams)
                  0800fc68    00000070     (.common:gEsmMCB)
                  0800fcd8    00000008     (.common:gMMWave_DualcoreMCB)
                  0800fce0    00000008     (.common:parmbuf)

.stack     0    0800fce8    00001000     UNINITIALIZED
                  0800fce8    00001000     --HOLE--

.myFiqStack 
*          0    08010ce8    00000800     UNINITIALIZED
                  08010ce8    00000800     mss_mmw_per4ft.oer4ft (.myFiqStack)

xdc.meta   0    00000000    0000012e     COPY SECTION
                  00000000    0000012e     mss_mmw_per4ft.oer4ft (xdc.meta)

MODULE SUMMARY

       Module                          code    ro data   rw data
       ------                          ----    -------   -------
    .\common\
       cli_mmwave.oer4f                4588    192       480    
       cli.oer4f                       1012    850       540    
    +--+-------------------------------+-------+---------+---------+
       Total:                          5600    1042      1020   
                                                                
    .\mss\
       mss_main.oer4f                  6863    28        11868  
       mss_cli.oer4f                   5033    478       0      
       utils.oer4f                     232     0         0      
       inference.oer4f                 230     0         0      
    +--+-------------------------------+-------+---------+---------+
       Total:                          12358   506       11868  
                                                                
    C:\Users\sonif\Documents\StudiumMaster\Semester3\Masterthesis\TI_modifiedFromTICommunity\multi_gesture_68xx_mss\Debug\configPkg\package\cfg\
       mss_mmw_per4ft.oer4ft           1798    9035      50772  
    +--+-------------------------------+-------+---------+---------+
       Total:                          1798    9035      50772  
                                                                
    C:/ti/mmwave_sdk_03_01_01_02/packages/ti/control/mmwave/lib/libmmwave_xwr68xx.aer4f
       mmwave_link.oer4f               2460    0         0      
       mmwave_dualcore.oer4f           2108    0         8      
       mmwave_fullcfg.oer4f            2002    0         0      
       mmwave.oer4f                    1012    0         252    
       mmwave_osal.oer4f               200     0         0      
       mmwave_listlib.oer4f            142     0         0      
    +--+-------------------------------+-------+---------+---------+
       Total:                          7924    0         260    
                                                                
    C:/ti/mmwave_sdk_03_01_01_02/packages/ti/control/mmwavelink/lib/libmmwavelink_xwr68xx.aer4f
       rl_driver.oer4f                 4014    120       996    
       rl_sensor.oer4f                 1680    696       0      
       rl_device.oer4f                 460     0         0      
       rl_controller.oer4f             146     0         0      
    +--+-------------------------------+-------+---------+---------+
       Total:                          6300    816       996    
                                                                
    C:/ti/mmwave_sdk_03_01_01_02/packages/ti/drivers/crc/lib/libcrc_xwr68xx.aer4f
       crc.oer4f                       1256    0         0      
       crc_xwr68xx.oer4f               0       0         4      
    +--+-------------------------------+-------+---------+---------+
       Total:                          1256    0         4      
                                                                
    C:/ti/mmwave_sdk_03_01_01_02/packages/ti/drivers/dma/lib/libdma_xwr68xx.aer4f
       dma.oer4f                       1906    0         0      
    +--+-------------------------------+-------+---------+---------+
       Total:                          1906    0         0      
                                                                
    C:/ti/mmwave_sdk_03_01_01_02/packages/ti/drivers/esm/lib/libesm_xwr68xx.aer4f
       esm.oer4f                       456     0         112    
       esm_xwr1xxx.oer4f               0       0         12     
    +--+-------------------------------+-------+---------+---------+
       Total:                          456     0         124    
                                                                
    C:/ti/mmwave_sdk_03_01_01_02/packages/ti/drivers/gpio/lib/libgpio_xwr68xx.aer4f
       gpio.oer4f                      1090    0         404    
       gpio_xwr68xx.oer4f              0       0         8      
    +--+-------------------------------+-------+---------+---------+
       Total:                          1090    0         412    
                                                                
    C:/ti/mmwave_sdk_03_01_01_02/packages/ti/drivers/mailbox/lib/libmailbox_xwr68xx.aer4f
       mailbox.oer4f                   1916    36        80     
       mailbox_xwr68xx.oer4f           0       0         48     
    +--+-------------------------------+-------+---------+---------+
       Total:                          1916    36        128    
                                                                
    C:/ti/mmwave_sdk_03_01_01_02/packages/ti/drivers/osal/lib/libosal_xwr68xx.aer4f
       HwiP_tirtos.oer4f               222     0         0      
       SemaphoreP_tirtos.oer4f         150     0         0      
       MemoryP_tirtos.oer4f            28      0         0      
       DebugP_tirtos.oer4f             20      0         0      
    +--+-------------------------------+-------+---------+---------+
       Total:                          420     0         0      
                                                                
    C:/ti/mmwave_sdk_03_01_01_02/packages/ti/drivers/pinmux/lib/libpinmux_xwr68xx.aer4f
       pinmux.oer4f                    390     0         0      
       pinmux_xwr1xxx.oer4f            0       0         4      
    +--+-------------------------------+-------+---------+---------+
       Total:                          390     0         4      
                                                                
    C:/ti/mmwave_sdk_03_01_01_02/packages/ti/drivers/soc/lib/libsoc_xwr68xx.aer4f
       soc_xwr68xx_mss.oer4f           1336    0         20     
       soc.oer4f                       492     0         0      
       soc_xwr68xx.oer4f               406     0         64     
       soc_mpu.o                       182     0         0      
    +--+-------------------------------+-------+---------+---------+
       Total:                          2416    0         84     
                                                                
    C:/ti/mmwave_sdk_03_01_01_02/packages/ti/drivers/uart/lib/libuart_xwr68xx.aer4f
       uartsci.oer4f                   2192    0         40     
       uartsci_dma.oer4f               642     0         0      
       UART.oer4f                      150     60        4      
       uart_xwr68xx.oer4f              0       0         124    
    +--+-------------------------------+-------+---------+---------+
       Total:                          2984    60        168    
                                                                
    C:/ti/ti-cgt-arm_16.9.6.LTS/lib/rtsv7R4_T_le_v3D16_eabi.lib
       _printfi.obj                    4218    0         0      
       ull_div32.obj                   696     0         0      
       e_exp.obj                       600     48        0      
       strtod.obj                      484     152       0      
       fopen.obj                       456     0         4      
       defs.obj                        0       0         416    
       trgmsg.obj                      108     0         288    
       fputs.obj                       312     0         0      
       ctype.obj                       0       257       0      
       write.obj                       40      0         200    
       s_scalbn.obj                    236     0         0      
       setvbuf.obj                     220     0         0      
       fflush.obj                      204     0         0      
       open.obj                        188     0         4      
       _io_perm.obj                    174     0         0      
       memcpy_t2.obj                   156     0         0      
       fclose.obj                      152     0         0      
       fputc.obj                       152     0         0      
       vsnprintf.obj                   136     0         0      
       memset_t2.obj                   122     0         0      
       getdevice.obj                   116     0         0      
       s_frexp.obj                     116     0         0      
       printf.obj                      112     0         0      
       copy_decompress_lzss.obj        108     0         0      
       hostlseek.obj                   104     0         0      
       hostrename.obj                  104     0         0      
       fseek.obj                       100     0         0      
       hostopen.obj                    92      0         8      
       sprintf.obj                     100     0         0      
       exit.obj                        80      0         12     
       hostread.obj                    92      0         0      
       close.obj                       88      0         0      
       hostwrite.obj                   88      0         0      
       ltoa.obj                        84      0         0      
       atoi.obj                        80      0         0      
       u_div32.obj                     80      0         0      
       cpy_tbl.obj                     76      0         0      
       hostclose.obj                   68      0         0      
       hostunlink.obj                  68      0         0      
       strtok.obj                      64      0         4      
       strncpy.obj                     54      0         0      
       e_sqrt.obj                      44      0         0      
       unlink.obj                      44      0         0      
       strspn.obj                      42      0         0      
       lseek.obj                       40      0         0      
       memcmp.obj                      38      0         0      
       strcspn.obj                     34      0         0      
       memchr.obj                      32      0         0      
       _lock.obj                       20      0         8      
       memccpy.obj                     28      0         0      
       s_copysign.obj                  26      0         0      
       args_main.obj                   24      0         0      
       strcmp.obj                      24      0         0      
       strchr.obj                      22      0         0      
       strlen.obj                      22      0         0      
       strcpy.obj                      20      0         0      
       copy_decompress_none.obj        14      0         0      
       copy_zero_init.obj              12      0         0      
       errno.obj                       0       0         4      
       stkdepth_vars.obj               0       0         4      
       i_div0.obj                      2       0         0      
    +--+-------------------------------+-------+---------+---------+
       Total:                          11016   457       952    
                                                                
    C:\Users\sonif\Documents\StudiumMaster\Semester3\Masterthesis\TI_modifiedFromTICommunity\multi_gesture_68xx_mss\mss\src\sysbios\sysbios.aer4ft
       BIOS.obj                        19427   0         0      
       exc_Exception_asm.obj           308     0         0      
       vim_Hwi_asm.obj                 208     0         0      
       arm_TaskSupport_asm.obj         180     0         0      
       vim_Hwi_asm_switch.obj          152     0         0      
       arm_IntrinsicsSupport_asm.obj   12      0         0      
       tms570_Core_asm.obj             10      0         0      
    +--+-------------------------------+-------+---------+---------+
       Total:                          20297   0         0      
                                                                
    C:\ti\bios_6_73_01_01\packages\ti\targets\arm\rtsarm\lib\auto_init.aer4ft
       auto_init.oer4ft                160     0         0      
    +--+-------------------------------+-------+---------+---------+
       Total:                          160     0         0      
                                                                
    C:\ti\bios_6_73_01_01\packages\ti\targets\arm\rtsarm\lib\boot.aer4ft
       boot.oer4ft                     116     0         0      
    +--+-------------------------------+-------+---------+---------+
       Total:                          116     0         0      
                                                                
       Stack:                          0       0         4096   
       Linker Generated:               0       12098     0      
    +--+-------------------------------+-------+---------+---------+
       Grand Total:                    78403   24050     70888  


LINKER GENERATED COPY TABLES

__TI_cinit_table @ 000192a8 records: 4, size/record: 8, table size: 32
	.data: load addr=00016380, load size=00002efe bytes, run addr=0800a000, run size=00004018 bytes, compression=lzss
	.bss: load addr=00019290, load size=00000008 bytes, run addr=0800e018, run size=00001cd0 bytes, compression=zero_init
	.myFiqStack: load addr=00019298, load size=00000008 bytes, run addr=08010ce8, run size=00000800 bytes, compression=zero_init
	systemHeap: load addr=000192a0, load size=00000008 bytes, run addr=08000000, run size=0000a000 bytes, compression=zero_init


LINKER GENERATED HANDLER TABLE

__TI_handler_table @ 00019280 records: 3, size/record: 4, table size: 12
	index: 0, handler: __TI_zero_init
	index: 1, handler: __TI_decompress_lzss
	index: 2, handler: __TI_decompress_none


GLOBAL SYMBOLS: SORTED ALPHABETICALLY BY Name 

address   name                                                                 
-------   ----                                                                 
00010dc5  C$$EXIT                                                              
0000f8d7  C$$IO$$                                                              
000100d5  CLI_MMWaveExtensionHandler                                           
0000c1a9  CLI_MMWaveExtensionHelp                                              
00011a31  CLI_MMWaveExtensionInit                                              
000028d5  CLI_getMMWaveExtensionConfig                                         
00012e49  CLI_getMMWaveExtensionOpenConfig                                     
00009b6d  CLI_open                                                             
00010be5  CLI_write                                                            
000093b5  CRC_computeSignature                                                 
00010c35  CRC_getSignature                                                     
000108c1  CRC_getTransactionId                                                 
00013229  CRC_initConfigParams                                                 
00005289  CRC_open                                                             
0000c6e9  DMA_assignChannel                                                    
00009d3d  DMA_clearChannelInterruptFlag                                        
0000f5b1  DMA_disableChannel                                                   
000094b1  DMA_disableInterrupt                                                 
0000f97d  DMA_enableChannel                                                    
0000a0bd  DMA_enableInterrupt                                                  
00010915  DMA_freeChannel                                                      
0000c78d  DMA_getChannelInterruptFlag                                          
00005681  DMA_setChannelParams                                                 
00010545  ESM_highpriority_FIQ                                                 
0000c831  ESM_init                                                             
0001292d  ESM_lowpriority_IRQ                                                  
0000c051  ESM_processInterrupt                                                 
0000f61d  GPIO_enableInt                                                       
0000d701  GPIO_init                                                            
00010135  GPIO_setCallback                                                     
00007175  GPIO_setConfig                                                       
0000b591  GPIO_write                                                           
000112e1  HOSTclose                                                            
0000fb85  HOSTlseek                                                            
000103d9  HOSTopen                                                             
00010435  HOSTread                                                             
0000fbed  HOSTrename                                                           
00011325  HOSTunlink                                                           
000107ad  HOSTwrite                                                            
000130c7  HwiP_Params_init                                                     
0000e8c1  HwiP_create                                                          
000119bd  HwiP_delete                                                          
00003499  HwiP_disable                                                         
00006e7d  HwiP_disableInterrupt                                                
000017cb  HwiP_restore                                                         
00009c55  Inference                                                            
0000c8d5  MMWave_addBpmChirp                                                   
0000ac4d  MMWave_addChirp                                                      
0000bd89  MMWave_addProfile                                                    
0000ee85  MMWave_config                                                        
0000ad15  MMWave_configBPM                                                     
0000ce01  MMWave_configLink                                                    
00011751  MMWave_decodeError                                                   
000039c9  MMWave_decodeErrorLevel                                              
0000e3ad  MMWave_deviceCfgAsyncEvent                                           
0000f30d  MMWave_deviceCfgFxn                                                  
0000e431  MMWave_deviceEventFxn                                                
00003745  MMWave_deviceExecuteFxn                                              
0001323b  MMWave_deviceGetDeviceInfo                                           
00008c7d  MMWave_deviceInitFxn                                                 
0000e941  MMWave_deviceOpenFxn                                                 
0000eef9  MMWave_deviceStartFxn                                                
0000f9e5  MMWave_deviceStopFxn                                                 
00012d29  MMWave_deviceSyncFxn                                                 
00012d43  MMWave_encodeError                                                   
0001059d  MMWave_execute                                                       
00011455  MMWave_executeLink                                                   
0000addd  MMWave_flushCfg                                                      
0000e63d  MMWave_getBpmChirpCfg                                                
0000c2f9  MMWave_getBpmChirpHandle                                             
0000d24d  MMWave_getChirpCfg                                                   
0000aea5  MMWave_getChirpHandle                                                
0000e4b5  MMWave_getNumBpmChirp                                                
0000ed1d  MMWave_getNumChirps                                                  
0000e07d  MMWave_getProfileCfg                                                 
0000ce9d  MMWave_getProfileHandle                                              
0000a195  MMWave_init                                                          
00010969  MMWave_initLink                                                      
00012d5d  MMWave_listAdd                                                       
0001294d  MMWave_listCat                                                       
000090ad  MMWave_listGetHead                                                   
00009a7d  MMWave_listGetNext                                                   
00012bd1  MMWave_listRemove                                                    
00011d23  MMWave_listRemoveNode                                                
0000e539  MMWave_open                                                          
00008371  MMWave_openLink                                                      
00012085  MMWave_osalMutexCreate                                               
00013103  MMWave_osalMutexDelete                                               
00012e61  MMWave_osalMutexLock                                                 
00005c45  MMWave_osalMutexUnlock                                               
000120b1  MMWave_osalSemCreate                                                 
00013117  MMWave_osalSemDelete                                                 
00005ff5  MMWave_osalSemSignal                                                 
00012e79  MMWave_osalSemWait                                                   
0000c979  MMWave_start                                                         
000092b5  MMWave_startLink                                                     
0001037d  MMWave_stop                                                          
0000f6f5  MMWave_stopLink                                                      
00010c85  MMWave_sync                                                          
0001234d  Mailbox_Config_init                                                  
0000d791  Mailbox_close                                                        
00015df4  Mailbox_defaultCfg                                                   
0000e9bd  Mailbox_init                                                         
00003eb9  Mailbox_open                                                         
0000a345  Mailbox_read                                                         
0000fa4d  Mailbox_readFlush                                                    
00008e9d  Mailbox_write                                                        
00011809  Mailbox_writeReset                                                   
0001324d  MemoryP_ctrlAlloc                                                    
0000fc55  MemoryP_ctrlFree                                                     
0000117d  MmwDemo_CLIInit                                                      
0000ee0d  MmwDemo_Dss2MssISR                                                   
000061c9  MmwDemo_bpmConfig                                                    
0000e215  MmwDemo_gpioSwitchTask                                               
000066c5  MmwDemo_mboxCallback                                                 
0001296d  MmwDemo_mboxWrite                                                    
0001064d  MmwDemo_mmWaveCtrlTask                                               
000045c5  MmwDemo_mssCtrlPathTask                                              
00004e75  MmwDemo_mssDataPathConfig                                            
0000baad  MmwDemo_mssDataPathStart                                             
0000a419  MmwDemo_mssDataPathStop                                              
00001cb5  MmwDemo_mssInitTask                                                  
0001312d  MmwDemo_mssMmwaveConfigCallbackFxn                                   
00008fa5  MmwDemo_mssMmwaveEventCallbackFxn                                    
00012bed  MmwDemo_mssMmwaveStartCallbackFxn                                    
00013141  MmwDemo_mssMmwaveStopCallbackFxn                                     
0000fcc9  MmwDemo_mssSetHsiClk                                                 
000126a1  MmwDemo_notifySensorStart                                            
00012c09  MmwDemo_notifySensorStop                                             
0000d10d  MmwDemo_sleep                                                        
0000d8b1  MmwDemo_waitSensorStartComplete                                      
0000ca1d  MmwDemo_waitSensorStopComplete                                       
0000f761  Pinmux_Set_FuncSel                                                   
0000c449  Pinmux_Set_OverrideCtrl                                              
UNDEFED   SHT$$INIT_ARRAY$$Base                                                
UNDEFED   SHT$$INIT_ARRAY$$Limit                                               
0000ba67  SOC_MPUAreRegionsSeparate                                            
0000ba13  SOC_MPUDisable                                                       
0000ba47  SOC_MPUDisableBackgroundRegion                                       
0000b9f5  SOC_MPUEnable                                                        
0000ba31  SOC_MPUEnableBackgroundRegion                                        
0000ba5d  SOC_MPUGetNumberOfRegions                                            
0000ba75  SOC_MPUGetRegion                                                     
0000ba81  SOC_MPUGetRegionBaseAddress                                          
0000ba9b  SOC_MPUGetRegionPermission                                           
0000ba91  SOC_MPUGetRegionType                                                 
0000ba6f  SOC_MPUSetRegion                                                     
0000ba7b  SOC_MPUSetRegionBaseAddress                                          
0000baa5  SOC_MPUSetRegionSizeRegister                                         
0000ba87  SOC_MPUSetRegionTypeAndPermission                                    
000122cd  SOC_SystemISR                                                        
0800dc44  SOC_TranslateAddr_LUT                                                
0000a775  SOC_controlSecureFirewall                                            
00002bf1  SOC_deviceInit                                                       
00011d55  SOC_getDevicePartNumber                                              
0000efe1  SOC_getDeviceRFFreqScaleFactor                                       
00012c25  SOC_getInAddr_LUTType                                                
00012aef  SOC_getOutAddr_LUTType                                               
0000e29d  SOC_init                                                             
000126c5  SOC_isMMWaveDSSOperational                                           
000126e9  SOC_isMMWaveMSSOperational                                           
0000d1ad  SOC_isSecureDevice                                                   
00011bad  SOC_setMMWaveDSSLinkState                                            
00011be1  SOC_setMMWaveMSSLinkState                                            
0000dd29  SOC_translateAddress                                                 
00011845  SOC_unhaltBSS                                                        
000120dd  SOC_waitBSSPowerUp                                                   
00004a39  SemaphoreP_Params_init                                               
0000fdfd  SemaphoreP_create                                                    
00011ce3  SemaphoreP_delete                                                    
0001325f  SemaphoreP_pend                                                      
0000fff5  SemaphoreP_post                                                      
0000fff5  SemaphoreP_postFromClock                                             
0000fff5  SemaphoreP_postFromISR                                               
00006cf5  UART_Params_init                                                     
0800dde4  UART_config                                                          
00015d04  UART_defaultParams                                                   
00011a69  UART_init                                                            
00011c15  UART_open                                                            
00010065  UART_read                                                            
00010195  UART_write                                                           
00010805  UART_writePolling                                                    
000106a5  UartSci_closeDMA                                                     
000128c7  UartSci_disableRxDMA                                                 
00013169  UartSci_disableTxDMA                                                 
000128e9  UartSci_enableRxDMA                                                  
0001317d  UartSci_enableTxDMA                                                  
0000ddb5  UartSci_initiateRxDMA                                                
0000d941  UartSci_initiateTxDMA                                                
000072e5  UartSci_isDMAEnabled                                                 
0000bcd5  UartSci_openDMA                                                      
00013191  _DebugP_assert                                                       
00000000  __ASM__                                                              
0800f9ac  __CIOBUF_                                                            
000000a9  __ISA__                                                              
000000bb  __PLAT__                                                             
08010ce8  __STACK_END                                                          
00001000  __STACK_SIZE                                                         
000000df  __TARG__                                                             
000192a8  __TI_CINIT_Base                                                      
000192c8  __TI_CINIT_Limit                                                     
00019280  __TI_Handler_Table_Base                                              
0001928c  __TI_Handler_Table_Limit                                             
0000cc15  __TI_auto_init                                                       
00005ef7  __TI_cleanup                                                         
0800df40  __TI_cleanup_ptr                                                     
0000d2e5  __TI_closefile                                                       
0000f839  __TI_decompress_lzss                                                 
000133b1  __TI_decompress_none                                                 
0000aaad  __TI_doflush                                                         
0800df44  __TI_dtors_ptr                                                       
0800df48  __TI_enable_exit_profile_output                                      
0800df10  __TI_ft_end                                                          
ffffffff  __TI_pprof_out_hndl                                                  
000008c5  __TI_printfi                                                         
ffffffff  __TI_prof_data_size                                                  
ffffffff  __TI_prof_data_start                                                 
0000c005  __TI_rd_ok                                                           
0000f8db  __TI_readmsg                                                         
00016380  __TI_static_base__                                                   
0800fbc8  __TI_tmpnams                                                         
0000f8a5  __TI_writemsg                                                        
0000bfa1  __TI_wrt_ok                                                          
0000b4c5  __TI_zero_init                                                       
00000106  __TRDR__                                                             
0000baab  __aeabi_idiv0                                                        
0000ec29  __aeabi_memclr                                                       
0000ec29  __aeabi_memclr4                                                      
0000ec29  __aeabi_memclr8                                                      
0000cfd5  __aeabi_memcpy                                                       
0000cfd5  __aeabi_memcpy4                                                      
0000cfd5  __aeabi_memcpy8                                                      
0000ec2b  __aeabi_memset                                                       
0000ec2b  __aeabi_memset4                                                      
0000ec2b  __aeabi_memset8                                                      
0800df1c  __aeabi_stderr                                                       
0800df14  __aeabi_stdin                                                        
0800df18  __aeabi_stdout                                                       
00010e14  __aeabi_uidiv                                                        
00010e14  __aeabi_uidivmod                                                     
000031e0  __aeabi_uldivmod                                                     
ffffffff  __binit__                                                            
ffffffff  __c_args__                                                           
0800fce8  __stack                                                              
00012f39  _args_main                                                           
0000f054  _c_int00                                                             
0001585e  _ctypes_                                                             
0800da30  _device                                                              
0800d840  _ftable                                                              
0800df64  _lock                                                                
000131c7  _nop                                                                 
000131bf  _register_lock                                                       
000131b9  _register_unlock                                                     
0800db5c  _stream                                                              
0800df68  _unlock                                                              
00010dc9  abort                                                                
0000f7cd  angleDelta                                                           
00010d75  atoi                                                                 
ffffffff  binit                                                                
00010755  close                                                                
00012109  compute_innerprod                                                    
00010f59  copy_in                                                              
00012dab  copysign                                                             
00012dab  copysignl                                                            
00007e9d  correlation_function                                                 
0800a19c  energyLog                                                            
0800dfe4  errno                                                                
00010dd1  exit                                                                 
00004119  exp                                                                  
00004119  expl                                                                 
0000d34b  fclose                                                               
0800a0b4  featureVecPosLog                                                     
0000aaf9  fflush                                                               
0000e73d  findDelta                                                            
0000f1b1  finddevice                                                           
0800a024  fltGestureCnt                                                        
00005f4d  fopen                                                                
0000d37d  fputc                                                                
00007fd5  fputs                                                                
00012d77  free                                                                 
00005f23  freopen                                                              
0000f225  frexp                                                                
0000f225  frexpl                                                               
0000fe61  fseek                                                                
0800a728  gANN_struct_t                                                        
0800d2b8  gCLI                                                                 
0800d774  gCLIMMWaveControlCfg                                                 
0800d6cc  gCLIMMWaveExtensionTable                                             
0800d668  gCLIMMWaveOpenCfg                                                    
0800d660  gCLI_mmwave_freq_scale_factor                                        
0800d65c  gCRCRegister                                                         
0800df4c  gESMHwCfgAttrs                                                       
0800fc68  gEsmMCB                                                              
0800df6c  gGPIOHwAtrrib                                                        
0800f818  gGPIOMCB                                                             
0800fcd8  gMMWave_DualcoreMCB                                                  
0800facc  gMMWave_MCB                                                          
0800dbac  gMailboxMCB                                                          
0800de88  gMailboxMssBssHwCfg                                                  
0800dea0  gMailboxMssDssHwCfg                                                  
0800a39c  gMmwMssMCB                                                           
0800dfdc  gPinmuxRegs                                                          
0800dee8  gSOCHwAttrib                                                         
0800ddbc  gUartSciFxnTable                                                     
0800db04  gUartSciHwCfg                                                        
0800a014  gestureCnt                                                           
0800a01c  gestureCntPrev                                                       
0000f37d  gestureInferenceProcessing                                           
0800a03c  gestureProbabilityLog                                                
0800a00c  gestureTimeStamp                                                     
0000f1df  getdevice                                                            
0800d244  hardCodedConfigCommands                                              
0800d240  hardCodedConfigIndex                                                 
00009991  ldexp                                                                
00009991  ldexpl                                                               
000123c5  log2Approx                                                           
00011aa1  logEnergy                                                            
0000f3ed  logFeatures                                                          
00012415  lseek                                                                
000109bd  ltoa                                                                 
00007451  main                                                                 
0800dff0  main_func_sp                                                         
00011fff  malloc                                                               
000119f7  maxCheck                                                             
00012c79  memccpy                                                              
000129cd  memchr                                                               
00012603  memcmp                                                               
0000cfd5  memcpy                                                               
0000ec31  memset                                                               
0800a02c  numDetectionsPerBucket                                               
0000b881  open                                                                 
0800fce0  parmbuf                                                              
0800d68c  partInfoStringArray                                                  
0800a000  peopleDetectorState                                                  
0800a004  peopleDetectorStateFlt                                               
0800a008  peopleDetectorStatePrev                                              
00008245  postProcessing                                                       
0000f465  printf                                                               
0000d37d  putc                                                                 
0000d403  putchar                                                              
000080e5  puts                                                                 
00012135  relu_activation                                                      
000121e5  remove                                                               
000131a5  rlAppendDummy                                                        
00011ad7  rlAppendSubBlock                                                     
000122f7  rlDeviceGetMmWaveLinkVersion                                         
00012161  rlDeviceGetMssVersion                                                
00012ed9  rlDeviceGetRfVersion                                                 
0001113b  rlDeviceGetVersion                                                   
00010cd5  rlDeviceIdentifyCmdDir                                               
0000fd31  rlDevicePowerOff                                                     
0000de41  rlDevicePowerOn                                                      
0001270d  rlDeviceSetHsiClk                                                    
0000f0c9  rlDriverAsyncEventHandler                                            
00012ef1  rlDriverCalCRC                                                       
000104eb  rlDriverCalChkSum                                                    
0000686d  rlDriverCmdInvoke                                                    
00008b69  rlDriverCmdSendRetry                                                 
000123ed  rlDriverConstructInMsg                                               
00008929  rlDriverConstructOutMsg                                              
0000d545  rlDriverDeInit                                                       
0000e7bd  rlDriverExecuteGetApi                                                
0000fab5  rlDriverExecuteSetApi                                                
00012f09  rlDriverFillPayload                                                  
00008a49  rlDriverGetHandle                                                    
0000bc15  rlDriverGetPlatformId                                                
0000fb1d  rlDriverHostIrqHandler                                               
000095ad  rlDriverInit                                                         
00012f21  rlDriverIsDeviceMapValid                                             
0000decd  rlDriverMsgCmdReply                                                  
00008499  rlDriverMsgRead                                                      
0000d5d9  rlDriverMsgReadCmdCtx                                                
000106fd  rlDriverMsgReadSpawnCtx                                              
0000b345  rlDriverMsgWrite                                                     
00011185  rlDriverOsiInit                                                      
0000f13d  rlDriverProcRdMsg                                                    
000096a9  rlDriverRdVerifyMsg                                                  
00006b75  rlDriverRxHdrRead                                                    
00011497  rlDriverValidateHdr                                                  
00010d25  rlDriverVerifyCRC                                                    
0000ccb5  rlDriverWaitForResponse                                              
00012731  rlEnableContMode                                                     
00012d91  rlGetRfDieId                                                         
00011881  rlGetSubBlock                                                        
00007adb  rlGetSubBlockId                                                      
00009899  rlGetSubBlockLen                                                     
0000a915  rlRfCalibDataRestore                                                 
000129ad  rlRfInit                                                             
000124f9  rlRfInitCalibConfig                                                  
0001251f  rlRfRunTimeCalibConfig                                               
00012755  rlRfSetCalMonTimeUnitConfig                                          
00012545  rlRfSetDeviceCfg                                                     
00011d85  rlSensorStart                                                        
0001218d  rlSensorStop                                                         
0001256b  rlSetAdcOutConfig                                                    
0000c4f1  rlSetAdvFrameConfig                                                  
00012591  rlSetBpmCommonConfig                                                 
000125b7  rlSetChannelConfig                                                   
0000a9e1  rlSetChirpConfig                                                     
000125dd  rlSetContModeConfig                                                  
0000b405  rlSetFrameConfig                                                     
00012779  rlSetLowPowerModeConfig                                              
0000a4ed  rlSetMultiBpmChirpConfig                                             
0000be39  rlSetProfileConfig                                                   
0800cf5c  rl_rxMsg                                                             
0800ce5c  rl_txMsg                                                             
0000c599  runPeopleDetection                                                   
00009991  scalbn                                                               
00009991  scalbnl                                                              
00009fe1  setvbuf                                                              
0000da61  soft_max                                                             
0000fec5  sprintf                                                              
000121b9  sqrt                                                                 
000121b9  sqrtl                                                                
00013049  strchr                                                               
00012f51  strcmp                                                               
000131cd  strcpy                                                               
0001290b  strcspn                                                              
0001305f  strlen                                                               
00011b0d  strncpy                                                              
00012321  strspn                                                               
00005871  strtod                                                               
000114d9  strtok                                                               
00005871  strtold                                                              
0800de08  ti_sysbios_BIOS_Module__state__V                                     
00012ddf  ti_sysbios_BIOS_RtsGateProxy_Handle__label__S                        
0000df59  ti_sysbios_BIOS_RtsGateProxy_enter__E                                
0000df5d  ti_sysbios_BIOS_RtsGateProxy_leave__E                                
000134a1  ti_sysbios_BIOS_RtsGateProxy_query__E                                
00011db5  ti_sysbios_BIOS_atExitFunc__I                                        
0001279d  ti_sysbios_BIOS_errorRaiseHook__I                                    
00013075  ti_sysbios_BIOS_exitFunc__I                                          
000134f1  ti_sysbios_BIOS_linkedWithIncorrectBootLibrary__E                    
0000bd87  ti_sysbios_BIOS_nullFunc__I                                          
000127c1  ti_sysbios_BIOS_registerRTSLock__I                                   
000127e5  ti_sysbios_BIOS_removeRTSLock__I                                     
00012c95  ti_sysbios_BIOS_rtsLock__I                                           
00012f69  ti_sysbios_BIOS_rtsUnlock__I                                         
000132c1  ti_sysbios_BIOS_setThreadType__E                                     
00011de5  ti_sysbios_BIOS_startFunc__I                                         
000132d1  ti_sysbios_BIOS_start__E                                             
0000a694  ti_sysbios_family_arm_IntrinsicsSupport_maxbitA__I                   
0000a694  ti_sysbios_family_arm_IntrinsicsSupport_maxbit__E                    
0000dfed  ti_sysbios_family_arm_TaskSupport_Module__startupDone__S             
0000eab4  ti_sysbios_family_arm_TaskSupport_buildTaskStack                     
000133d1  ti_sysbios_family_arm_TaskSupport_checkStack__E                      
000133e1  ti_sysbios_family_arm_TaskSupport_getStackAlignment__E               
00012c40  ti_sysbios_family_arm_TaskSupport_glue                               
000160a8  ti_sysbios_family_arm_TaskSupport_stackAlignment__C                  
00011e21  ti_sysbios_family_arm_TaskSupport_start__E                           
00012c5c  ti_sysbios_family_arm_TaskSupport_swap__E                            
000160ac  ti_sysbios_family_arm_exc_Exception_E_dataAbort__C                   
000160b0  ti_sysbios_family_arm_exc_Exception_E_prefetchAbort__C               
000160b4  ti_sysbios_family_arm_exc_Exception_E_swi__C                         
000160b8  ti_sysbios_family_arm_exc_Exception_E_undefinedInstruction__C        
0800e014  ti_sysbios_family_arm_exc_Exception_Module_State_0_excActive__A      
0800dff8  ti_sysbios_family_arm_exc_Exception_Module_State_0_excContext__A     
0800dffc  ti_sysbios_family_arm_exc_Exception_Module_State_0_excStackBuffers__A
0800e018  ti_sysbios_family_arm_exc_Exception_Module_State_0_excStack_0__A     
0800e000  ti_sysbios_family_arm_exc_Exception_Module_State_0_excStack__A       
000153c6  ti_sysbios_family_arm_exc_Exception_Module__id__C                    
0800defc  ti_sysbios_family_arm_exc_Exception_Module__state__V                 
000133f1  ti_sysbios_family_arm_exc_Exception_Module_startup__E                
000039d1  ti_sysbios_family_arm_exc_Exception_excDumpContext__I                
0000a844  ti_sysbios_family_arm_exc_Exception_excHandlerAsm__I                 
0000a8ac  ti_sysbios_family_arm_exc_Exception_excHandlerDataAsm__I             
00006d01  ti_sysbios_family_arm_exc_Exception_excHandler__I                    
000160bc  ti_sysbios_family_arm_exc_Exception_excHookFuncs__A                  
000160c0  ti_sysbios_family_arm_exc_Exception_excHookFuncs__C                  
0000ff28  ti_sysbios_family_arm_exc_Exception_initCore0__I                     
000160c4  ti_sysbios_family_arm_v7a_Pmu_A_invalidCounterId__C                  
000160c8  ti_sysbios_family_arm_v7a_Pmu_Module__diagsEnabled__C                
000160cc  ti_sysbios_family_arm_v7a_Pmu_Module__diagsIncluded__C               
000160d0  ti_sysbios_family_arm_v7a_Pmu_Module__diagsMask__C                   
0001605a  ti_sysbios_family_arm_v7a_Pmu_Module__id__C                          
0800df58  ti_sysbios_family_arm_v7a_Pmu_Module__state__V                       
000129f1  ti_sysbios_family_arm_v7a_Pmu_Module_startup__E                      
0000cb64  ti_sysbios_family_arm_v7a_Pmu_configureCounterI__I                   
0000b1c1  ti_sysbios_family_arm_v7a_Pmu_configureCounter__E                    
000132e0  ti_sysbios_family_arm_v7a_Pmu_disableInterruptI__E                   
000132f0  ti_sysbios_family_arm_v7a_Pmu_enableInterruptI__E                    
00008d88  ti_sysbios_family_arm_v7a_Pmu_getEnabled__E                          
00013300  ti_sysbios_family_arm_v7a_Pmu_getNumCounters__E                      
00012f80  ti_sysbios_family_arm_v7a_Pmu_initCounters__I                        
00013310  ti_sysbios_family_arm_v7a_Pmu_startCounterI__E                       
0000daf1  ti_sysbios_family_arm_v7a_Pmu_startCounter__E                        
00013320  ti_sysbios_family_arm_v7a_Pmu_stopCounterI__E                        
000160d4  ti_sysbios_family_arm_v7r_tms570_Core_E_mismatchedIds__C             
00016348  ti_sysbios_family_arm_v7r_tms570_Core_Module__id__C                  
00011371  ti_sysbios_family_arm_v7r_tms570_Core_Module_startup__E              
00010a65  ti_sysbios_family_arm_v7r_tms570_Core_getId__E                       
000160d8  ti_sysbios_family_arm_v7r_tms570_Core_id__C                          
000160dc  ti_sysbios_family_arm_v7r_vim_Hwi_A_badChannelId__C                  
000160e0  ti_sysbios_family_arm_v7r_vim_Hwi_E_alreadyDefined__C                
000160e4  ti_sysbios_family_arm_v7r_vim_Hwi_E_badIntNum__C                     
000160e8  ti_sysbios_family_arm_v7r_vim_Hwi_E_phantomInterrupt__C              
000160ec  ti_sysbios_family_arm_v7r_vim_Hwi_E_undefined__C                     
000160f0  ti_sysbios_family_arm_v7r_vim_Hwi_E_unsupportedMaskingOption__C      
0000df61  ti_sysbios_family_arm_v7r_vim_Hwi_Instance_finalize__E               
00008931  ti_sysbios_family_arm_v7r_vim_Hwi_Instance_init__E                   
000160f4  ti_sysbios_family_arm_v7r_vim_Hwi_LD_end__C                          
000160f8  ti_sysbios_family_arm_v7r_vim_Hwi_LM_begin__C                        
0800d45c  ti_sysbios_family_arm_v7r_vim_Hwi_Module_State_0_dispatchTable__A    
08010ce8  ti_sysbios_family_arm_v7r_vim_Hwi_Module_State_0_fiqStack__A         
000160fc  ti_sysbios_family_arm_v7r_vim_Hwi_Module__diagsEnabled__C            
00016100  ti_sysbios_family_arm_v7r_vim_Hwi_Module__diagsIncluded__C           
00016104  ti_sysbios_family_arm_v7r_vim_Hwi_Module__diagsMask__C               
0001634a  ti_sysbios_family_arm_v7r_vim_Hwi_Module__id__C                      
0001634c  ti_sysbios_family_arm_v7r_vim_Hwi_Module__loggerDefined__C           
00016108  ti_sysbios_family_arm_v7r_vim_Hwi_Module__loggerFxn1__C              
0001610c  ti_sysbios_family_arm_v7r_vim_Hwi_Module__loggerFxn8__C              
00016110  ti_sysbios_family_arm_v7r_vim_Hwi_Module__loggerObj__C               
0800df74  ti_sysbios_family_arm_v7r_vim_Hwi_Module__root__V                    
00012f99  ti_sysbios_family_arm_v7r_vim_Hwi_Module__startupDone__F             
00012f99  ti_sysbios_family_arm_v7r_vim_Hwi_Module__startupDone__S             
0800dd00  ti_sysbios_family_arm_v7r_vim_Hwi_Module__state__V                   
000098a1  ti_sysbios_family_arm_v7r_vim_Hwi_Module_startup__E                  
00016114  ti_sysbios_family_arm_v7r_vim_Hwi_NUM_INTERRUPTS__C                  
00015ec8  ti_sysbios_family_arm_v7r_vim_Hwi_Object__DESC__C                    
00015d70  ti_sysbios_family_arm_v7r_vim_Hwi_Object__PARAMS__C                  
00012a11  ti_sysbios_family_arm_v7r_vim_Hwi_Object__delete__S                  
0800dd64  ti_sysbios_family_arm_v7r_vim_Hwi_Object__table__V                   
00012fb1  ti_sysbios_family_arm_v7r_vim_Hwi_Params__init__S                    
00015b70  ti_sysbios_family_arm_v7r_vim_Hwi_channelMap__A                      
00016118  ti_sysbios_family_arm_v7r_vim_Hwi_channelMap__C                      
00012cb1  ti_sysbios_family_arm_v7r_vim_Hwi_clearInterrupt__E                  
00010a11  ti_sysbios_family_arm_v7r_vim_Hwi_create                             
0000e83d  ti_sysbios_family_arm_v7r_vim_Hwi_delete                             
00012a31  ti_sysbios_family_arm_v7r_vim_Hwi_disableInterrupt__E                
00005a61  ti_sysbios_family_arm_v7r_vim_Hwi_dispatchIRQC__I                    
0000d66c  ti_sysbios_family_arm_v7r_vim_Hwi_dispatchIRQ__I                     
00012a51  ti_sysbios_family_arm_v7r_vim_Hwi_enableInterrupt__E                 
00010fb1  ti_sysbios_family_arm_v7r_vim_Hwi_getStackInfo__E                    
0000d071  ti_sysbios_family_arm_v7r_vim_Hwi_initIntController__I               
000118bc  ti_sysbios_family_arm_v7r_vim_Hwi_init__I                            
0001605c  ti_sysbios_family_arm_v7r_vim_Hwi_intReqEnaSet__A                    
0001611c  ti_sysbios_family_arm_v7r_vim_Hwi_intReqEnaSet__C                    
0000d111  ti_sysbios_family_arm_v7r_vim_Hwi_mapChannel__I                      
00016120  ti_sysbios_family_arm_v7r_vim_Hwi_phantomFunc__C                     
0000ff91  ti_sysbios_family_arm_v7r_vim_Hwi_phantomIntHandler__I               
000072f1  ti_sysbios_family_arm_v7r_vim_Hwi_reconfig__E                        
00013441  ti_sysbios_family_arm_v7r_vim_Hwi_startup__E                         
00016124  ti_sysbios_family_arm_v7r_vim_Hwi_swiDisable__C                      
00016128  ti_sysbios_family_arm_v7r_vim_Hwi_swiRestoreHwi__C                   
00013401  ti_sysbios_family_arm_v7r_vim_Hwi_switchFromBootStack__E             
0001612c  ti_sysbios_family_arm_v7r_vim_Hwi_taskDisable__C                     
00016130  ti_sysbios_family_arm_v7r_vim_Hwi_taskRestoreHwi__C                  
00000000  ti_sysbios_family_arm_v7r_vim_Hwi_vectors                            
fffffdec  ti_sysbios_family_arm_v7r_vim_Hwi_vim                                
0001606c  ti_sysbios_family_arm_v7r_vim_Hwi_wakeEnaSet__A                      
00016134  ti_sysbios_family_arm_v7r_vim_Hwi_wakeEnaSet__C                      
0000d460  ti_sysbios_family_xxx_Hwi_switchAndRunDispatchC                      
0000d414  ti_sysbios_family_xxx_Hwi_switchAndRunFunc                           
00012dc5  ti_sysbios_gates_GateHwi_Handle__label__S                            
00013501  ti_sysbios_gates_GateHwi_Instance_init__E                            
00015e18  ti_sysbios_gates_GateHwi_Module__FXNS__C                             
0800df7c  ti_sysbios_gates_GateHwi_Module__root__V                             
00015ee8  ti_sysbios_gates_GateHwi_Object__DESC__C                             
00015fe4  ti_sysbios_gates_GateHwi_Object__PARAMS__C                           
00011e51  ti_sysbios_gates_GateHwi_Object__create__S                           
00012a71  ti_sysbios_gates_GateHwi_Object__delete__S                           
0800e004  ti_sysbios_gates_GateHwi_Object__table__V                            
00013431  ti_sysbios_gates_GateHwi_enter__E                                    
00013451  ti_sysbios_gates_GateHwi_leave__E                                    
00013491  ti_sysbios_gates_GateHwi_query__E                                    
00016138  ti_sysbios_gates_GateMutex_A_badContext__C                           
00012ddf  ti_sysbios_gates_GateMutex_Handle__label__S                          
0001613c  ti_sysbios_gates_GateMutex_Instance_State_sem__O                     
00013331  ti_sysbios_gates_GateMutex_Instance_finalize__E                      
00012cd1  ti_sysbios_gates_GateMutex_Instance_init__E                          
00015e3c  ti_sysbios_gates_GateMutex_Module__FXNS__C                           
00016140  ti_sysbios_gates_GateMutex_Module__diagsEnabled__C                   
00016144  ti_sysbios_gates_GateMutex_Module__diagsIncluded__C                  
00016148  ti_sysbios_gates_GateMutex_Module__diagsMask__C                      
0001634e  ti_sysbios_gates_GateMutex_Module__id__C                             
0800df84  ti_sysbios_gates_GateMutex_Module__root__V                           
00015f08  ti_sysbios_gates_GateMutex_Object__DESC__C                           
00015ffc  ti_sysbios_gates_GateMutex_Object__PARAMS__C                         
00011e81  ti_sysbios_gates_GateMutex_Object__create__S                         
00012809  ti_sysbios_gates_GateMutex_Object__delete__S                         
0800dc84  ti_sysbios_gates_GateMutex_Object__table__V                          
0000bb61  ti_sysbios_gates_GateMutex_enter__E                                  
00012cf1  ti_sysbios_gates_GateMutex_leave__E                                  
000134a1  ti_sysbios_gates_GateMutex_query__E                                  
00010a65  ti_sysbios_hal_Core_CoreProxy_getId__E                               
0001614c  ti_sysbios_hal_Hwi_E_stackOverflow__C                                
00012f99  ti_sysbios_hal_Hwi_HwiProxy_Module__startupDone__S                   
00012fb1  ti_sysbios_hal_Hwi_HwiProxy_Params__init__S                          
00012cb1  ti_sysbios_hal_Hwi_HwiProxy_clearInterrupt__E                        
00012a31  ti_sysbios_hal_Hwi_HwiProxy_disableInterrupt__E                      
00012a51  ti_sysbios_hal_Hwi_HwiProxy_enableInterrupt__E                       
00010fb1  ti_sysbios_hal_Hwi_HwiProxy_getStackInfo__E                          
00013441  ti_sysbios_hal_Hwi_HwiProxy_startup__E                               
00013401  ti_sysbios_hal_Hwi_HwiProxy_switchFromBootStack__E                   
00016350  ti_sysbios_hal_Hwi_Module__id__C                                     
00013271  ti_sysbios_hal_Hwi_Module_startup__E                                 
0800df8c  ti_sysbios_hal_Hwi_Object__table__V                                  
00011901  ti_sysbios_hal_Hwi_checkStack                                        
00012cb1  ti_sysbios_hal_Hwi_clearInterrupt__E                                 
00012a31  ti_sysbios_hal_Hwi_disableInterrupt__E                               
00012a51  ti_sysbios_hal_Hwi_enableInterrupt__E                                
00010fb1  ti_sysbios_hal_Hwi_getStackInfo__E                                   
00011cf1  ti_sysbios_hal_Hwi_initStack                                         
00013441  ti_sysbios_hal_Hwi_startup__E                                        
00013401  ti_sysbios_hal_Hwi_switchFromBootStack__E                            
00016150  ti_sysbios_heaps_HeapBuf_Instance_State_freeList__O                  
0800e008  ti_sysbios_heaps_HeapBuf_Module__state__V                            
00009a81  ti_sysbios_heaps_HeapBuf_Module_startup__E                           
00016154  ti_sysbios_heaps_HeapBuf_Object__count__C                            
00013341  ti_sysbios_heaps_HeapBuf_Object__get__S                              
00016158  ti_sysbios_heaps_HeapBuf_numConstructedHeaps__C                      
0001615c  ti_sysbios_heaps_HeapMem_A_align__C                                  
00016160  ti_sysbios_heaps_HeapMem_A_heapSize__C                               
00016164  ti_sysbios_heaps_HeapMem_A_invalidFree__C                            
00016168  ti_sysbios_heaps_HeapMem_A_zeroBlock__C                              
0001616c  ti_sysbios_heaps_HeapMem_E_memory__C                                 
00012df9  ti_sysbios_heaps_HeapMem_Handle__label__S                            
08000000  ti_sysbios_heaps_HeapMem_Instance_State_0_buf__A                     
00007ae1  ti_sysbios_heaps_HeapMem_Instance_init__E                            
00012ddf  ti_sysbios_heaps_HeapMem_Module_GateProxy_Handle__label__S           
0000f4cd  ti_sysbios_heaps_HeapMem_Module_GateProxy_enter__E                   
0000ff8d  ti_sysbios_heaps_HeapMem_Module_GateProxy_leave__E                   
000134a1  ti_sysbios_heaps_HeapMem_Module_GateProxy_query__E                   
00015dcc  ti_sysbios_heaps_HeapMem_Module__FXNS__C                             
00016170  ti_sysbios_heaps_HeapMem_Module__diagsEnabled__C                     
00016174  ti_sysbios_heaps_HeapMem_Module__diagsIncluded__C                    
00016178  ti_sysbios_heaps_HeapMem_Module__diagsMask__C                        
0001617c  ti_sysbios_heaps_HeapMem_Module__gateObj__C                          
00016352  ti_sysbios_heaps_HeapMem_Module__id__C                               
0800df94  ti_sysbios_heaps_HeapMem_Module__root__V                             
00015f28  ti_sysbios_heaps_HeapMem_Object__DESC__C                             
00015e60  ti_sysbios_heaps_HeapMem_Object__PARAMS__C                           
00016180  ti_sysbios_heaps_HeapMem_Object__count__C                            
00011eb1  ti_sysbios_heaps_HeapMem_Object__create__S                           
00012a91  ti_sysbios_heaps_HeapMem_Object__delete__S                           
000131e1  ti_sysbios_heaps_HeapMem_Object__get__S                              
0800deb8  ti_sysbios_heaps_HeapMem_Object__table__V                            
00004811  ti_sysbios_heaps_HeapMem_allocUnprotected__E                         
000101a1  ti_sysbios_heaps_HeapMem_alloc__E                                    
000034a1  ti_sysbios_heaps_HeapMem_freeUnprotected__E                          
00011ee1  ti_sysbios_heaps_HeapMem_free__E                                     
00010a71  ti_sysbios_heaps_HeapMem_getStats__E                                 
00011941  ti_sysbios_heaps_HeapMem_init__I                                     
00013461  ti_sysbios_heaps_HeapMem_isBlocking__E                               
00016184  ti_sysbios_heaps_HeapMem_reqAlign__C                                 
00016188  ti_sysbios_knl_Clock_LM_begin__C                                     
0001618c  ti_sysbios_knl_Clock_LM_tick__C                                      
00016190  ti_sysbios_knl_Clock_LW_delayed__C                                   
00016194  ti_sysbios_knl_Clock_Module_State_clockQ__O                          
00016198  ti_sysbios_knl_Clock_Module__diagsEnabled__C                         
0001619c  ti_sysbios_knl_Clock_Module__diagsIncluded__C                        
000161a0  ti_sysbios_knl_Clock_Module__diagsMask__C                            
00016354  ti_sysbios_knl_Clock_Module__id__C                                   
00016356  ti_sysbios_knl_Clock_Module__loggerDefined__C                        
000161a4  ti_sysbios_knl_Clock_Module__loggerFxn1__C                           
000161a8  ti_sysbios_knl_Clock_Module__loggerFxn2__C                           
000161ac  ti_sysbios_knl_Clock_Module__loggerObj__C                            
0800dd90  ti_sysbios_knl_Clock_Module__state__V                                
00012831  ti_sysbios_knl_Clock_Module_startup__E                               
00013019  ti_sysbios_knl_Clock_TimerProxy_Module__startupDone__S               
00010b85  ti_sysbios_knl_Clock_TimerProxy_getMaxTicks__E                       
0000b4d1  ti_sysbios_knl_Clock_TimerProxy_startup__E                           
00012211  ti_sysbios_knl_Clock_doTick__I                                       
00010001  ti_sysbios_knl_Clock_logTick__E                                      
00007d61  ti_sysbios_knl_Clock_workFunc__E                                     
000161b0  ti_sysbios_knl_Event_A_badContext__C                                 
000161b4  ti_sysbios_knl_Event_A_eventInUse__C                                 
000161b8  ti_sysbios_knl_Event_A_nullEventId__C                                
000161bc  ti_sysbios_knl_Event_A_nullEventMasks__C                             
000161c0  ti_sysbios_knl_Event_A_pendTaskDisabled__C                           
000161c4  ti_sysbios_knl_Event_Instance_State_pendQ__O                         
00013201  ti_sysbios_knl_Event_Instance_init__E                                
000161c8  ti_sysbios_knl_Event_LM_pend__C                                      
000161cc  ti_sysbios_knl_Event_LM_post__C                                      
000161d0  ti_sysbios_knl_Event_Module__diagsEnabled__C                         
000161d4  ti_sysbios_knl_Event_Module__diagsIncluded__C                        
000161d8  ti_sysbios_knl_Event_Module__diagsMask__C                            
00016358  ti_sysbios_knl_Event_Module__id__C                                   
0001635a  ti_sysbios_knl_Event_Module__loggerDefined__C                        
000161dc  ti_sysbios_knl_Event_Module__loggerFxn4__C                           
000161e0  ti_sysbios_knl_Event_Module__loggerFxn8__C                           
000161e4  ti_sysbios_knl_Event_Module__loggerObj__C                            
0800df9c  ti_sysbios_knl_Event_Module__root__V                                 
00015f48  ti_sysbios_knl_Event_Object__DESC__C                                 
00016014  ti_sysbios_knl_Event_Object__PARAMS__C                               
00011f11  ti_sysbios_knl_Event_create                                          
00011fa1  ti_sysbios_knl_Event_pendTimeout__I                                  
00002541  ti_sysbios_knl_Event_pend__E                                         
00007001  ti_sysbios_knl_Event_post__E                                         
0001607c  ti_sysbios_knl_Idle_funcList__A                                      
00016084  ti_sysbios_knl_Idle_funcList__C                                      
00013091  ti_sysbios_knl_Idle_loop__E                                          
00012471  ti_sysbios_knl_Idle_run__E                                           
0000a694  ti_sysbios_knl_Intrinsics_SupportProxy_maxbit__E                     
0000a694  ti_sysbios_knl_Intrinsics_maxbit__E                                  
00013471  ti_sysbios_knl_Queue_Instance_init__E                                
0800dfa4  ti_sysbios_knl_Queue_Module__root__V                                 
00015f68  ti_sysbios_knl_Queue_Object__DESC__C                                 
0001602c  ti_sysbios_knl_Queue_Object__PARAMS__C                               
0000cd55  ti_sysbios_knl_Queue_Object__get__S                                  
0001223d  ti_sysbios_knl_Queue_construct                                       
00012d0d  ti_sysbios_knl_Queue_destruct                                        
000133c1  ti_sysbios_knl_Queue_empty__E                                        
000161e8  ti_sysbios_knl_Semaphore_A_badContext__C                             
000161ec  ti_sysbios_knl_Semaphore_A_noEvents__C                               
000161f0  ti_sysbios_knl_Semaphore_A_overflow__C                               
000161f4  ti_sysbios_knl_Semaphore_A_pendTaskDisabled__C                       
000161f8  ti_sysbios_knl_Semaphore_Instance_State_pendQ__O                     
00013351  ti_sysbios_knl_Semaphore_Instance_finalize__E                        
0000d1b1  ti_sysbios_knl_Semaphore_Instance_init__E                            
000161fc  ti_sysbios_knl_Semaphore_LM_pend__C                                  
00016200  ti_sysbios_knl_Semaphore_LM_post__C                                  
00016204  ti_sysbios_knl_Semaphore_Module__diagsEnabled__C                     
00016208  ti_sysbios_knl_Semaphore_Module__diagsIncluded__C                    
0001620c  ti_sysbios_knl_Semaphore_Module__diagsMask__C                        
0001635c  ti_sysbios_knl_Semaphore_Module__id__C                               
0001635e  ti_sysbios_knl_Semaphore_Module__loggerDefined__C                    
00016210  ti_sysbios_knl_Semaphore_Module__loggerFxn2__C                       
00016214  ti_sysbios_knl_Semaphore_Module__loggerFxn4__C                       
00016218  ti_sysbios_knl_Semaphore_Module__loggerObj__C                        
0800dfac  ti_sysbios_knl_Semaphore_Module__root__V                             
00015f88  ti_sysbios_knl_Semaphore_Object__DESC__C                             
00015e84  ti_sysbios_knl_Semaphore_Object__PARAMS__C                           
00012855  ti_sysbios_knl_Semaphore_Object__delete__S                           
00012fc9  ti_sysbios_knl_Semaphore_Params__init__S                             
00011f41  ti_sysbios_knl_Semaphore_construct                                   
00011c49  ti_sysbios_knl_Semaphore_create                                      
00010b89  ti_sysbios_knl_Semaphore_delete                                      
00012ab1  ti_sysbios_knl_Semaphore_destruct                                    
00011fd1  ti_sysbios_knl_Semaphore_pendTimeout__I                              
000028e1  ti_sysbios_knl_Semaphore_pend__E                                     
00006e81  ti_sysbios_knl_Semaphore_post__E                                     
0001621c  ti_sysbios_knl_Swi_LD_end__C                                         
00016220  ti_sysbios_knl_Swi_LM_begin__C                                       
00016224  ti_sysbios_knl_Swi_LM_post__C                                        
0800d930  ti_sysbios_knl_Swi_Module_State_0_readyQ__A                          
00016228  ti_sysbios_knl_Swi_Module__diagsEnabled__C                           
0001622c  ti_sysbios_knl_Swi_Module__diagsIncluded__C                          
00016230  ti_sysbios_knl_Swi_Module__diagsMask__C                              
00016360  ti_sysbios_knl_Swi_Module__id__C                                     
00016362  ti_sysbios_knl_Swi_Module__loggerDefined__C                          
00016234  ti_sysbios_knl_Swi_Module__loggerFxn1__C                             
00016238  ti_sysbios_knl_Swi_Module__loggerFxn4__C                             
0001623c  ti_sysbios_knl_Swi_Module__loggerObj__C                              
0800de6c  ti_sysbios_knl_Swi_Module__state__V                                  
00012271  ti_sysbios_knl_Swi_Module_startup__E                                 
00016240  ti_sysbios_knl_Swi_Object__count__C                                  
00013215  ti_sysbios_knl_Swi_Object__get__S                                    
0800dd34  ti_sysbios_knl_Swi_Object__table__V                                  
00013361  ti_sysbios_knl_Swi_disable__E                                        
0000c641  ti_sysbios_knl_Swi_post__E                                           
00010811  ti_sysbios_knl_Swi_restoreHwi__E                                     
00010ad1  ti_sysbios_knl_Swi_runLoop__I                                        
00008a51  ti_sysbios_knl_Swi_run__I                                            
0000fc61  ti_sysbios_knl_Swi_schedule__I                                       
00010b31  ti_sysbios_knl_Swi_startup__E                                        
00016244  ti_sysbios_knl_Task_A_badPriority__C                                 
00016248  ti_sysbios_knl_Task_A_badTaskState__C                                
0001624c  ti_sysbios_knl_Task_A_badThreadType__C                               
00016250  ti_sysbios_knl_Task_A_badTimeout__C                                  
00016254  ti_sysbios_knl_Task_A_noPendElem__C                                  
00016258  ti_sysbios_knl_Task_A_sleepTaskDisabled__C                           
0001625c  ti_sysbios_knl_Task_E_spOutOfBounds__C                               
00016260  ti_sysbios_knl_Task_E_stackOverflow__C                               
0800f018  ti_sysbios_knl_Task_Instance_State_0_stack__A                        
00003c51  ti_sysbios_knl_Task_Instance_finalize__E                             
00006001  ti_sysbios_knl_Task_Instance_init__E                                 
00016264  ti_sysbios_knl_Task_LD_block__C                                      
00016268  ti_sysbios_knl_Task_LD_exit__C                                       
0001626c  ti_sysbios_knl_Task_LD_ready__C                                      
00016270  ti_sysbios_knl_Task_LM_sleep__C                                      
00016274  ti_sysbios_knl_Task_LM_switch__C                                     
0800e00c  ti_sysbios_knl_Task_Module_State_0_idleTask__A                       
0800d9b0  ti_sysbios_knl_Task_Module_State_0_readyQ__A                         
00016278  ti_sysbios_knl_Task_Module_State_inactiveQ__O                        
0001627c  ti_sysbios_knl_Task_Module__diagsEnabled__C                          
00016280  ti_sysbios_knl_Task_Module__diagsIncluded__C                         
00016284  ti_sysbios_knl_Task_Module__diagsMask__C                             
00016364  ti_sysbios_knl_Task_Module__id__C                                    
00016366  ti_sysbios_knl_Task_Module__loggerDefined__C                         
00016288  ti_sysbios_knl_Task_Module__loggerFxn2__C                            
0001628c  ti_sysbios_knl_Task_Module__loggerFxn4__C                            
00016290  ti_sysbios_knl_Task_Module__loggerObj__C                             
0800dfb4  ti_sysbios_knl_Task_Module__root__V                                  
0800dbfc  ti_sysbios_knl_Task_Module__state__V                                 
00005c51  ti_sysbios_knl_Task_Module_startup__E                                
00015fa8  ti_sysbios_knl_Task_Object__DESC__C                                  
00015cc0  ti_sysbios_knl_Task_Object__PARAMS__C                                
00016294  ti_sysbios_knl_Task_Object__count__C                                 
00013371  ti_sysbios_knl_Task_Object__get__S                                   
0800daa8  ti_sysbios_knl_Task_Object__table__V                                 
00012fe1  ti_sysbios_knl_Task_Params__init__S                                  
0000dfed  ti_sysbios_knl_Task_SupportProxy_Module__startupDone__S              
000133d1  ti_sysbios_knl_Task_SupportProxy_checkStack__E                       
000133e1  ti_sysbios_knl_Task_SupportProxy_getStackAlignment__E                
00011e21  ti_sysbios_knl_Task_SupportProxy_start__E                            
00012c5c  ti_sysbios_knl_Task_SupportProxy_swap__E                             
00016298  ti_sysbios_knl_Task_allBlockedFunc__C                                
000113c1  ti_sysbios_knl_Task_allBlockedFunction__I                            
0000cd61  ti_sysbios_knl_Task_blockI__E                                        
0000ab81  ti_sysbios_knl_Task_checkStacks__E                                   
00010ffd  ti_sysbios_knl_Task_create                                           
0001629c  ti_sysbios_knl_Task_defaultStackHeap__C                              
000162a0  ti_sysbios_knl_Task_defaultStackSize__C                              
00013381  ti_sysbios_knl_Task_disable__E                                       
00013001  ti_sysbios_knl_Task_enter__I                                         
0000a5c1  ti_sysbios_knl_Task_exit__E                                          
000162a4  ti_sysbios_knl_Task_numConstructedTasks__C                           
0000af71  ti_sysbios_knl_Task_postInit__I                                      
00012881  ti_sysbios_knl_Task_restoreHwi__E                                    
0000a6a1  ti_sysbios_knl_Task_schedule__I                                      
000130b1  ti_sysbios_knl_Task_sleepTimeout__I                                  
00004a41  ti_sysbios_knl_Task_sleep__E                                         
0000bc21  ti_sysbios_knl_Task_startCore__E                                     
000134b1  ti_sysbios_knl_Task_startup__E                                       
0000db81  ti_sysbios_knl_Task_unblockI__E                                      
000162a8  ti_sysbios_timers_rti_Timer_E_cannotSupport__C                       
0800ded0  ti_sysbios_timers_rti_Timer_Module_State_0_device__A                 
0800dfbc  ti_sysbios_timers_rti_Timer_Module_State_0_handles__A                
0800df20  ti_sysbios_timers_rti_Timer_Module_State_0_intFreqs__A               
000162ac  ti_sysbios_timers_rti_Timer_Module__diagsEnabled__C                  
000162b0  ti_sysbios_timers_rti_Timer_Module__diagsIncluded__C                 
000162b4  ti_sysbios_timers_rti_Timer_Module__diagsMask__C                     
00016368  ti_sysbios_timers_rti_Timer_Module__id__C                            
00013019  ti_sysbios_timers_rti_Timer_Module__startupDone__F                   
00013019  ti_sysbios_timers_rti_Timer_Module__startupDone__S                   
0800df30  ti_sysbios_timers_rti_Timer_Module__state__V                         
000069f1  ti_sysbios_timers_rti_Timer_Module_startup__E                        
0800dcc4  ti_sysbios_timers_rti_Timer_Object__table__V                         
0001636a  ti_sysbios_timers_rti_Timer_continueOnSuspend__C                     
000090b1  ti_sysbios_timers_rti_Timer_getFreq__E                               
000134c1  ti_sysbios_timers_rti_Timer_getMaxTicks__E                           
0000e841  ti_sysbios_timers_rti_Timer_initDevice__I                            
000162b8  ti_sysbios_timers_rti_Timer_numTimerDevices__C                       
000122a1  ti_sysbios_timers_rti_Timer_periodicStub__E                          
00011981  ti_sysbios_timers_rti_Timer_setPeriod__E                             
000162bc  ti_sysbios_timers_rti_Timer_startupNeeded__C                         
0000b4d1  ti_sysbios_timers_rti_Timer_startup__E                               
00011521  ti_sysbios_timers_rti_Timer_stop__E                                  
000121e5  unlink                                                               
0000e325  vsnprintf                                                            
0001243d  write                                                                
000162c0  xdc_runtime_Assert_E_assertFailed__C                                 
00010201  xdc_runtime_Assert_raise__I                                          
000162c4  xdc_runtime_Core_A_initializedParams__C                              
000162c8  xdc_runtime_Core_Module__diagsEnabled__C                             
000162cc  xdc_runtime_Core_Module__diagsIncluded__C                            
000162d0  xdc_runtime_Core_Module__diagsMask__C                                
0001636c  xdc_runtime_Core_Module__id__C                                       
00010b91  xdc_runtime_Core_assignLabel__I                                      
000110a1  xdc_runtime_Core_assignParams__I                                     
00008d91  xdc_runtime_Core_constructObject__I                                  
00007c21  xdc_runtime_Core_createObject__I                                     
0000eb31  xdc_runtime_Core_deleteObject__I                                     
000162d4  xdc_runtime_Error_E_memory__C                                        
0800de2c  xdc_runtime_Error_IgnoreBlock                                        
000162d8  xdc_runtime_Error_Module__diagsEnabled__C                            
000162dc  xdc_runtime_Error_Module__diagsIncluded__C                           
000162e0  xdc_runtime_Error_Module__diagsMask__C                               
0001636e  xdc_runtime_Error_Module__loggerDefined__C                           
000162e4  xdc_runtime_Error_Module__loggerFxn8__C                              
000162e8  xdc_runtime_Error_Module__loggerObj__C                               
0800e016  xdc_runtime_Error_Module__state__V                                   
00013031  xdc_runtime_Error_init__E                                            
00016370  xdc_runtime_Error_maxDepth__C                                        
000066d1  xdc_runtime_Error_policyDefault__E                                   
000162ec  xdc_runtime_Error_policyFxn__C                                       
000162f0  xdc_runtime_Error_policy__C                                          
0000f4d1  xdc_runtime_Error_print__E                                           
000162f4  xdc_runtime_Error_raiseHook__C                                       
000162f8  xdc_runtime_IGateProvider_Interface__BASE__C                         
000162fc  xdc_runtime_IHeap_Interface__BASE__C                                 
00016300  xdc_runtime_IModule_Interface__BASE__C                               
00016304  xdc_runtime_Log_L_error__C                                           
00012dc5  xdc_runtime_Main_Module_GateProxy_Handle__label__S                   
00013491  xdc_runtime_Main_Module_GateProxy_query__E                           
00016372  xdc_runtime_Main_Module__id__C                                       
00012df9  xdc_runtime_Memory_HeapProxy_Handle__label__S                        
00010ac5  xdc_runtime_Memory_HeapProxy_alloc__E                                
00010b25  xdc_runtime_Memory_HeapProxy_free__E                                 
00016374  xdc_runtime_Memory_Module__id__C                                     
0800e010  xdc_runtime_Memory_Module__state__V                                  
0000dff1  xdc_runtime_Memory_alloc__E                                          
00016308  xdc_runtime_Memory_defaultHeapInstance__C                            
00013391  xdc_runtime_Memory_free__E                                           
0800dfc4  xdc_runtime_Registry_Module__state__V                                
0800dfcc  xdc_runtime_Startup_Module__state__V                                 
00000001  xdc_runtime_Startup__EXECFXN__C                                      
00000001  xdc_runtime_Startup__RESETFXN__C                                     
0001630c  xdc_runtime_Startup_execImpl__C                                      
00010071  xdc_runtime_Startup_exec__E                                          
00013283  xdc_runtime_Startup_exec__I                                          
0001608c  xdc_runtime_Startup_firstFxns__A                                     
00016094  xdc_runtime_Startup_firstFxns__C                                     
0001609c  xdc_runtime_Startup_lastFxns__C                                      
00016310  xdc_runtime_Startup_maxPasses__C                                     
0000c04f  xdc_runtime_Startup_reset__I                                         
00013411  xdc_runtime_Startup_rtsDone__E                                       
00016044  xdc_runtime_Startup_sfxnRts__A                                       
00016314  xdc_runtime_Startup_sfxnRts__C                                       
00015da0  xdc_runtime_Startup_sfxnTab__A                                       
00016318  xdc_runtime_Startup_sfxnTab__C                                       
00008111  xdc_runtime_Startup_startMods__I                                     
000124a1  xdc_runtime_SysStd_abort__E                                          
00013421  xdc_runtime_SysStd_exit__E                                           
000134d1  xdc_runtime_SysStd_putch__E                                          
000134e1  xdc_runtime_SysStd_ready__E                                          
00012dc5  xdc_runtime_System_Module_GateProxy_Handle__label__S                 
00010b8d  xdc_runtime_System_Module_GateProxy_enter__E                         
00010e65  xdc_runtime_System_Module_GateProxy_leave__E                         
00013491  xdc_runtime_System_Module_GateProxy_query__E                         
0800de4c  xdc_runtime_System_Module_State_0_atexitHandlers__A                  
0001631c  xdc_runtime_System_Module__gateObj__C                                
0800dfd4  xdc_runtime_System_Module__state__V                                  
00013481  xdc_runtime_System_Module_startup__E                                 
000124a1  xdc_runtime_System_SupportProxy_abort__E                             
00013421  xdc_runtime_System_SupportProxy_exit__E                              
000134d1  xdc_runtime_System_SupportProxy_putch__E                             
000134e1  xdc_runtime_System_SupportProxy_ready__E                             
00016320  xdc_runtime_System_abortFxn__C                                       
00010dc9  xdc_runtime_System_abortStd__E                                       
00012e13  xdc_runtime_System_aprintf__E                                        
000124d1  xdc_runtime_System_aprintf_va__F                                     
00011411  xdc_runtime_System_atexit__E                                         
000017d1  xdc_runtime_System_doPrint__I                                        
00016324  xdc_runtime_System_exitFxn__C                                        
00010dd1  xdc_runtime_System_exitStd__E                                        
00010e71  xdc_runtime_System_exit__E                                           
00016328  xdc_runtime_System_extendFxn__C                                      
0001632c  xdc_runtime_System_maxAtexitHandlers__C                              
000097a1  xdc_runtime_System_printfExtend__I                                   
00012e2d  xdc_runtime_System_printf__E                                         
00012631  xdc_runtime_System_printf_va__F                                      
00016376  xdc_runtime_Text_charCnt__C                                          
00013508  xdc_runtime_Text_charTab__A                                          
00016330  xdc_runtime_Text_charTab__C                                          
00016378  xdc_runtime_Text_isLoaded__C                                         
00016334  xdc_runtime_Text_nameEmpty__C                                        
00016338  xdc_runtime_Text_nameStatic__C                                       
0001633c  xdc_runtime_Text_nameUnknown__C                                      
00015960  xdc_runtime_Text_nodeTab__A                                          
00016340  xdc_runtime_Text_nodeTab__C                                          
00011f71  xdc_runtime_Text_printVisFxn__I                                      
00010261  xdc_runtime_Text_putLab__E                                           
0000bef1  xdc_runtime_Text_putMod__E                                           
0000cb71  xdc_runtime_Text_putSite__E                                          
0001637a  xdc_runtime_Text_registryModsLastId__C                               
0001637c  xdc_runtime_Text_unnamedModsLastId__C                                
0000f541  xdc_runtime_Text_visitRope2__I                                       
00016344  xdc_runtime_Text_visitRopeFxn__C                                     
000133a1  xdc_runtime_Text_visitRope__I                                        
000110f1  xdc_runtime_Text_xprintf__I                                          


GLOBAL SYMBOLS: SORTED BY Symbol Address 

address   name                                                                 
-------   ----                                                                 
00000000  __ASM__                                                              
00000000  ti_sysbios_family_arm_v7r_vim_Hwi_vectors                            
00000001  xdc_runtime_Startup__EXECFXN__C                                      
00000001  xdc_runtime_Startup__RESETFXN__C                                     
000000a9  __ISA__                                                              
000000bb  __PLAT__                                                             
000000df  __TARG__                                                             
00000106  __TRDR__                                                             
000008c5  __TI_printfi                                                         
00001000  __STACK_SIZE                                                         
0000117d  MmwDemo_CLIInit                                                      
000017cb  HwiP_restore                                                         
000017d1  xdc_runtime_System_doPrint__I                                        
00001cb5  MmwDemo_mssInitTask                                                  
00002541  ti_sysbios_knl_Event_pend__E                                         
000028d5  CLI_getMMWaveExtensionConfig                                         
000028e1  ti_sysbios_knl_Semaphore_pend__E                                     
00002bf1  SOC_deviceInit                                                       
000031e0  __aeabi_uldivmod                                                     
00003499  HwiP_disable                                                         
000034a1  ti_sysbios_heaps_HeapMem_freeUnprotected__E                          
00003745  MMWave_deviceExecuteFxn                                              
000039c9  MMWave_decodeErrorLevel                                              
000039d1  ti_sysbios_family_arm_exc_Exception_excDumpContext__I                
00003c51  ti_sysbios_knl_Task_Instance_finalize__E                             
00003eb9  Mailbox_open                                                         
00004119  exp                                                                  
00004119  expl                                                                 
000045c5  MmwDemo_mssCtrlPathTask                                              
00004811  ti_sysbios_heaps_HeapMem_allocUnprotected__E                         
00004a39  SemaphoreP_Params_init                                               
00004a41  ti_sysbios_knl_Task_sleep__E                                         
00004e75  MmwDemo_mssDataPathConfig                                            
00005289  CRC_open                                                             
00005681  DMA_setChannelParams                                                 
00005871  strtod                                                               
00005871  strtold                                                              
00005a61  ti_sysbios_family_arm_v7r_vim_Hwi_dispatchIRQC__I                    
00005c45  MMWave_osalMutexUnlock                                               
00005c51  ti_sysbios_knl_Task_Module_startup__E                                
00005ef7  __TI_cleanup                                                         
00005f23  freopen                                                              
00005f4d  fopen                                                                
00005ff5  MMWave_osalSemSignal                                                 
00006001  ti_sysbios_knl_Task_Instance_init__E                                 
000061c9  MmwDemo_bpmConfig                                                    
000066c5  MmwDemo_mboxCallback                                                 
000066d1  xdc_runtime_Error_policyDefault__E                                   
0000686d  rlDriverCmdInvoke                                                    
000069f1  ti_sysbios_timers_rti_Timer_Module_startup__E                        
00006b75  rlDriverRxHdrRead                                                    
00006cf5  UART_Params_init                                                     
00006d01  ti_sysbios_family_arm_exc_Exception_excHandler__I                    
00006e7d  HwiP_disableInterrupt                                                
00006e81  ti_sysbios_knl_Semaphore_post__E                                     
00007001  ti_sysbios_knl_Event_post__E                                         
00007175  GPIO_setConfig                                                       
000072e5  UartSci_isDMAEnabled                                                 
000072f1  ti_sysbios_family_arm_v7r_vim_Hwi_reconfig__E                        
00007451  main                                                                 
00007adb  rlGetSubBlockId                                                      
00007ae1  ti_sysbios_heaps_HeapMem_Instance_init__E                            
00007c21  xdc_runtime_Core_createObject__I                                     
00007d61  ti_sysbios_knl_Clock_workFunc__E                                     
00007e9d  correlation_function                                                 
00007fd5  fputs                                                                
000080e5  puts                                                                 
00008111  xdc_runtime_Startup_startMods__I                                     
00008245  postProcessing                                                       
00008371  MMWave_openLink                                                      
00008499  rlDriverMsgRead                                                      
00008929  rlDriverConstructOutMsg                                              
00008931  ti_sysbios_family_arm_v7r_vim_Hwi_Instance_init__E                   
00008a49  rlDriverGetHandle                                                    
00008a51  ti_sysbios_knl_Swi_run__I                                            
00008b69  rlDriverCmdSendRetry                                                 
00008c7d  MMWave_deviceInitFxn                                                 
00008d88  ti_sysbios_family_arm_v7a_Pmu_getEnabled__E                          
00008d91  xdc_runtime_Core_constructObject__I                                  
00008e9d  Mailbox_write                                                        
00008fa5  MmwDemo_mssMmwaveEventCallbackFxn                                    
000090ad  MMWave_listGetHead                                                   
000090b1  ti_sysbios_timers_rti_Timer_getFreq__E                               
000092b5  MMWave_startLink                                                     
000093b5  CRC_computeSignature                                                 
000094b1  DMA_disableInterrupt                                                 
000095ad  rlDriverInit                                                         
000096a9  rlDriverRdVerifyMsg                                                  
000097a1  xdc_runtime_System_printfExtend__I                                   
00009899  rlGetSubBlockLen                                                     
000098a1  ti_sysbios_family_arm_v7r_vim_Hwi_Module_startup__E                  
00009991  ldexp                                                                
00009991  ldexpl                                                               
00009991  scalbn                                                               
00009991  scalbnl                                                              
00009a7d  MMWave_listGetNext                                                   
00009a81  ti_sysbios_heaps_HeapBuf_Module_startup__E                           
00009b6d  CLI_open                                                             
00009c55  Inference                                                            
00009d3d  DMA_clearChannelInterruptFlag                                        
00009fe1  setvbuf                                                              
0000a0bd  DMA_enableInterrupt                                                  
0000a195  MMWave_init                                                          
0000a345  Mailbox_read                                                         
0000a419  MmwDemo_mssDataPathStop                                              
0000a4ed  rlSetMultiBpmChirpConfig                                             
0000a5c1  ti_sysbios_knl_Task_exit__E                                          
0000a694  ti_sysbios_family_arm_IntrinsicsSupport_maxbitA__I                   
0000a694  ti_sysbios_family_arm_IntrinsicsSupport_maxbit__E                    
0000a694  ti_sysbios_knl_Intrinsics_SupportProxy_maxbit__E                     
0000a694  ti_sysbios_knl_Intrinsics_maxbit__E                                  
0000a6a1  ti_sysbios_knl_Task_schedule__I                                      
0000a775  SOC_controlSecureFirewall                                            
0000a844  ti_sysbios_family_arm_exc_Exception_excHandlerAsm__I                 
0000a8ac  ti_sysbios_family_arm_exc_Exception_excHandlerDataAsm__I             
0000a915  rlRfCalibDataRestore                                                 
0000a9e1  rlSetChirpConfig                                                     
0000aaad  __TI_doflush                                                         
0000aaf9  fflush                                                               
0000ab81  ti_sysbios_knl_Task_checkStacks__E                                   
0000ac4d  MMWave_addChirp                                                      
0000ad15  MMWave_configBPM                                                     
0000addd  MMWave_flushCfg                                                      
0000aea5  MMWave_getChirpHandle                                                
0000af71  ti_sysbios_knl_Task_postInit__I                                      
0000b1c1  ti_sysbios_family_arm_v7a_Pmu_configureCounter__E                    
0000b345  rlDriverMsgWrite                                                     
0000b405  rlSetFrameConfig                                                     
0000b4c5  __TI_zero_init                                                       
0000b4d1  ti_sysbios_knl_Clock_TimerProxy_startup__E                           
0000b4d1  ti_sysbios_timers_rti_Timer_startup__E                               
0000b591  GPIO_write                                                           
0000b881  open                                                                 
0000b9f5  SOC_MPUEnable                                                        
0000ba13  SOC_MPUDisable                                                       
0000ba31  SOC_MPUEnableBackgroundRegion                                        
0000ba47  SOC_MPUDisableBackgroundRegion                                       
0000ba5d  SOC_MPUGetNumberOfRegions                                            
0000ba67  SOC_MPUAreRegionsSeparate                                            
0000ba6f  SOC_MPUSetRegion                                                     
0000ba75  SOC_MPUGetRegion                                                     
0000ba7b  SOC_MPUSetRegionBaseAddress                                          
0000ba81  SOC_MPUGetRegionBaseAddress                                          
0000ba87  SOC_MPUSetRegionTypeAndPermission                                    
0000ba91  SOC_MPUGetRegionType                                                 
0000ba9b  SOC_MPUGetRegionPermission                                           
0000baa5  SOC_MPUSetRegionSizeRegister                                         
0000baab  __aeabi_idiv0                                                        
0000baad  MmwDemo_mssDataPathStart                                             
0000bb61  ti_sysbios_gates_GateMutex_enter__E                                  
0000bc15  rlDriverGetPlatformId                                                
0000bc21  ti_sysbios_knl_Task_startCore__E                                     
0000bcd5  UartSci_openDMA                                                      
0000bd87  ti_sysbios_BIOS_nullFunc__I                                          
0000bd89  MMWave_addProfile                                                    
0000be39  rlSetProfileConfig                                                   
0000bef1  xdc_runtime_Text_putMod__E                                           
0000bfa1  __TI_wrt_ok                                                          
0000c005  __TI_rd_ok                                                           
0000c04f  xdc_runtime_Startup_reset__I                                         
0000c051  ESM_processInterrupt                                                 
0000c1a9  CLI_MMWaveExtensionHelp                                              
0000c2f9  MMWave_getBpmChirpHandle                                             
0000c449  Pinmux_Set_OverrideCtrl                                              
0000c4f1  rlSetAdvFrameConfig                                                  
0000c599  runPeopleDetection                                                   
0000c641  ti_sysbios_knl_Swi_post__E                                           
0000c6e9  DMA_assignChannel                                                    
0000c78d  DMA_getChannelInterruptFlag                                          
0000c831  ESM_init                                                             
0000c8d5  MMWave_addBpmChirp                                                   
0000c979  MMWave_start                                                         
0000ca1d  MmwDemo_waitSensorStopComplete                                       
0000cb64  ti_sysbios_family_arm_v7a_Pmu_configureCounterI__I                   
0000cb71  xdc_runtime_Text_putSite__E                                          
0000cc15  __TI_auto_init                                                       
0000ccb5  rlDriverWaitForResponse                                              
0000cd55  ti_sysbios_knl_Queue_Object__get__S                                  
0000cd61  ti_sysbios_knl_Task_blockI__E                                        
0000ce01  MMWave_configLink                                                    
0000ce9d  MMWave_getProfileHandle                                              
0000cfd5  __aeabi_memcpy                                                       
0000cfd5  __aeabi_memcpy4                                                      
0000cfd5  __aeabi_memcpy8                                                      
0000cfd5  memcpy                                                               
0000d071  ti_sysbios_family_arm_v7r_vim_Hwi_initIntController__I               
0000d10d  MmwDemo_sleep                                                        
0000d111  ti_sysbios_family_arm_v7r_vim_Hwi_mapChannel__I                      
0000d1ad  SOC_isSecureDevice                                                   
0000d1b1  ti_sysbios_knl_Semaphore_Instance_init__E                            
0000d24d  MMWave_getChirpCfg                                                   
0000d2e5  __TI_closefile                                                       
0000d34b  fclose                                                               
0000d37d  fputc                                                                
0000d37d  putc                                                                 
0000d403  putchar                                                              
0000d414  ti_sysbios_family_xxx_Hwi_switchAndRunFunc                           
0000d460  ti_sysbios_family_xxx_Hwi_switchAndRunDispatchC                      
0000d545  rlDriverDeInit                                                       
0000d5d9  rlDriverMsgReadCmdCtx                                                
0000d66c  ti_sysbios_family_arm_v7r_vim_Hwi_dispatchIRQ__I                     
0000d701  GPIO_init                                                            
0000d791  Mailbox_close                                                        
0000d8b1  MmwDemo_waitSensorStartComplete                                      
0000d941  UartSci_initiateTxDMA                                                
0000da61  soft_max                                                             
0000daf1  ti_sysbios_family_arm_v7a_Pmu_startCounter__E                        
0000db81  ti_sysbios_knl_Task_unblockI__E                                      
0000dd29  SOC_translateAddress                                                 
0000ddb5  UartSci_initiateRxDMA                                                
0000de41  rlDevicePowerOn                                                      
0000decd  rlDriverMsgCmdReply                                                  
0000df59  ti_sysbios_BIOS_RtsGateProxy_enter__E                                
0000df5d  ti_sysbios_BIOS_RtsGateProxy_leave__E                                
0000df61  ti_sysbios_family_arm_v7r_vim_Hwi_Instance_finalize__E               
0000dfed  ti_sysbios_family_arm_TaskSupport_Module__startupDone__S             
0000dfed  ti_sysbios_knl_Task_SupportProxy_Module__startupDone__S              
0000dff1  xdc_runtime_Memory_alloc__E                                          
0000e07d  MMWave_getProfileCfg                                                 
0000e215  MmwDemo_gpioSwitchTask                                               
0000e29d  SOC_init                                                             
0000e325  vsnprintf                                                            
0000e3ad  MMWave_deviceCfgAsyncEvent                                           
0000e431  MMWave_deviceEventFxn                                                
0000e4b5  MMWave_getNumBpmChirp                                                
0000e539  MMWave_open                                                          
0000e63d  MMWave_getBpmChirpCfg                                                
0000e73d  findDelta                                                            
0000e7bd  rlDriverExecuteGetApi                                                
0000e83d  ti_sysbios_family_arm_v7r_vim_Hwi_delete                             
0000e841  ti_sysbios_timers_rti_Timer_initDevice__I                            
0000e8c1  HwiP_create                                                          
0000e941  MMWave_deviceOpenFxn                                                 
0000e9bd  Mailbox_init                                                         
0000eab4  ti_sysbios_family_arm_TaskSupport_buildTaskStack                     
0000eb31  xdc_runtime_Core_deleteObject__I                                     
0000ec29  __aeabi_memclr                                                       
0000ec29  __aeabi_memclr4                                                      
0000ec29  __aeabi_memclr8                                                      
0000ec2b  __aeabi_memset                                                       
0000ec2b  __aeabi_memset4                                                      
0000ec2b  __aeabi_memset8                                                      
0000ec31  memset                                                               
0000ed1d  MMWave_getNumChirps                                                  
0000ee0d  MmwDemo_Dss2MssISR                                                   
0000ee85  MMWave_config                                                        
0000eef9  MMWave_deviceStartFxn                                                
0000efe1  SOC_getDeviceRFFreqScaleFactor                                       
0000f054  _c_int00                                                             
0000f0c9  rlDriverAsyncEventHandler                                            
0000f13d  rlDriverProcRdMsg                                                    
0000f1b1  finddevice                                                           
0000f1df  getdevice                                                            
0000f225  frexp                                                                
0000f225  frexpl                                                               
0000f30d  MMWave_deviceCfgFxn                                                  
0000f37d  gestureInferenceProcessing                                           
0000f3ed  logFeatures                                                          
0000f465  printf                                                               
0000f4cd  ti_sysbios_heaps_HeapMem_Module_GateProxy_enter__E                   
0000f4d1  xdc_runtime_Error_print__E                                           
0000f541  xdc_runtime_Text_visitRope2__I                                       
0000f5b1  DMA_disableChannel                                                   
0000f61d  GPIO_enableInt                                                       
0000f6f5  MMWave_stopLink                                                      
0000f761  Pinmux_Set_FuncSel                                                   
0000f7cd  angleDelta                                                           
0000f839  __TI_decompress_lzss                                                 
0000f8a5  __TI_writemsg                                                        
0000f8d7  C$$IO$$                                                              
0000f8db  __TI_readmsg                                                         
0000f97d  DMA_enableChannel                                                    
0000f9e5  MMWave_deviceStopFxn                                                 
0000fa4d  Mailbox_readFlush                                                    
0000fab5  rlDriverExecuteSetApi                                                
0000fb1d  rlDriverHostIrqHandler                                               
0000fb85  HOSTlseek                                                            
0000fbed  HOSTrename                                                           
0000fc55  MemoryP_ctrlFree                                                     
0000fc61  ti_sysbios_knl_Swi_schedule__I                                       
0000fcc9  MmwDemo_mssSetHsiClk                                                 
0000fd31  rlDevicePowerOff                                                     
0000fdfd  SemaphoreP_create                                                    
0000fe61  fseek                                                                
0000fec5  sprintf                                                              
0000ff28  ti_sysbios_family_arm_exc_Exception_initCore0__I                     
0000ff8d  ti_sysbios_heaps_HeapMem_Module_GateProxy_leave__E                   
0000ff91  ti_sysbios_family_arm_v7r_vim_Hwi_phantomIntHandler__I               
0000fff5  SemaphoreP_post                                                      
0000fff5  SemaphoreP_postFromClock                                             
0000fff5  SemaphoreP_postFromISR                                               
00010001  ti_sysbios_knl_Clock_logTick__E                                      
00010065  UART_read                                                            
00010071  xdc_runtime_Startup_exec__E                                          
000100d5  CLI_MMWaveExtensionHandler                                           
00010135  GPIO_setCallback                                                     
00010195  UART_write                                                           
000101a1  ti_sysbios_heaps_HeapMem_alloc__E                                    
00010201  xdc_runtime_Assert_raise__I                                          
00010261  xdc_runtime_Text_putLab__E                                           
0001037d  MMWave_stop                                                          
000103d9  HOSTopen                                                             
00010435  HOSTread                                                             
000104eb  rlDriverCalChkSum                                                    
00010545  ESM_highpriority_FIQ                                                 
0001059d  MMWave_execute                                                       
0001064d  MmwDemo_mmWaveCtrlTask                                               
000106a5  UartSci_closeDMA                                                     
000106fd  rlDriverMsgReadSpawnCtx                                              
00010755  close                                                                
000107ad  HOSTwrite                                                            
00010805  UART_writePolling                                                    
00010811  ti_sysbios_knl_Swi_restoreHwi__E                                     
000108c1  CRC_getTransactionId                                                 
00010915  DMA_freeChannel                                                      
00010969  MMWave_initLink                                                      
000109bd  ltoa                                                                 
00010a11  ti_sysbios_family_arm_v7r_vim_Hwi_create                             
00010a65  ti_sysbios_family_arm_v7r_tms570_Core_getId__E                       
00010a65  ti_sysbios_hal_Core_CoreProxy_getId__E                               
00010a71  ti_sysbios_heaps_HeapMem_getStats__E                                 
00010ac5  xdc_runtime_Memory_HeapProxy_alloc__E                                
00010ad1  ti_sysbios_knl_Swi_runLoop__I                                        
00010b25  xdc_runtime_Memory_HeapProxy_free__E                                 
00010b31  ti_sysbios_knl_Swi_startup__E                                        
00010b85  ti_sysbios_knl_Clock_TimerProxy_getMaxTicks__E                       
00010b89  ti_sysbios_knl_Semaphore_delete                                      
00010b8d  xdc_runtime_System_Module_GateProxy_enter__E                         
00010b91  xdc_runtime_Core_assignLabel__I                                      
00010be5  CLI_write                                                            
00010c35  CRC_getSignature                                                     
00010c85  MMWave_sync                                                          
00010cd5  rlDeviceIdentifyCmdDir                                               
00010d25  rlDriverVerifyCRC                                                    
00010d75  atoi                                                                 
00010dc5  C$$EXIT                                                              
00010dc9  abort                                                                
00010dc9  xdc_runtime_System_abortStd__E                                       
00010dd1  exit                                                                 
00010dd1  xdc_runtime_System_exitStd__E                                        
00010e14  __aeabi_uidiv                                                        
00010e14  __aeabi_uidivmod                                                     
00010e65  xdc_runtime_System_Module_GateProxy_leave__E                         
00010e71  xdc_runtime_System_exit__E                                           
00010f59  copy_in                                                              
00010fb1  ti_sysbios_family_arm_v7r_vim_Hwi_getStackInfo__E                    
00010fb1  ti_sysbios_hal_Hwi_HwiProxy_getStackInfo__E                          
00010fb1  ti_sysbios_hal_Hwi_getStackInfo__E                                   
00010ffd  ti_sysbios_knl_Task_create                                           
000110a1  xdc_runtime_Core_assignParams__I                                     
000110f1  xdc_runtime_Text_xprintf__I                                          
0001113b  rlDeviceGetVersion                                                   
00011185  rlDriverOsiInit                                                      
000112e1  HOSTclose                                                            
00011325  HOSTunlink                                                           
00011371  ti_sysbios_family_arm_v7r_tms570_Core_Module_startup__E              
000113c1  ti_sysbios_knl_Task_allBlockedFunction__I                            
00011411  xdc_runtime_System_atexit__E                                         
00011455  MMWave_executeLink                                                   
00011497  rlDriverValidateHdr                                                  
000114d9  strtok                                                               
00011521  ti_sysbios_timers_rti_Timer_stop__E                                  
00011751  MMWave_decodeError                                                   
00011809  Mailbox_writeReset                                                   
00011845  SOC_unhaltBSS                                                        
00011881  rlGetSubBlock                                                        
000118bc  ti_sysbios_family_arm_v7r_vim_Hwi_init__I                            
00011901  ti_sysbios_hal_Hwi_checkStack                                        
00011941  ti_sysbios_heaps_HeapMem_init__I                                     
00011981  ti_sysbios_timers_rti_Timer_setPeriod__E                             
000119bd  HwiP_delete                                                          
000119f7  maxCheck                                                             
00011a31  CLI_MMWaveExtensionInit                                              
00011a69  UART_init                                                            
00011aa1  logEnergy                                                            
00011ad7  rlAppendSubBlock                                                     
00011b0d  strncpy                                                              
00011bad  SOC_setMMWaveDSSLinkState                                            
00011be1  SOC_setMMWaveMSSLinkState                                            
00011c15  UART_open                                                            
00011c49  ti_sysbios_knl_Semaphore_create                                      
00011ce3  SemaphoreP_delete                                                    
00011cf1  ti_sysbios_hal_Hwi_initStack                                         
00011d23  MMWave_listRemoveNode                                                
00011d55  SOC_getDevicePartNumber                                              
00011d85  rlSensorStart                                                        
00011db5  ti_sysbios_BIOS_atExitFunc__I                                        
00011de5  ti_sysbios_BIOS_startFunc__I                                         
00011e21  ti_sysbios_family_arm_TaskSupport_start__E                           
00011e21  ti_sysbios_knl_Task_SupportProxy_start__E                            
00011e51  ti_sysbios_gates_GateHwi_Object__create__S                           
00011e81  ti_sysbios_gates_GateMutex_Object__create__S                         
00011eb1  ti_sysbios_heaps_HeapMem_Object__create__S                           
00011ee1  ti_sysbios_heaps_HeapMem_free__E                                     
00011f11  ti_sysbios_knl_Event_create                                          
00011f41  ti_sysbios_knl_Semaphore_construct                                   
00011f71  xdc_runtime_Text_printVisFxn__I                                      
00011fa1  ti_sysbios_knl_Event_pendTimeout__I                                  
00011fd1  ti_sysbios_knl_Semaphore_pendTimeout__I                              
00011fff  malloc                                                               
00012085  MMWave_osalMutexCreate                                               
000120b1  MMWave_osalSemCreate                                                 
000120dd  SOC_waitBSSPowerUp                                                   
00012109  compute_innerprod                                                    
00012135  relu_activation                                                      
00012161  rlDeviceGetMssVersion                                                
0001218d  rlSensorStop                                                         
000121b9  sqrt                                                                 
000121b9  sqrtl                                                                
000121e5  remove                                                               
000121e5  unlink                                                               
00012211  ti_sysbios_knl_Clock_doTick__I                                       
0001223d  ti_sysbios_knl_Queue_construct                                       
00012271  ti_sysbios_knl_Swi_Module_startup__E                                 
000122a1  ti_sysbios_timers_rti_Timer_periodicStub__E                          
000122cd  SOC_SystemISR                                                        
000122f7  rlDeviceGetMmWaveLinkVersion                                         
00012321  strspn                                                               
0001234d  Mailbox_Config_init                                                  
000123c5  log2Approx                                                           
000123ed  rlDriverConstructInMsg                                               
00012415  lseek                                                                
0001243d  write                                                                
00012471  ti_sysbios_knl_Idle_run__E                                           
000124a1  xdc_runtime_SysStd_abort__E                                          
000124a1  xdc_runtime_System_SupportProxy_abort__E                             
000124d1  xdc_runtime_System_aprintf_va__F                                     
000124f9  rlRfInitCalibConfig                                                  
0001251f  rlRfRunTimeCalibConfig                                               
00012545  rlRfSetDeviceCfg                                                     
0001256b  rlSetAdcOutConfig                                                    
00012591  rlSetBpmCommonConfig                                                 
000125b7  rlSetChannelConfig                                                   
000125dd  rlSetContModeConfig                                                  
00012603  memcmp                                                               
00012631  xdc_runtime_System_printf_va__F                                      
000126a1  MmwDemo_notifySensorStart                                            
000126c5  SOC_isMMWaveDSSOperational                                           
000126e9  SOC_isMMWaveMSSOperational                                           
0001270d  rlDeviceSetHsiClk                                                    
00012731  rlEnableContMode                                                     
00012755  rlRfSetCalMonTimeUnitConfig                                          
00012779  rlSetLowPowerModeConfig                                              
0001279d  ti_sysbios_BIOS_errorRaiseHook__I                                    
000127c1  ti_sysbios_BIOS_registerRTSLock__I                                   
000127e5  ti_sysbios_BIOS_removeRTSLock__I                                     
00012809  ti_sysbios_gates_GateMutex_Object__delete__S                         
00012831  ti_sysbios_knl_Clock_Module_startup__E                               
00012855  ti_sysbios_knl_Semaphore_Object__delete__S                           
00012881  ti_sysbios_knl_Task_restoreHwi__E                                    
000128c7  UartSci_disableRxDMA                                                 
000128e9  UartSci_enableRxDMA                                                  
0001290b  strcspn                                                              
0001292d  ESM_lowpriority_IRQ                                                  
0001294d  MMWave_listCat                                                       
0001296d  MmwDemo_mboxWrite                                                    
000129ad  rlRfInit                                                             
000129cd  memchr                                                               
000129f1  ti_sysbios_family_arm_v7a_Pmu_Module_startup__E                      
00012a11  ti_sysbios_family_arm_v7r_vim_Hwi_Object__delete__S                  
00012a31  ti_sysbios_family_arm_v7r_vim_Hwi_disableInterrupt__E                
00012a31  ti_sysbios_hal_Hwi_HwiProxy_disableInterrupt__E                      
00012a31  ti_sysbios_hal_Hwi_disableInterrupt__E                               
00012a51  ti_sysbios_family_arm_v7r_vim_Hwi_enableInterrupt__E                 
00012a51  ti_sysbios_hal_Hwi_HwiProxy_enableInterrupt__E                       
00012a51  ti_sysbios_hal_Hwi_enableInterrupt__E                                
00012a71  ti_sysbios_gates_GateHwi_Object__delete__S                           
00012a91  ti_sysbios_heaps_HeapMem_Object__delete__S                           
00012ab1  ti_sysbios_knl_Semaphore_destruct                                    
00012aef  SOC_getOutAddr_LUTType                                               
00012bd1  MMWave_listRemove                                                    
00012bed  MmwDemo_mssMmwaveStartCallbackFxn                                    
00012c09  MmwDemo_notifySensorStop                                             
00012c25  SOC_getInAddr_LUTType                                                
00012c40  ti_sysbios_family_arm_TaskSupport_glue                               
00012c5c  ti_sysbios_family_arm_TaskSupport_swap__E                            
00012c5c  ti_sysbios_knl_Task_SupportProxy_swap__E                             
00012c79  memccpy                                                              
00012c95  ti_sysbios_BIOS_rtsLock__I                                           
00012cb1  ti_sysbios_family_arm_v7r_vim_Hwi_clearInterrupt__E                  
00012cb1  ti_sysbios_hal_Hwi_HwiProxy_clearInterrupt__E                        
00012cb1  ti_sysbios_hal_Hwi_clearInterrupt__E                                 
00012cd1  ti_sysbios_gates_GateMutex_Instance_init__E                          
00012cf1  ti_sysbios_gates_GateMutex_leave__E                                  
00012d0d  ti_sysbios_knl_Queue_destruct                                        
00012d29  MMWave_deviceSyncFxn                                                 
00012d43  MMWave_encodeError                                                   
00012d5d  MMWave_listAdd                                                       
00012d77  free                                                                 
00012d91  rlGetRfDieId                                                         
00012dab  copysign                                                             
00012dab  copysignl                                                            
00012dc5  ti_sysbios_gates_GateHwi_Handle__label__S                            
00012dc5  xdc_runtime_Main_Module_GateProxy_Handle__label__S                   
00012dc5  xdc_runtime_System_Module_GateProxy_Handle__label__S                 
00012ddf  ti_sysbios_BIOS_RtsGateProxy_Handle__label__S                        
00012ddf  ti_sysbios_gates_GateMutex_Handle__label__S                          
00012ddf  ti_sysbios_heaps_HeapMem_Module_GateProxy_Handle__label__S           
00012df9  ti_sysbios_heaps_HeapMem_Handle__label__S                            
00012df9  xdc_runtime_Memory_HeapProxy_Handle__label__S                        
00012e13  xdc_runtime_System_aprintf__E                                        
00012e2d  xdc_runtime_System_printf__E                                         
00012e49  CLI_getMMWaveExtensionOpenConfig                                     
00012e61  MMWave_osalMutexLock                                                 
00012e79  MMWave_osalSemWait                                                   
00012ed9  rlDeviceGetRfVersion                                                 
00012ef1  rlDriverCalCRC                                                       
00012f09  rlDriverFillPayload                                                  
00012f21  rlDriverIsDeviceMapValid                                             
00012f39  _args_main                                                           
00012f51  strcmp                                                               
00012f69  ti_sysbios_BIOS_rtsUnlock__I                                         
00012f80  ti_sysbios_family_arm_v7a_Pmu_initCounters__I                        
00012f99  ti_sysbios_family_arm_v7r_vim_Hwi_Module__startupDone__F             
00012f99  ti_sysbios_family_arm_v7r_vim_Hwi_Module__startupDone__S             
00012f99  ti_sysbios_hal_Hwi_HwiProxy_Module__startupDone__S                   
00012fb1  ti_sysbios_family_arm_v7r_vim_Hwi_Params__init__S                    
00012fb1  ti_sysbios_hal_Hwi_HwiProxy_Params__init__S                          
00012fc9  ti_sysbios_knl_Semaphore_Params__init__S                             
00012fe1  ti_sysbios_knl_Task_Params__init__S                                  
00013001  ti_sysbios_knl_Task_enter__I                                         
00013019  ti_sysbios_knl_Clock_TimerProxy_Module__startupDone__S               
00013019  ti_sysbios_timers_rti_Timer_Module__startupDone__F                   
00013019  ti_sysbios_timers_rti_Timer_Module__startupDone__S                   
00013031  xdc_runtime_Error_init__E                                            
00013049  strchr                                                               
0001305f  strlen                                                               
00013075  ti_sysbios_BIOS_exitFunc__I                                          
00013091  ti_sysbios_knl_Idle_loop__E                                          
000130b1  ti_sysbios_knl_Task_sleepTimeout__I                                  
000130c7  HwiP_Params_init                                                     
00013103  MMWave_osalMutexDelete                                               
00013117  MMWave_osalSemDelete                                                 
0001312d  MmwDemo_mssMmwaveConfigCallbackFxn                                   
00013141  MmwDemo_mssMmwaveStopCallbackFxn                                     
00013169  UartSci_disableTxDMA                                                 
0001317d  UartSci_enableTxDMA                                                  
00013191  _DebugP_assert                                                       
000131a5  rlAppendDummy                                                        
000131b9  _register_unlock                                                     
000131bf  _register_lock                                                       
000131c7  _nop                                                                 
000131cd  strcpy                                                               
000131e1  ti_sysbios_heaps_HeapMem_Object__get__S                              
00013201  ti_sysbios_knl_Event_Instance_init__E                                
00013215  ti_sysbios_knl_Swi_Object__get__S                                    
00013229  CRC_initConfigParams                                                 
0001323b  MMWave_deviceGetDeviceInfo                                           
0001324d  MemoryP_ctrlAlloc                                                    
0001325f  SemaphoreP_pend                                                      
00013271  ti_sysbios_hal_Hwi_Module_startup__E                                 
00013283  xdc_runtime_Startup_exec__I                                          
000132c1  ti_sysbios_BIOS_setThreadType__E                                     
000132d1  ti_sysbios_BIOS_start__E                                             
000132e0  ti_sysbios_family_arm_v7a_Pmu_disableInterruptI__E                   
000132f0  ti_sysbios_family_arm_v7a_Pmu_enableInterruptI__E                    
00013300  ti_sysbios_family_arm_v7a_Pmu_getNumCounters__E                      
00013310  ti_sysbios_family_arm_v7a_Pmu_startCounterI__E                       
00013320  ti_sysbios_family_arm_v7a_Pmu_stopCounterI__E                        
00013331  ti_sysbios_gates_GateMutex_Instance_finalize__E                      
00013341  ti_sysbios_heaps_HeapBuf_Object__get__S                              
00013351  ti_sysbios_knl_Semaphore_Instance_finalize__E                        
00013361  ti_sysbios_knl_Swi_disable__E                                        
00013371  ti_sysbios_knl_Task_Object__get__S                                   
00013381  ti_sysbios_knl_Task_disable__E                                       
00013391  xdc_runtime_Memory_free__E                                           
000133a1  xdc_runtime_Text_visitRope__I                                        
000133b1  __TI_decompress_none                                                 
000133c1  ti_sysbios_knl_Queue_empty__E                                        
000133d1  ti_sysbios_family_arm_TaskSupport_checkStack__E                      
000133d1  ti_sysbios_knl_Task_SupportProxy_checkStack__E                       
000133e1  ti_sysbios_family_arm_TaskSupport_getStackAlignment__E               
000133e1  ti_sysbios_knl_Task_SupportProxy_getStackAlignment__E                
000133f1  ti_sysbios_family_arm_exc_Exception_Module_startup__E                
00013401  ti_sysbios_family_arm_v7r_vim_Hwi_switchFromBootStack__E             
00013401  ti_sysbios_hal_Hwi_HwiProxy_switchFromBootStack__E                   
00013401  ti_sysbios_hal_Hwi_switchFromBootStack__E                            
00013411  xdc_runtime_Startup_rtsDone__E                                       
00013421  xdc_runtime_SysStd_exit__E                                           
00013421  xdc_runtime_System_SupportProxy_exit__E                              
00013431  ti_sysbios_gates_GateHwi_enter__E                                    
00013441  ti_sysbios_family_arm_v7r_vim_Hwi_startup__E                         
00013441  ti_sysbios_hal_Hwi_HwiProxy_startup__E                               
00013441  ti_sysbios_hal_Hwi_startup__E                                        
00013451  ti_sysbios_gates_GateHwi_leave__E                                    
00013461  ti_sysbios_heaps_HeapMem_isBlocking__E                               
00013471  ti_sysbios_knl_Queue_Instance_init__E                                
00013481  xdc_runtime_System_Module_startup__E                                 
00013491  ti_sysbios_gates_GateHwi_query__E                                    
00013491  xdc_runtime_Main_Module_GateProxy_query__E                           
00013491  xdc_runtime_System_Module_GateProxy_query__E                         
000134a1  ti_sysbios_BIOS_RtsGateProxy_query__E                                
000134a1  ti_sysbios_gates_GateMutex_query__E                                  
000134a1  ti_sysbios_heaps_HeapMem_Module_GateProxy_query__E                   
000134b1  ti_sysbios_knl_Task_startup__E                                       
000134c1  ti_sysbios_timers_rti_Timer_getMaxTicks__E                           
000134d1  xdc_runtime_SysStd_putch__E                                          
000134d1  xdc_runtime_System_SupportProxy_putch__E                             
000134e1  xdc_runtime_SysStd_ready__E                                          
000134e1  xdc_runtime_System_SupportProxy_ready__E                             
000134f1  ti_sysbios_BIOS_linkedWithIncorrectBootLibrary__E                    
00013501  ti_sysbios_gates_GateHwi_Instance_init__E                            
00013508  xdc_runtime_Text_charTab__A                                          
000153c6  ti_sysbios_family_arm_exc_Exception_Module__id__C                    
0001585e  _ctypes_                                                             
00015960  xdc_runtime_Text_nodeTab__A                                          
00015b70  ti_sysbios_family_arm_v7r_vim_Hwi_channelMap__A                      
00015cc0  ti_sysbios_knl_Task_Object__PARAMS__C                                
00015d04  UART_defaultParams                                                   
00015d70  ti_sysbios_family_arm_v7r_vim_Hwi_Object__PARAMS__C                  
00015da0  xdc_runtime_Startup_sfxnTab__A                                       
00015dcc  ti_sysbios_heaps_HeapMem_Module__FXNS__C                             
00015df4  Mailbox_defaultCfg                                                   
00015e18  ti_sysbios_gates_GateHwi_Module__FXNS__C                             
00015e3c  ti_sysbios_gates_GateMutex_Module__FXNS__C                           
00015e60  ti_sysbios_heaps_HeapMem_Object__PARAMS__C                           
00015e84  ti_sysbios_knl_Semaphore_Object__PARAMS__C                           
00015ec8  ti_sysbios_family_arm_v7r_vim_Hwi_Object__DESC__C                    
00015ee8  ti_sysbios_gates_GateHwi_Object__DESC__C                             
00015f08  ti_sysbios_gates_GateMutex_Object__DESC__C                           
00015f28  ti_sysbios_heaps_HeapMem_Object__DESC__C                             
00015f48  ti_sysbios_knl_Event_Object__DESC__C                                 
00015f68  ti_sysbios_knl_Queue_Object__DESC__C                                 
00015f88  ti_sysbios_knl_Semaphore_Object__DESC__C                             
00015fa8  ti_sysbios_knl_Task_Object__DESC__C                                  
00015fe4  ti_sysbios_gates_GateHwi_Object__PARAMS__C                           
00015ffc  ti_sysbios_gates_GateMutex_Object__PARAMS__C                         
00016014  ti_sysbios_knl_Event_Object__PARAMS__C                               
0001602c  ti_sysbios_knl_Queue_Object__PARAMS__C                               
00016044  xdc_runtime_Startup_sfxnRts__A                                       
0001605a  ti_sysbios_family_arm_v7a_Pmu_Module__id__C                          
0001605c  ti_sysbios_family_arm_v7r_vim_Hwi_intReqEnaSet__A                    
0001606c  ti_sysbios_family_arm_v7r_vim_Hwi_wakeEnaSet__A                      
0001607c  ti_sysbios_knl_Idle_funcList__A                                      
00016084  ti_sysbios_knl_Idle_funcList__C                                      
0001608c  xdc_runtime_Startup_firstFxns__A                                     
00016094  xdc_runtime_Startup_firstFxns__C                                     
0001609c  xdc_runtime_Startup_lastFxns__C                                      
000160a8  ti_sysbios_family_arm_TaskSupport_stackAlignment__C                  
000160ac  ti_sysbios_family_arm_exc_Exception_E_dataAbort__C                   
000160b0  ti_sysbios_family_arm_exc_Exception_E_prefetchAbort__C               
000160b4  ti_sysbios_family_arm_exc_Exception_E_swi__C                         
000160b8  ti_sysbios_family_arm_exc_Exception_E_undefinedInstruction__C        
000160bc  ti_sysbios_family_arm_exc_Exception_excHookFuncs__A                  
000160c0  ti_sysbios_family_arm_exc_Exception_excHookFuncs__C                  
000160c4  ti_sysbios_family_arm_v7a_Pmu_A_invalidCounterId__C                  
000160c8  ti_sysbios_family_arm_v7a_Pmu_Module__diagsEnabled__C                
000160cc  ti_sysbios_family_arm_v7a_Pmu_Module__diagsIncluded__C               
000160d0  ti_sysbios_family_arm_v7a_Pmu_Module__diagsMask__C                   
000160d4  ti_sysbios_family_arm_v7r_tms570_Core_E_mismatchedIds__C             
000160d8  ti_sysbios_family_arm_v7r_tms570_Core_id__C                          
000160dc  ti_sysbios_family_arm_v7r_vim_Hwi_A_badChannelId__C                  
000160e0  ti_sysbios_family_arm_v7r_vim_Hwi_E_alreadyDefined__C                
000160e4  ti_sysbios_family_arm_v7r_vim_Hwi_E_badIntNum__C                     
000160e8  ti_sysbios_family_arm_v7r_vim_Hwi_E_phantomInterrupt__C              
000160ec  ti_sysbios_family_arm_v7r_vim_Hwi_E_undefined__C                     
000160f0  ti_sysbios_family_arm_v7r_vim_Hwi_E_unsupportedMaskingOption__C      
000160f4  ti_sysbios_family_arm_v7r_vim_Hwi_LD_end__C                          
000160f8  ti_sysbios_family_arm_v7r_vim_Hwi_LM_begin__C                        
000160fc  ti_sysbios_family_arm_v7r_vim_Hwi_Module__diagsEnabled__C            
00016100  ti_sysbios_family_arm_v7r_vim_Hwi_Module__diagsIncluded__C           
00016104  ti_sysbios_family_arm_v7r_vim_Hwi_Module__diagsMask__C               
00016108  ti_sysbios_family_arm_v7r_vim_Hwi_Module__loggerFxn1__C              
0001610c  ti_sysbios_family_arm_v7r_vim_Hwi_Module__loggerFxn8__C              
00016110  ti_sysbios_family_arm_v7r_vim_Hwi_Module__loggerObj__C               
00016114  ti_sysbios_family_arm_v7r_vim_Hwi_NUM_INTERRUPTS__C                  
00016118  ti_sysbios_family_arm_v7r_vim_Hwi_channelMap__C                      
0001611c  ti_sysbios_family_arm_v7r_vim_Hwi_intReqEnaSet__C                    
00016120  ti_sysbios_family_arm_v7r_vim_Hwi_phantomFunc__C                     
00016124  ti_sysbios_family_arm_v7r_vim_Hwi_swiDisable__C                      
00016128  ti_sysbios_family_arm_v7r_vim_Hwi_swiRestoreHwi__C                   
0001612c  ti_sysbios_family_arm_v7r_vim_Hwi_taskDisable__C                     
00016130  ti_sysbios_family_arm_v7r_vim_Hwi_taskRestoreHwi__C                  
00016134  ti_sysbios_family_arm_v7r_vim_Hwi_wakeEnaSet__C                      
00016138  ti_sysbios_gates_GateMutex_A_badContext__C                           
0001613c  ti_sysbios_gates_GateMutex_Instance_State_sem__O                     
00016140  ti_sysbios_gates_GateMutex_Module__diagsEnabled__C                   
00016144  ti_sysbios_gates_GateMutex_Module__diagsIncluded__C                  
00016148  ti_sysbios_gates_GateMutex_Module__diagsMask__C                      
0001614c  ti_sysbios_hal_Hwi_E_stackOverflow__C                                
00016150  ti_sysbios_heaps_HeapBuf_Instance_State_freeList__O                  
00016154  ti_sysbios_heaps_HeapBuf_Object__count__C                            
00016158  ti_sysbios_heaps_HeapBuf_numConstructedHeaps__C                      
0001615c  ti_sysbios_heaps_HeapMem_A_align__C                                  
00016160  ti_sysbios_heaps_HeapMem_A_heapSize__C                               
00016164  ti_sysbios_heaps_HeapMem_A_invalidFree__C                            
00016168  ti_sysbios_heaps_HeapMem_A_zeroBlock__C                              
0001616c  ti_sysbios_heaps_HeapMem_E_memory__C                                 
00016170  ti_sysbios_heaps_HeapMem_Module__diagsEnabled__C                     
00016174  ti_sysbios_heaps_HeapMem_Module__diagsIncluded__C                    
00016178  ti_sysbios_heaps_HeapMem_Module__diagsMask__C                        
0001617c  ti_sysbios_heaps_HeapMem_Module__gateObj__C                          
00016180  ti_sysbios_heaps_HeapMem_Object__count__C                            
00016184  ti_sysbios_heaps_HeapMem_reqAlign__C                                 
00016188  ti_sysbios_knl_Clock_LM_begin__C                                     
0001618c  ti_sysbios_knl_Clock_LM_tick__C                                      
00016190  ti_sysbios_knl_Clock_LW_delayed__C                                   
00016194  ti_sysbios_knl_Clock_Module_State_clockQ__O                          
00016198  ti_sysbios_knl_Clock_Module__diagsEnabled__C                         
0001619c  ti_sysbios_knl_Clock_Module__diagsIncluded__C                        
000161a0  ti_sysbios_knl_Clock_Module__diagsMask__C                            
000161a4  ti_sysbios_knl_Clock_Module__loggerFxn1__C                           
000161a8  ti_sysbios_knl_Clock_Module__loggerFxn2__C                           
000161ac  ti_sysbios_knl_Clock_Module__loggerObj__C                            
000161b0  ti_sysbios_knl_Event_A_badContext__C                                 
000161b4  ti_sysbios_knl_Event_A_eventInUse__C                                 
000161b8  ti_sysbios_knl_Event_A_nullEventId__C                                
000161bc  ti_sysbios_knl_Event_A_nullEventMasks__C                             
000161c0  ti_sysbios_knl_Event_A_pendTaskDisabled__C                           
000161c4  ti_sysbios_knl_Event_Instance_State_pendQ__O                         
000161c8  ti_sysbios_knl_Event_LM_pend__C                                      
000161cc  ti_sysbios_knl_Event_LM_post__C                                      
000161d0  ti_sysbios_knl_Event_Module__diagsEnabled__C                         
000161d4  ti_sysbios_knl_Event_Module__diagsIncluded__C                        
000161d8  ti_sysbios_knl_Event_Module__diagsMask__C                            
000161dc  ti_sysbios_knl_Event_Module__loggerFxn4__C                           
000161e0  ti_sysbios_knl_Event_Module__loggerFxn8__C                           
000161e4  ti_sysbios_knl_Event_Module__loggerObj__C                            
000161e8  ti_sysbios_knl_Semaphore_A_badContext__C                             
000161ec  ti_sysbios_knl_Semaphore_A_noEvents__C                               
000161f0  ti_sysbios_knl_Semaphore_A_overflow__C                               
000161f4  ti_sysbios_knl_Semaphore_A_pendTaskDisabled__C                       
000161f8  ti_sysbios_knl_Semaphore_Instance_State_pendQ__O                     
000161fc  ti_sysbios_knl_Semaphore_LM_pend__C                                  
00016200  ti_sysbios_knl_Semaphore_LM_post__C                                  
00016204  ti_sysbios_knl_Semaphore_Module__diagsEnabled__C                     
00016208  ti_sysbios_knl_Semaphore_Module__diagsIncluded__C                    
0001620c  ti_sysbios_knl_Semaphore_Module__diagsMask__C                        
00016210  ti_sysbios_knl_Semaphore_Module__loggerFxn2__C                       
00016214  ti_sysbios_knl_Semaphore_Module__loggerFxn4__C                       
00016218  ti_sysbios_knl_Semaphore_Module__loggerObj__C                        
0001621c  ti_sysbios_knl_Swi_LD_end__C                                         
00016220  ti_sysbios_knl_Swi_LM_begin__C                                       
00016224  ti_sysbios_knl_Swi_LM_post__C                                        
00016228  ti_sysbios_knl_Swi_Module__diagsEnabled__C                           
0001622c  ti_sysbios_knl_Swi_Module__diagsIncluded__C                          
00016230  ti_sysbios_knl_Swi_Module__diagsMask__C                              
00016234  ti_sysbios_knl_Swi_Module__loggerFxn1__C                             
00016238  ti_sysbios_knl_Swi_Module__loggerFxn4__C                             
0001623c  ti_sysbios_knl_Swi_Module__loggerObj__C                              
00016240  ti_sysbios_knl_Swi_Object__count__C                                  
00016244  ti_sysbios_knl_Task_A_badPriority__C                                 
00016248  ti_sysbios_knl_Task_A_badTaskState__C                                
0001624c  ti_sysbios_knl_Task_A_badThreadType__C                               
00016250  ti_sysbios_knl_Task_A_badTimeout__C                                  
00016254  ti_sysbios_knl_Task_A_noPendElem__C                                  
00016258  ti_sysbios_knl_Task_A_sleepTaskDisabled__C                           
0001625c  ti_sysbios_knl_Task_E_spOutOfBounds__C                               
00016260  ti_sysbios_knl_Task_E_stackOverflow__C                               
00016264  ti_sysbios_knl_Task_LD_block__C                                      
00016268  ti_sysbios_knl_Task_LD_exit__C                                       
0001626c  ti_sysbios_knl_Task_LD_ready__C                                      
00016270  ti_sysbios_knl_Task_LM_sleep__C                                      
00016274  ti_sysbios_knl_Task_LM_switch__C                                     
00016278  ti_sysbios_knl_Task_Module_State_inactiveQ__O                        
0001627c  ti_sysbios_knl_Task_Module__diagsEnabled__C                          
00016280  ti_sysbios_knl_Task_Module__diagsIncluded__C                         
00016284  ti_sysbios_knl_Task_Module__diagsMask__C                             
00016288  ti_sysbios_knl_Task_Module__loggerFxn2__C                            
0001628c  ti_sysbios_knl_Task_Module__loggerFxn4__C                            
00016290  ti_sysbios_knl_Task_Module__loggerObj__C                             
00016294  ti_sysbios_knl_Task_Object__count__C                                 
00016298  ti_sysbios_knl_Task_allBlockedFunc__C                                
0001629c  ti_sysbios_knl_Task_defaultStackHeap__C                              
000162a0  ti_sysbios_knl_Task_defaultStackSize__C                              
000162a4  ti_sysbios_knl_Task_numConstructedTasks__C                           
000162a8  ti_sysbios_timers_rti_Timer_E_cannotSupport__C                       
000162ac  ti_sysbios_timers_rti_Timer_Module__diagsEnabled__C                  
000162b0  ti_sysbios_timers_rti_Timer_Module__diagsIncluded__C                 
000162b4  ti_sysbios_timers_rti_Timer_Module__diagsMask__C                     
000162b8  ti_sysbios_timers_rti_Timer_numTimerDevices__C                       
000162bc  ti_sysbios_timers_rti_Timer_startupNeeded__C                         
000162c0  xdc_runtime_Assert_E_assertFailed__C                                 
000162c4  xdc_runtime_Core_A_initializedParams__C                              
000162c8  xdc_runtime_Core_Module__diagsEnabled__C                             
000162cc  xdc_runtime_Core_Module__diagsIncluded__C                            
000162d0  xdc_runtime_Core_Module__diagsMask__C                                
000162d4  xdc_runtime_Error_E_memory__C                                        
000162d8  xdc_runtime_Error_Module__diagsEnabled__C                            
000162dc  xdc_runtime_Error_Module__diagsIncluded__C                           
000162e0  xdc_runtime_Error_Module__diagsMask__C                               
000162e4  xdc_runtime_Error_Module__loggerFxn8__C                              
000162e8  xdc_runtime_Error_Module__loggerObj__C                               
000162ec  xdc_runtime_Error_policyFxn__C                                       
000162f0  xdc_runtime_Error_policy__C                                          
000162f4  xdc_runtime_Error_raiseHook__C                                       
000162f8  xdc_runtime_IGateProvider_Interface__BASE__C                         
000162fc  xdc_runtime_IHeap_Interface__BASE__C                                 
00016300  xdc_runtime_IModule_Interface__BASE__C                               
00016304  xdc_runtime_Log_L_error__C                                           
00016308  xdc_runtime_Memory_defaultHeapInstance__C                            
0001630c  xdc_runtime_Startup_execImpl__C                                      
00016310  xdc_runtime_Startup_maxPasses__C                                     
00016314  xdc_runtime_Startup_sfxnRts__C                                       
00016318  xdc_runtime_Startup_sfxnTab__C                                       
0001631c  xdc_runtime_System_Module__gateObj__C                                
00016320  xdc_runtime_System_abortFxn__C                                       
00016324  xdc_runtime_System_exitFxn__C                                        
00016328  xdc_runtime_System_extendFxn__C                                      
0001632c  xdc_runtime_System_maxAtexitHandlers__C                              
00016330  xdc_runtime_Text_charTab__C                                          
00016334  xdc_runtime_Text_nameEmpty__C                                        
00016338  xdc_runtime_Text_nameStatic__C                                       
0001633c  xdc_runtime_Text_nameUnknown__C                                      
00016340  xdc_runtime_Text_nodeTab__C                                          
00016344  xdc_runtime_Text_visitRopeFxn__C                                     
00016348  ti_sysbios_family_arm_v7r_tms570_Core_Module__id__C                  
0001634a  ti_sysbios_family_arm_v7r_vim_Hwi_Module__id__C                      
0001634c  ti_sysbios_family_arm_v7r_vim_Hwi_Module__loggerDefined__C           
0001634e  ti_sysbios_gates_GateMutex_Module__id__C                             
00016350  ti_sysbios_hal_Hwi_Module__id__C                                     
00016352  ti_sysbios_heaps_HeapMem_Module__id__C                               
00016354  ti_sysbios_knl_Clock_Module__id__C                                   
00016356  ti_sysbios_knl_Clock_Module__loggerDefined__C                        
00016358  ti_sysbios_knl_Event_Module__id__C                                   
0001635a  ti_sysbios_knl_Event_Module__loggerDefined__C                        
0001635c  ti_sysbios_knl_Semaphore_Module__id__C                               
0001635e  ti_sysbios_knl_Semaphore_Module__loggerDefined__C                    
00016360  ti_sysbios_knl_Swi_Module__id__C                                     
00016362  ti_sysbios_knl_Swi_Module__loggerDefined__C                          
00016364  ti_sysbios_knl_Task_Module__id__C                                    
00016366  ti_sysbios_knl_Task_Module__loggerDefined__C                         
00016368  ti_sysbios_timers_rti_Timer_Module__id__C                            
0001636a  ti_sysbios_timers_rti_Timer_continueOnSuspend__C                     
0001636c  xdc_runtime_Core_Module__id__C                                       
0001636e  xdc_runtime_Error_Module__loggerDefined__C                           
00016370  xdc_runtime_Error_maxDepth__C                                        
00016372  xdc_runtime_Main_Module__id__C                                       
00016374  xdc_runtime_Memory_Module__id__C                                     
00016376  xdc_runtime_Text_charCnt__C                                          
00016378  xdc_runtime_Text_isLoaded__C                                         
0001637a  xdc_runtime_Text_registryModsLastId__C                               
0001637c  xdc_runtime_Text_unnamedModsLastId__C                                
00016380  __TI_static_base__                                                   
00019280  __TI_Handler_Table_Base                                              
0001928c  __TI_Handler_Table_Limit                                             
000192a8  __TI_CINIT_Base                                                      
000192c8  __TI_CINIT_Limit                                                     
08000000  ti_sysbios_heaps_HeapMem_Instance_State_0_buf__A                     
0800a000  peopleDetectorState                                                  
0800a004  peopleDetectorStateFlt                                               
0800a008  peopleDetectorStatePrev                                              
0800a00c  gestureTimeStamp                                                     
0800a014  gestureCnt                                                           
0800a01c  gestureCntPrev                                                       
0800a024  fltGestureCnt                                                        
0800a02c  numDetectionsPerBucket                                               
0800a03c  gestureProbabilityLog                                                
0800a0b4  featureVecPosLog                                                     
0800a19c  energyLog                                                            
0800a39c  gMmwMssMCB                                                           
0800a728  gANN_struct_t                                                        
0800ce5c  rl_txMsg                                                             
0800cf5c  rl_rxMsg                                                             
0800d240  hardCodedConfigIndex                                                 
0800d244  hardCodedConfigCommands                                              
0800d2b8  gCLI                                                                 
0800d45c  ti_sysbios_family_arm_v7r_vim_Hwi_Module_State_0_dispatchTable__A    
0800d65c  gCRCRegister                                                         
0800d660  gCLI_mmwave_freq_scale_factor                                        
0800d668  gCLIMMWaveOpenCfg                                                    
0800d68c  partInfoStringArray                                                  
0800d6cc  gCLIMMWaveExtensionTable                                             
0800d774  gCLIMMWaveControlCfg                                                 
0800d840  _ftable                                                              
0800d930  ti_sysbios_knl_Swi_Module_State_0_readyQ__A                          
0800d9b0  ti_sysbios_knl_Task_Module_State_0_readyQ__A                         
0800da30  _device                                                              
0800daa8  ti_sysbios_knl_Task_Object__table__V                                 
0800db04  gUartSciHwCfg                                                        
0800db5c  _stream                                                              
0800dbac  gMailboxMCB                                                          
0800dbfc  ti_sysbios_knl_Task_Module__state__V                                 
0800dc44  SOC_TranslateAddr_LUT                                                
0800dc84  ti_sysbios_gates_GateMutex_Object__table__V                          
0800dcc4  ti_sysbios_timers_rti_Timer_Object__table__V                         
0800dd00  ti_sysbios_family_arm_v7r_vim_Hwi_Module__state__V                   
0800dd34  ti_sysbios_knl_Swi_Object__table__V                                  
0800dd64  ti_sysbios_family_arm_v7r_vim_Hwi_Object__table__V                   
0800dd90  ti_sysbios_knl_Clock_Module__state__V                                
0800ddbc  gUartSciFxnTable                                                     
0800dde4  UART_config                                                          
0800de08  ti_sysbios_BIOS_Module__state__V                                     
0800de2c  xdc_runtime_Error_IgnoreBlock                                        
0800de4c  xdc_runtime_System_Module_State_0_atexitHandlers__A                  
0800de6c  ti_sysbios_knl_Swi_Module__state__V                                  
0800de88  gMailboxMssBssHwCfg                                                  
0800dea0  gMailboxMssDssHwCfg                                                  
0800deb8  ti_sysbios_heaps_HeapMem_Object__table__V                            
0800ded0  ti_sysbios_timers_rti_Timer_Module_State_0_device__A                 
0800dee8  gSOCHwAttrib                                                         
0800defc  ti_sysbios_family_arm_exc_Exception_Module__state__V                 
0800df10  __TI_ft_end                                                          
0800df14  __aeabi_stdin                                                        
0800df18  __aeabi_stdout                                                       
0800df1c  __aeabi_stderr                                                       
0800df20  ti_sysbios_timers_rti_Timer_Module_State_0_intFreqs__A               
0800df30  ti_sysbios_timers_rti_Timer_Module__state__V                         
0800df40  __TI_cleanup_ptr                                                     
0800df44  __TI_dtors_ptr                                                       
0800df48  __TI_enable_exit_profile_output                                      
0800df4c  gESMHwCfgAttrs                                                       
0800df58  ti_sysbios_family_arm_v7a_Pmu_Module__state__V                       
0800df64  _lock                                                                
0800df68  _unlock                                                              
0800df6c  gGPIOHwAtrrib                                                        
0800df74  ti_sysbios_family_arm_v7r_vim_Hwi_Module__root__V                    
0800df7c  ti_sysbios_gates_GateHwi_Module__root__V                             
0800df84  ti_sysbios_gates_GateMutex_Module__root__V                           
0800df8c  ti_sysbios_hal_Hwi_Object__table__V                                  
0800df94  ti_sysbios_heaps_HeapMem_Module__root__V                             
0800df9c  ti_sysbios_knl_Event_Module__root__V                                 
0800dfa4  ti_sysbios_knl_Queue_Module__root__V                                 
0800dfac  ti_sysbios_knl_Semaphore_Module__root__V                             
0800dfb4  ti_sysbios_knl_Task_Module__root__V                                  
0800dfbc  ti_sysbios_timers_rti_Timer_Module_State_0_handles__A                
0800dfc4  xdc_runtime_Registry_Module__state__V                                
0800dfcc  xdc_runtime_Startup_Module__state__V                                 
0800dfd4  xdc_runtime_System_Module__state__V                                  
0800dfdc  gPinmuxRegs                                                          
0800dfe4  errno                                                                
0800dff0  main_func_sp                                                         
0800dff8  ti_sysbios_family_arm_exc_Exception_Module_State_0_excContext__A     
0800dffc  ti_sysbios_family_arm_exc_Exception_Module_State_0_excStackBuffers__A
0800e000  ti_sysbios_family_arm_exc_Exception_Module_State_0_excStack__A       
0800e004  ti_sysbios_gates_GateHwi_Object__table__V                            
0800e008  ti_sysbios_heaps_HeapBuf_Module__state__V                            
0800e00c  ti_sysbios_knl_Task_Module_State_0_idleTask__A                       
0800e010  xdc_runtime_Memory_Module__state__V                                  
0800e014  ti_sysbios_family_arm_exc_Exception_Module_State_0_excActive__A      
0800e016  xdc_runtime_Error_Module__state__V                                   
0800e018  ti_sysbios_family_arm_exc_Exception_Module_State_0_excStack_0__A     
0800f018  ti_sysbios_knl_Task_Instance_State_0_stack__A                        
0800f818  gGPIOMCB                                                             
0800f9ac  __CIOBUF_                                                            
0800facc  gMMWave_MCB                                                          
0800fbc8  __TI_tmpnams                                                         
0800fc68  gEsmMCB                                                              
0800fcd8  gMMWave_DualcoreMCB                                                  
0800fce0  parmbuf                                                              
0800fce8  __stack                                                              
08010ce8  __STACK_END                                                          
08010ce8  ti_sysbios_family_arm_v7r_vim_Hwi_Module_State_0_fiqStack__A         
fffffdec  ti_sysbios_family_arm_v7r_vim_Hwi_vim                                
ffffffff  __TI_pprof_out_hndl                                                  
ffffffff  __TI_prof_data_size                                                  
ffffffff  __TI_prof_data_start                                                 
ffffffff  __binit__                                                            
ffffffff  __c_args__                                                           
ffffffff  binit                                                                
UNDEFED   SHT$$INIT_ARRAY$$Base                                                
UNDEFED   SHT$$INIT_ARRAY$$Limit                                               

[952 symbols]
