******************************************************************************
                  TI ARM Linker PC v16.9.6                     
******************************************************************************
>> Linked Tue Jun 11 09:52:59 2019

OUTPUT FILE NAME:   <multi_gesture_68xx_mss.xer4f>
ENTRY POINT SYMBOL: "_c_int00"  address: 0000f234


MEMORY CONFIGURATION

         name            origin    length      used     unused   attr    fill
----------------------  --------  ---------  --------  --------  ----  --------
PAGE 0:
  VECTORS               00000000   00000100  0000003c  000000c4     X
  PROG_RAM              00000100   0007ff00  00019398  00066b68  R  X
  DATA_RAM              08000000   00030000  00011564  0001ea9c  RW  
  L3_RAM                51000000   000c0000  00000000  000c0000  RW  
  HWA_RAM               52030000   00010000  00000000  00010000  RW  
  HS_RAM                52080000   00008000  00000000  00008000  RW  

PAGE 1:
  L3_RAM                51000000   000c0000  00000000  000c0000  RW  


SEGMENT ALLOCATION MAP

run origin  load origin   length   init length attrs members
----------  ----------- ---------- ----------- ----- -------
00000000    00000000    0000003c   0000003c    r--
  00000000    00000000    0000003c   0000003c    r-- .vecs
00000100    00000100    000193a0   000193a0    r-x
  00000100    00000100    000135e2   000135e2    r-x .text
  000136e8    000136e8    00002e76   00002e76    r-- .const
  00016560    00016560    00002f40   00002f40    r-- .cinit
08000000    08000000    00011568   00000000    rw-
  08000000    08000000    0000a000   00000000    rw- systemHeap
  0800a000    0800a000    00004094   00000000    rw- .data
  0800e098    0800e098    00001cd0   00000000    rw- .bss
  0800fd68    0800fd68    00001000   00000000    rw- .stack
  08010d68    08010d68    00000800   00000000    rw- .myFiqStack


SECTION ALLOCATION MAP

 output                                  attributes/
section   page    origin      length       input sections
--------  ----  ----------  ----------   ----------------
.vecs      0    00000000    0000003c     
                  00000000    0000003c     mss_mmw_per4ft.oer4ft (.vecs)

.text      0    00000100    000135e2     
                  00000100    0000107a     rtsv7R4_T_le_v3D16_eabi.lib : _printfi.obj (.text)
                  0000117a    00000002     libmmwave_xwr68xx.aer4f : mmwave_link.oer4f (.text:MMWave_maskHostIRQ)
                  0000117c    0000064e     mss_cli.oer4f (.text:MmwDemo_CLIInit)
                  000017ca    00000006     libosal_xwr68xx.aer4f : HwiP_tirtos.oer4f (.text:HwiP_restore)
                  000017d0    000004e1     sysbios.aer4ft : BIOS.obj (.text:xdc_runtime_System_doPrint__I)
                  00001cb1    00000001     --HOLE-- [fill = 0]
                  00001cb2    00000002     mss_main.oer4f (.text:MmwDemo_mssMmwaveCloseCallbackFxn)
                  00001cb4    000004bc     mss_main.oer4f (.text:MmwDemo_mssInitTask)
                  00002170    000003e0     mss_main.oer4f (.text:MmwDemo_mboxReadTask)
                  00002550    000003d0     cli_mmwave.oer4f (.text:CLI_MMWaveVersion)
                  00002920    00000394     sysbios.aer4ft : BIOS.obj (.text:ti_sysbios_knl_Event_pend__E)
                  00002cb4    0000000c     cli_mmwave.oer4f (.text:CLI_getMMWaveExtensionConfig)
                  00002cc0    00000310     sysbios.aer4ft : BIOS.obj (.text:ti_sysbios_knl_Semaphore_pend__E)
                  00002fd0    00000300     libsoc_xwr68xx.aer4f : soc_xwr68xx_mss.oer4f (.text:SOC_deviceInit)
                  000032d0    000002b8     rtsv7R4_T_le_v3D16_eabi.lib : ull_div32.obj (.text)
                  00003588    00000008     libosal_xwr68xx.aer4f : HwiP_tirtos.oer4f (.text:HwiP_disable)
                  00003590    000002a4     sysbios.aer4ft : BIOS.obj (.text:ti_sysbios_heaps_HeapMem_freeUnprotected__E)
                  00003834    00000284     libmmwave_xwr68xx.aer4f : mmwave_dualcore.oer4f (.text:MMWave_deviceExecuteFxn)
                  00003ab8    00000008                             : mmwave.oer4f (.text:MMWave_decodeErrorLevel)
                  00003ac0    00000280     sysbios.aer4ft : BIOS.obj (.text:ti_sysbios_family_arm_exc_Exception_excDumpContext__I)
                  00003d40    00000268                    : BIOS.obj (.text:ti_sysbios_knl_Task_Instance_finalize__E)
                  00003fa8    00000260     libmailbox_xwr68xx.aer4f : mailbox.oer4f (.text:Mailbox_open)
                  00004208    00000258     rtsv7R4_T_le_v3D16_eabi.lib : e_exp.obj (.text)
                  00004460    00000254     cli_mmwave.oer4f (.text:CLI_MMWaveProfileCfg)
                  000046b4    00000244     mss_main.oer4f (.text:MmwDemo_mssCtrlPathTask)
                  000048f8    00000008     libmmwave_xwr68xx.aer4f : mmwave_link.oer4f (.text:MMWave_mboxCallbackFxn)
                  00004900    00000228     sysbios.aer4ft : BIOS.obj (.text:ti_sysbios_heaps_HeapMem_allocUnprotected__E)
                  00004b28    00000008     libosal_xwr68xx.aer4f : SemaphoreP_tirtos.oer4f (.text:SemaphoreP_Params_init)
                  00004b30    00000220     sysbios.aer4ft : BIOS.obj (.text:ti_sysbios_knl_Task_sleep__E)
                  00004d50    00000214     libuart_xwr68xx.aer4f : uartsci.oer4f (.text:UartSci_open)
                  00004f64    00000210     mss_main.oer4f (.text:MmwDemo_mssDataPathConfig)
                  00005174    00000204     cli_mmwave.oer4f (.text:CLI_MMWaveChirpCfg)
                  00005378    00000200     libcrc_xwr68xx.aer4f : crc.oer4f (.text:CRC_open)
                  00005578    000001f8     cli.oer4f (.text:CLI_task)
                  00005770    000001f0     libdma_xwr68xx.aer4f : dma.oer4f (.text:DMA_setChannelParams)
                  00005960    000001e4     rtsv7R4_T_le_v3D16_eabi.lib : strtod.obj (.text)
                  00005b44    0000000c     libmmwave_xwr68xx.aer4f : mmwave_dualcore.oer4f (.text:MMWave_deviceMailboxCallbackFxn)
                  00005b50    000001e4     sysbios.aer4ft : BIOS.obj (.text:ti_sysbios_family_arm_v7r_vim_Hwi_dispatchIRQC__I)
                  00005d34    0000000c     libmmwave_xwr68xx.aer4f : mmwave_osal.oer4f (.text:MMWave_osalMutexUnlock)
                  00005d40    000001dc     sysbios.aer4ft : BIOS.obj (.text:ti_sysbios_knl_Task_Module_startup__E)
                  00005f1c    000001c8     rtsv7R4_T_le_v3D16_eabi.lib : fopen.obj (.text)
                  000060e4    0000000c     libmmwave_xwr68xx.aer4f : mmwave_osal.oer4f (.text:MMWave_osalSemSignal)
                  000060f0    000001c8     sysbios.aer4ft : BIOS.obj (.text:ti_sysbios_knl_Task_Instance_init__E)
                  000062b8    000001b0     mss_main.oer4f (.text:MmwDemo_bpmConfig)
                  00006468    000001a8     cli_mmwave.oer4f (.text:CLI_MMWaveSubFrameCfg)
                  00006610    000001a4     libmmwave_xwr68xx.aer4f : mmwave_dualcore.oer4f (.text:MMWave_serializeCfg)
                  000067b4    0000000c     mss_main.oer4f (.text:MmwDemo_mboxCallback)
                  000067c0    0000019c     sysbios.aer4ft : BIOS.obj (.text:xdc_runtime_Error_policyDefault__E)
                  0000695c    00000184     libmmwavelink_xwr68xx.aer4f : rl_driver.oer4f (.text:rlDriverCmdInvoke)
                  00006ae0    00000184     sysbios.aer4ft : BIOS.obj (.text:ti_sysbios_timers_rti_Timer_Module_startup__E)
                  00006c64    00000180     libmmwavelink_xwr68xx.aer4f : rl_driver.oer4f (.text:rlDriverRxHdrRead)
                  00006de4    0000000c     libuart_xwr68xx.aer4f : UART.oer4f (.text:UART_Params_init)
                  00006df0    0000017c     sysbios.aer4ft : BIOS.obj (.text:ti_sysbios_family_arm_exc_Exception_excHandler__I)
                  00006f6c    00000004     libosal_xwr68xx.aer4f : HwiP_tirtos.oer4f (.text:HwiP_disableInterrupt)
                  00006f70    0000017c     sysbios.aer4ft : BIOS.obj (.text:ti_sysbios_knl_Semaphore_post__E)
                  000070ec    00000004     libmmwave_xwr68xx.aer4f : mmwave_link.oer4f (.text:MMWave_disableDevice)
                  000070f0    00000174     sysbios.aer4ft : BIOS.obj (.text:ti_sysbios_knl_Event_post__E)
                  00007264    00000170     libgpio_xwr68xx.aer4f : gpio.oer4f (.text:GPIO_setConfig)
                  000073d4    0000016c     mss_main.oer4f (.text:estimateCircleState)
                  00007540    00000160     sysbios.aer4ft : BIOS.obj (.text:ti_sysbios_family_arm_v7r_vim_Hwi_reconfig__E)
                  000076a0    00000158     mss_main.oer4f (.text:main)
                  000077f8    00000150     mss_cli.oer4f (.text:MmwDemo_CLICalibDcRangeSig)
                  00007948    0000014c     cli_mmwave.oer4f (.text:CLI_MMWaveFrameCfg)
                  00007a94    0000014c     libmmwave_xwr68xx.aer4f : mmwave_link.oer4f (.text:MMWave_initMMWaveLink)
                  00007be0    0000014a     libuart_xwr68xx.aer4f : uartsci.oer4f (.text:UartSci_ISR)
                  00007d2a    00000006     libmmwavelink_xwr68xx.aer4f : rl_controller.oer4f (.text:rlGetSubBlockId)
                  00007d30    00000140     sysbios.aer4ft : BIOS.obj (.text:ti_sysbios_heaps_HeapMem_Instance_init__E)
                  00007e70    00000140                    : BIOS.obj (.text:xdc_runtime_Core_createObject__I)
                  00007fb0    0000013c                    : BIOS.obj (.text:ti_sysbios_knl_Clock_workFunc__E)
                  000080ec    00000138     rtsv7R4_T_le_v3D16_eabi.lib : fputs.obj (.text)
                  00008224    0000000c     libuart_xwr68xx.aer4f : uartsci_dma.oer4f (.text:UartSci_isDMAEnabled)
                  00008230    00000134     sysbios.aer4ft : BIOS.obj (.text:xdc_runtime_Startup_startMods__I)
                  00008364    0000012c     mss_main.oer4f (.text:postProcessing)
                  00008490    00000128     libmmwave_xwr68xx.aer4f : mmwave_link.oer4f (.text:MMWave_openLink)
                  000085b8    00000128     libmmwavelink_xwr68xx.aer4f : rl_driver.oer4f (.text:rlDriverMsgRead)
                  000086e0    00000124     cli_mmwave.oer4f (.text:CLI_MMWaveAdvFrameCfg)
                  00008804    00000124     cli_mmwave.oer4f (.text:CLI_MMWaveContModeCfg)
                  00008928    00000120     mss_cli.oer4f (.text:MmwDemo_CLICompRangeBiasAndRxChanPhaseCfg)
                  00008a48    00000008     libmmwavelink_xwr68xx.aer4f : rl_driver.oer4f (.text:rlDriverConstructOutMsg)
                  00008a50    00000118     sysbios.aer4ft : BIOS.obj (.text:ti_sysbios_family_arm_v7r_vim_Hwi_Instance_init__E)
                  00008b68    00000008     libmmwavelink_xwr68xx.aer4f : rl_driver.oer4f (.text:rlDriverGetHandle)
                  00008b70    00000118     sysbios.aer4ft : BIOS.obj (.text:ti_sysbios_knl_Swi_run__I)
                  00008c88    00000114     libmmwavelink_xwr68xx.aer4f : rl_driver.oer4f (.text:rlDriverCmdSendRetry)
                  00008d9c    0000010c     libmmwave_xwr68xx.aer4f : mmwave_dualcore.oer4f (.text:MMWave_deviceInitFxn)
                  00008ea8    00000008     sysbios.aer4ft : BIOS.obj (.text:ti_sysbios_family_arm_v7a_Pmu_getEnabled__E)
                  00008eb0    0000010c                    : BIOS.obj (.text:xdc_runtime_Core_constructObject__I)
                  00008fbc    00000108     libmailbox_xwr68xx.aer4f : mailbox.oer4f (.text:Mailbox_write)
                  000090c4    00000108     mss_main.oer4f (.text:MmwDemo_mssMmwaveEventCallbackFxn)
                  000091cc    00000004     libmmwave_xwr68xx.aer4f : mmwave_link.oer4f (.text:MMWave_enableDevice)
                  000091d0    00000104     sysbios.aer4ft : BIOS.obj (.text:ti_sysbios_timers_rti_Timer_getFreq__E)
                  000092d4    00000100     cli_mmwave.oer4f (.text:CLI_MMWaveBPMCfgAdvanced)
                  000093d4    00000100     libmmwave_xwr68xx.aer4f : mmwave_link.oer4f (.text:MMWave_startLink)
                  000094d4    000000fc     libcrc_xwr68xx.aer4f : crc.oer4f (.text:CRC_computeSignature)
                  000095d0    000000fc     libdma_xwr68xx.aer4f : dma.oer4f (.text:DMA_disableInterrupt)
                  000096cc    000000fc     libmmwavelink_xwr68xx.aer4f : rl_driver.oer4f (.text:rlDriverInit)
                  000097c8    000000f8                                 : rl_driver.oer4f (.text:rlDriverRdVerifyMsg)
                  000098c0    000000f8     mss_mmw_per4ft.oer4ft (.text:xdc_runtime_System_printfExtend__I)
                  000099b8    00000006     libmmwavelink_xwr68xx.aer4f : rl_controller.oer4f (.text:rlGetSubBlockLen)
                  000099be    00000002     mss_main.oer4f (.text:MmwDemo_mssMmwaveOpenCallbackFxn)
                  000099c0    000000f0     sysbios.aer4ft : BIOS.obj (.text:ti_sysbios_family_arm_v7r_vim_Hwi_Module_startup__E)
                  00009ab0    000000ec     rtsv7R4_T_le_v3D16_eabi.lib : s_scalbn.obj (.text)
                  00009b9c    00000004     libmmwave_xwr68xx.aer4f : mmwave_listlib.oer4f (.text:MMWave_listGetHead)
                  00009ba0    000000ec     sysbios.aer4ft : BIOS.obj (.text:ti_sysbios_heaps_HeapBuf_Module_startup__E)
                  00009c8c    000000e8     cli.oer4f (.text:CLI_open)
                  00009d74    000000e6     inference.oer4f (.text:Inference)
                  00009e5a    00000002     libuart_xwr68xx.aer4f : uartsci.oer4f (.text:UartSci_init)
                  00009e5c    000000e4     libdma_xwr68xx.aer4f : dma.oer4f (.text:DMA_clearChannelInterruptFlag)
                  00009f40    000000e4     libmmwave_xwr68xx.aer4f : mmwave_link.oer4f (.text:MMWave_asyncEventHandler)
                  0000a024    000000dc     mss_cli.oer4f (.text:MmwDemo_CLIPeakGroupingCfg)
                  0000a100    000000dc     rtsv7R4_T_le_v3D16_eabi.lib : setvbuf.obj (.text)
                  0000a1dc    000000d8     libdma_xwr68xx.aer4f : dma.oer4f (.text:DMA_enableInterrupt)
                  0000a2b4    000000d8     libmmwave_xwr68xx.aer4f : mmwave.oer4f (.text:MMWave_init)
                  0000a38c    000000d8     mss_cli.oer4f (.text:MmwDemo_CLIChirpQualityRxSatMonCfg)
                  0000a464    000000d4     libmailbox_xwr68xx.aer4f : mailbox.oer4f (.text:Mailbox_read)
                  0000a538    000000d4     mss_main.oer4f (.text:MmwDemo_mssDataPathStop)
                  0000a60c    000000d4     libmmwavelink_xwr68xx.aer4f : rl_sensor.oer4f (.text:rlSetMultiBpmChirpConfig)
                  0000a6e0    000000d4     sysbios.aer4ft : BIOS.obj (.text:ti_sysbios_knl_Task_exit__E)
                  0000a7b4    0000000c                    : arm_IntrinsicsSupport_asm.obj (.text:_ti_sysbios_family_arm_IntrinsicsSupport_maxbitA)
                  0000a7c0    000000d4                    : BIOS.obj (.text:ti_sysbios_knl_Task_schedule__I)
                  0000a894    000000d0     libsoc_xwr68xx.aer4f : soc_xwr68xx_mss.oer4f (.text:SOC_controlSecureFirewall)
                  0000a964    000000d0     sysbios.aer4ft : exc_Exception_asm.obj (.text:ti_sysbios_family_arm_exc_Exception_excHandlerAsm__I)
                  0000aa34    000000cc     libmmwavelink_xwr68xx.aer4f : rl_sensor.oer4f (.text:rlRfCalibDataRestore)
                  0000ab00    000000cc                                 : rl_sensor.oer4f (.text:rlSetChirpConfig)
                  0000abcc    000000cc     rtsv7R4_T_le_v3D16_eabi.lib : fflush.obj (.text)
                  0000ac98    00000004     libmmwave_xwr68xx.aer4f : mmwave_listlib.oer4f (.text:MMWave_listGetNext)
                  0000ac9c    00000004                             : mmwave_link.oer4f (.text:MMWave_mboxClose)
                  0000aca0    000000cc     sysbios.aer4ft : BIOS.obj (.text:ti_sysbios_knl_Task_checkStacks__E)
                  0000ad6c    000000c8     libmmwave_xwr68xx.aer4f : mmwave_fullcfg.oer4f (.text:MMWave_addChirp)
                  0000ae34    000000c8                             : mmwave_link.oer4f (.text:MMWave_configBPM)
                  0000aefc    000000c8                             : mmwave_fullcfg.oer4f (.text:MMWave_flushCfg)
                  0000afc4    000000c8                             : mmwave_fullcfg.oer4f (.text:MMWave_getChirpHandle)
                  0000b08c    00000004                             : mmwave_link.oer4f (.text:MMWave_mboxRead)
                  0000b090    000000c8     sysbios.aer4ft : BIOS.obj (.text:ti_sysbios_knl_Task_postInit__I)
                  0000b158    000000c4     cli.oer4f (.text:CLI_help)
                  0000b21c    000000c4     mss_cli.oer4f (.text:MmwDemo_CLILvdsStreamCfg)
                  0000b2e0    000000c4     sysbios.aer4ft : BIOS.obj (.text:ti_sysbios_family_arm_v7a_Pmu_configureCounter__E)
                  0000b3a4    000000c0     mss_cli.oer4f (.text:MmwDemo_CLIChirpQualitySigImgMonCfg)
                  0000b464    000000c0     libmmwavelink_xwr68xx.aer4f : rl_driver.oer4f (.text:rlDriverMsgWrite)
                  0000b524    000000c0                                 : rl_sensor.oer4f (.text:rlSetFrameConfig)
                  0000b5e4    0000000c     rtsv7R4_T_le_v3D16_eabi.lib : copy_zero_init.obj (.text:decompress:ZI)
                  0000b5f0    000000c0     sysbios.aer4ft : BIOS.obj (.text:ti_sysbios_timers_rti_Timer_startup__E)
                  0000b6b0    000000bc     libgpio_xwr68xx.aer4f : gpio.oer4f (.text:GPIO_write)
                  0000b76c    000000bc     libmmwave_xwr68xx.aer4f : mmwave_link.oer4f (.text:MMWave_computeCRC)
                  0000b828    000000bc     mss_cli.oer4f (.text:MmwDemo_CLIBpmCfg)
                  0000b8e4    000000bc     mss_cli.oer4f (.text:MmwDemo_CLICfarCfg)
                  0000b9a0    000000bc     mss_main.oer4f (.text:correlation_function)
                  0000ba5c    000000bc     rtsv7R4_T_le_v3D16_eabi.lib : open.obj (.text)
                  0000bb18    000000b8     mss_cli.oer4f (.text:MmwDemo_CLIMeasureRangeBiasAndRxChanPhaseCfg)
                  0000bbd0    000000b6     libsoc_xwr68xx.aer4f : soc_mpu.o (.text)
                  0000bc86    00000002     rtsv7R4_T_le_v3D16_eabi.lib : i_div0.obj (.text)
                  0000bc88    000000b4     mss_main.oer4f (.text:MmwDemo_mssDataPathStart)
                  0000bd3c    00000004     libmmwave_xwr68xx.aer4f : mmwave_link.oer4f (.text:MMWave_registerInterruptHandler)
                  0000bd40    000000b4     sysbios.aer4ft : BIOS.obj (.text:ti_sysbios_gates_GateMutex_enter__E)
                  0000bdf4    0000000c     libmmwavelink_xwr68xx.aer4f : rl_driver.oer4f (.text:rlDriverGetPlatformId)
                  0000be00    000000b4     sysbios.aer4ft : BIOS.obj (.text:ti_sysbios_knl_Task_startCore__E)
                  0000beb4    000000b2     libuart_xwr68xx.aer4f : uartsci_dma.oer4f (.text:UartSci_openDMA)
                  0000bf66    00000002     mss_mmw_per4ft.oer4ft (.text:ti_sysbios_BIOS_nullFunc__I)
                  0000bf68    000000b0     libmmwave_xwr68xx.aer4f : mmwave_fullcfg.oer4f (.text:MMWave_addProfile)
                  0000c018    000000b0     libmmwavelink_xwr68xx.aer4f : rl_sensor.oer4f (.text:rlSetProfileConfig)
                  0000c0c8    00000004     libmmwave_xwr68xx.aer4f : mmwave_link.oer4f (.text:MMWave_unmaskHostIRQ)
                  0000c0cc    00000004                             : mmwave_link.oer4f (.text:MMWave_waitIRQStatus)
                  0000c0d0    000000b0     sysbios.aer4ft : BIOS.obj (.text:xdc_runtime_Text_putMod__E)
                  0000c180    000000ae     rtsv7R4_T_le_v3D16_eabi.lib : _io_perm.obj (.text)
                  0000c22e    00000002     mss_mmw_per4ft.oer4ft (.text:xdc_runtime_Startup_reset__I)
                  0000c230    000000ac     libesm_xwr68xx.aer4f : esm.oer4f (.text:ESM_processInterrupt)
                  0000c2dc    000000ac     mss_cli.oer4f (.text:MmwDemo_CLISetDataLogger)
                  0000c388    000000a8     cli_mmwave.oer4f (.text:CLI_MMWaveExtensionHelp)
                  0000c430    000000a8     libmmwave_xwr68xx.aer4f : mmwave_link.oer4f (.text:MMWave_configureProfileChirp)
                  0000c4d8    000000a8                             : mmwave_fullcfg.oer4f (.text:MMWave_getBpmChirpHandle)
                  0000c580    000000a8     mss_cli.oer4f (.text:MmwDemo_CLIGuiMonSel)
                  0000c628    000000a8     libpinmux_xwr68xx.aer4f : pinmux.oer4f (.text:Pinmux_Set_OverrideCtrl)
                  0000c6d0    000000a8     libmmwavelink_xwr68xx.aer4f : rl_sensor.oer4f (.text:rlSetAdvFrameConfig)
                  0000c778    000000a8     mss_main.oer4f (.text:runPeopleDetection)
                  0000c820    000000a8     sysbios.aer4ft : BIOS.obj (.text:ti_sysbios_knl_Swi_post__E)
                  0000c8c8    000000a4     libdma_xwr68xx.aer4f : dma.oer4f (.text:DMA_assignChannel)
                  0000c96c    000000a4                          : dma.oer4f (.text:DMA_getChannelInterruptFlag)
                  0000ca10    000000a4     libesm_xwr68xx.aer4f : esm.oer4f (.text:ESM_init)
                  0000cab4    000000a4     libmmwave_xwr68xx.aer4f : mmwave_fullcfg.oer4f (.text:MMWave_addBpmChirp)
                  0000cb58    000000a4                             : mmwave.oer4f (.text:MMWave_start)
                  0000cbfc    000000a4     mss_main.oer4f (.text:MmwDemo_waitSensorStopComplete)
                  0000cca0    000000a4     libsoc_xwr68xx.aer4f : soc_xwr68xx_mss.oer4f (.text:SOC_unhaltDSS)
                  0000cd44    0000000c     sysbios.aer4ft : BIOS.obj (.text:ti_sysbios_family_arm_v7a_Pmu_configureCounterI__I)
                  0000cd50    000000a2                    : BIOS.obj (.text:xdc_runtime_Text_putSite__E)
                  0000cdf2    00000002     --HOLE-- [fill = 0]
                  0000cdf4    000000a0     auto_init.aer4ft : auto_init.oer4ft (.text)
                  0000ce94    000000a0     libmmwavelink_xwr68xx.aer4f : rl_driver.oer4f (.text:rlDriverWaitForResponse)
                  0000cf34    0000000c     mss_mmw_per4ft.oer4ft (.text:ti_sysbios_knl_Queue_Object__get__S)
                  0000cf40    000000a0     sysbios.aer4ft : BIOS.obj (.text:ti_sysbios_knl_Task_blockI__E)
                  0000cfe0    0000009c     libmmwave_xwr68xx.aer4f : mmwave_link.oer4f (.text:MMWave_configLink)
                  0000d07c    0000009c                             : mmwave_fullcfg.oer4f (.text:MMWave_getProfileHandle)
                  0000d118    0000009c     libuart_xwr68xx.aer4f : uartsci.oer4f (.text:UartSci_write)
                  0000d1b4    0000009c     rtsv7R4_T_le_v3D16_eabi.lib : memcpy_t2.obj (.text)
                  0000d250    0000009c     sysbios.aer4ft : BIOS.obj (.text:ti_sysbios_family_arm_v7r_vim_Hwi_initIntController__I)
                  0000d2ec    00000004     mss_main.oer4f (.text:MmwDemo_sleep)
                  0000d2f0    0000009c     sysbios.aer4ft : BIOS.obj (.text:ti_sysbios_family_arm_v7r_vim_Hwi_mapChannel__I)
                  0000d38c    00000004     libsoc_xwr68xx.aer4f : soc_xwr68xx_mss.oer4f (.text:SOC_isSecureDevice)
                  0000d390    0000009c     sysbios.aer4ft : BIOS.obj (.text:ti_sysbios_knl_Semaphore_Instance_init__E)
                  0000d42c    00000098     libmmwave_xwr68xx.aer4f : mmwave_fullcfg.oer4f (.text:MMWave_getChirpCfg)
                  0000d4c4    00000098     rtsv7R4_T_le_v3D16_eabi.lib : fclose.obj (.text)
                  0000d55c    00000098                                 : fputc.obj (.text)
                  0000d5f4    00000098     sysbios.aer4ft : vim_Hwi_asm_switch.obj (.text)
                  0000d68c    00000096     libuart_xwr68xx.aer4f : uartsci.oer4f (.text:UartSci_readChar)
                  0000d722    00000002     --HOLE-- [fill = 0]
                  0000d724    00000094     libmmwavelink_xwr68xx.aer4f : rl_driver.oer4f (.text:rlDriverDeInit)
                  0000d7b8    00000094                                 : rl_driver.oer4f (.text:rlDriverMsgReadCmdCtx)
                  0000d84c    00000094     sysbios.aer4ft : vim_Hwi_asm.obj (.text:ti_sysbios_family_arm_v7r_vim_Hwi_dispatchIRQ__I)
                  0000d8e0    00000090     libgpio_xwr68xx.aer4f : gpio.oer4f (.text:GPIO_init)
                  0000d970    00000090     libmailbox_xwr68xx.aer4f : mailbox.oer4f (.text:Mailbox_close)
                  0000da00    00000090     mss_cli.oer4f (.text:MmwDemo_CLIADCBufCfg)
                  0000da90    00000090     mss_main.oer4f (.text:MmwDemo_waitSensorStartComplete)
                  0000db20    00000090     libuart_xwr68xx.aer4f : uartsci_dma.oer4f (.text:UartSci_initiateTxDMA)
                  0000dbb0    00000090                           : uartsci.oer4f (.text:UartSci_read)
                  0000dc40    00000090     utils.oer4f (.text:soft_max)
                  0000dcd0    00000090     sysbios.aer4ft : BIOS.obj (.text:ti_sysbios_family_arm_v7a_Pmu_startCounter__E)
                  0000dd60    00000090                    : BIOS.obj (.text:ti_sysbios_knl_Task_unblockI__E)
                  0000ddf0    0000008c     cli_mmwave.oer4f (.text:CLI_MMWaveDataOutputMode)
                  0000de7c    0000008c     mss_cli.oer4f (.text:MmwDemo_CLIAnalogMonitorCfg)
                  0000df08    0000008c     libsoc_xwr68xx.aer4f : soc_xwr68xx.oer4f (.text:SOC_translateAddress)
                  0000df94    0000008c     libuart_xwr68xx.aer4f : uartsci_dma.oer4f (.text:UartSci_initiateRxDMA)
                  0000e020    0000008c     libmmwavelink_xwr68xx.aer4f : rl_device.oer4f (.text:rlDevicePowerOn)
                  0000e0ac    0000008c                                 : rl_driver.oer4f (.text:rlDriverMsgCmdReply)
                  0000e138    00000004     mss_mmw_per4ft.oer4ft (.text:ti_sysbios_BIOS_RtsGateProxy_enter__E)
                  0000e13c    00000004     mss_mmw_per4ft.oer4ft (.text:ti_sysbios_BIOS_RtsGateProxy_leave__E)
                  0000e140    0000008c     sysbios.aer4ft : BIOS.obj (.text:ti_sysbios_family_arm_v7r_vim_Hwi_Instance_finalize__E)
                  0000e1cc    00000004     mss_mmw_per4ft.oer4ft (.text:ti_sysbios_family_arm_TaskSupport_Module__startupDone__S)
                  0000e1d0    0000008c     sysbios.aer4ft : BIOS.obj (.text:xdc_runtime_Memory_alloc__E)
                  0000e25c    00000088     libmmwave_xwr68xx.aer4f : mmwave_fullcfg.oer4f (.text:MMWave_getProfileCfg)
                  0000e2e4    00000088     mss_cli.oer4f (.text:MmwDemo_CLIMultiObjBeamForming)
                  0000e36c    00000088     mss_cli.oer4f (.text:MmwDemo_CLINearFieldCorrection)
                  0000e3f4    00000088     mss_main.oer4f (.text:MmwDemo_gpioSwitchTask)
                  0000e47c    00000088     libsoc_xwr68xx.aer4f : soc.oer4f (.text:SOC_init)
                  0000e504    00000088     rtsv7R4_T_le_v3D16_eabi.lib : vsnprintf.obj (.text)
                  0000e58c    00000084     libmmwave_xwr68xx.aer4f : mmwave_dualcore.oer4f (.text:MMWave_deviceCfgAsyncEvent)
                  0000e610    00000084                             : mmwave_dualcore.oer4f (.text:MMWave_deviceEventFxn)
                  0000e694    00000084                             : mmwave_fullcfg.oer4f (.text:MMWave_getNumBpmChirp)
                  0000e718    00000084                             : mmwave.oer4f (.text:MMWave_open)
                  0000e79c    00000080     cli_mmwave.oer4f (.text:CLI_MMWaveChannelCfg)
                  0000e81c    00000080     libmmwave_xwr68xx.aer4f : mmwave_fullcfg.oer4f (.text:MMWave_getBpmChirpCfg)
                  0000e89c    00000080     libuart_xwr68xx.aer4f : uartsci.oer4f (.text:UartSci_writePolling)
                  0000e91c    00000080     mss_main.oer4f (.text:findDelta)
                  0000e99c    00000080     libmmwavelink_xwr68xx.aer4f : rl_driver.oer4f (.text:rlDriverExecuteGetApi)
                  0000ea1c    00000004     mss_mmw_per4ft.oer4ft (.text:ti_sysbios_family_arm_v7r_vim_Hwi_delete)
                  0000ea20    00000080     sysbios.aer4ft : BIOS.obj (.text:ti_sysbios_timers_rti_Timer_initDevice__I)
                  0000eaa0    0000007e     libosal_xwr68xx.aer4f : HwiP_tirtos.oer4f (.text:HwiP_create)
                  0000eb1e    00000002     --HOLE-- [fill = 0]
                  0000eb20    0000007c     libmmwave_xwr68xx.aer4f : mmwave_dualcore.oer4f (.text:MMWave_deviceOpenFxn)
                  0000eb9c    0000007c     libmailbox_xwr68xx.aer4f : mailbox.oer4f (.text:Mailbox_init)
                  0000ec18    0000007c     libuart_xwr68xx.aer4f : uartsci.oer4f (.text:UartSci_readPolling)
                  0000ec94    0000007c     sysbios.aer4ft : arm_TaskSupport_asm.obj (.text:_ti_sysbios_family_arm_TaskSupport_buildTaskStack)
                  0000ed10    0000007c                    : BIOS.obj (.text:xdc_runtime_Core_deleteObject__I)
                  0000ed8c    0000007b     mss_cli.oer4f (.text:MmwDemo_CLIGetSubframe)
                  0000ee07    00000001     --HOLE-- [fill = 0]
                  0000ee08    0000007a     rtsv7R4_T_le_v3D16_eabi.lib : memset_t2.obj (.text)
                  0000ee82    00000002     --HOLE-- [fill = 0]
                  0000ee84    00000078     cli_mmwave.oer4f (.text:CLI_MMWaveADCCfg)
                  0000eefc    00000078     libmmwave_xwr68xx.aer4f : mmwave_fullcfg.oer4f (.text:MMWave_getNumChirps)
                  0000ef74    00000078     mss_cli.oer4f (.text:MmwDemo_CLIExtendedMaxVelocity)
                  0000efec    00000078     mss_main.oer4f (.text:MmwDemo_Dss2MssISR)
                  0000f064    00000074     libmmwave_xwr68xx.aer4f : mmwave.oer4f (.text:MMWave_config)
                  0000f0d8    00000074                             : mmwave_dualcore.oer4f (.text:MMWave_deviceStartFxn)
                  0000f14c    00000074     mss_cli.oer4f (.text:MmwDemo_CLIClutterRemoval)
                  0000f1c0    00000074     libsoc_xwr68xx.aer4f : soc.oer4f (.text:SOC_getDeviceRFFreqScaleFactor)
                  0000f234    00000074     boot.aer4ft : boot.oer4ft (.text)
                  0000f2a8    00000074     libmmwavelink_xwr68xx.aer4f : rl_driver.oer4f (.text:rlDriverAsyncEventHandler)
                  0000f31c    00000074                                 : rl_driver.oer4f (.text:rlDriverProcRdMsg)
                  0000f390    00000074     rtsv7R4_T_le_v3D16_eabi.lib : getdevice.obj (.text)
                  0000f404    00000074                                 : s_frexp.obj (.text)
                  0000f478    00000072     libmmwavelink_xwr68xx.aer4f : rl_driver.oer4f (.text:rlDriverClientCbCheck)
                  0000f4ea    00000002     --HOLE-- [fill = 0]
                  0000f4ec    00000070     libmmwave_xwr68xx.aer4f : mmwave_dualcore.oer4f (.text:MMWave_deviceCfgFxn)
                  0000f55c    00000070     mss_main.oer4f (.text:logFeatures)
                  0000f5cc    00000070     rtsv7R4_T_le_v3D16_eabi.lib : printf.obj (.text)
                  0000f63c    00000004     mss_mmw_per4ft.oer4ft (.text:ti_sysbios_heaps_HeapMem_Module_GateProxy_enter__E)
                  0000f640    00000070     sysbios.aer4ft : BIOS.obj (.text:xdc_runtime_Error_print__E)
                  0000f6b0    00000070                    : BIOS.obj (.text:xdc_runtime_Text_visitRope2__I)
                  0000f720    0000006c     libdma_xwr68xx.aer4f : dma.oer4f (.text:DMA_disableChannel)
                  0000f78c    0000006c     libgpio_xwr68xx.aer4f : gpio.oer4f (.text:GPIO_enableInt)
                  0000f7f8    0000006c     libmmwave_xwr68xx.aer4f : mmwave_link.oer4f (.text:MMWave_spawn)
                  0000f864    0000006c                             : mmwave_link.oer4f (.text:MMWave_stopLink)
                  0000f8d0    0000006c     libpinmux_xwr68xx.aer4f : pinmux.oer4f (.text:Pinmux_Set_FuncSel)
                  0000f93c    0000006c     mss_main.oer4f (.text:angleDelta)
                  0000f9a8    0000006c     rtsv7R4_T_le_v3D16_eabi.lib : copy_decompress_lzss.obj (.text:decompress:lzss)
                  0000fa14    0000006c                                 : trgmsg.obj (.text)
                  0000fa80    0000006a     libuart_xwr68xx.aer4f : uartsci.oer4f (.text:UartSci_control)
                  0000faea    00000002     --HOLE-- [fill = 0]
                  0000faec    00000068     libdma_xwr68xx.aer4f : dma.oer4f (.text:DMA_enableChannel)
                  0000fb54    00000068     libmmwave_xwr68xx.aer4f : mmwave_dualcore.oer4f (.text:MMWave_deviceStopFxn)
                  0000fbbc    00000068     libmailbox_xwr68xx.aer4f : mailbox.oer4f (.text:Mailbox_readFlush)
                  0000fc24    00000068     libmmwavelink_xwr68xx.aer4f : rl_driver.oer4f (.text:rlDriverExecuteSetApi)
                  0000fc8c    00000068                                 : rl_driver.oer4f (.text:rlDriverHostIrqHandler)
                  0000fcf4    00000068     rtsv7R4_T_le_v3D16_eabi.lib : hostlseek.obj (.text)
                  0000fd5c    00000068                                 : hostrename.obj (.text)
                  0000fdc4    0000000a     libosal_xwr68xx.aer4f : MemoryP_tirtos.oer4f (.text:MemoryP_ctrlFree)
                  0000fdce    00000002     --HOLE-- [fill = 0]
                  0000fdd0    00000068     sysbios.aer4ft : BIOS.obj (.text:ti_sysbios_knl_Swi_schedule__I)
                  0000fe38    00000067     mss_main.oer4f (.text:MmwDemo_mssSetHsiClk)
                  0000fe9f    00000001     --HOLE-- [fill = 0]
                  0000fea0    00000066     libmmwavelink_xwr68xx.aer4f : rl_device.oer4f (.text:rlDevicePowerOff)
                  0000ff06    00000002     --HOLE-- [fill = 0]
                  0000ff08    00000064     cli_mmwave.oer4f (.text:CLI_MMWaveLowPowerCfg)
                  0000ff6c    00000064     libosal_xwr68xx.aer4f : SemaphoreP_tirtos.oer4f (.text:SemaphoreP_create)
                  0000ffd0    00000064     rtsv7R4_T_le_v3D16_eabi.lib : fseek.obj (.text)
                  00010034    00000064                                 : sprintf.obj (.text)
                  00010098    00000064     sysbios.aer4ft : exc_Exception_asm.obj (.text:ti_sysbios_family_arm_exc_Exception_initCore0__I)
                  000100fc    00000004     mss_mmw_per4ft.oer4ft (.text:ti_sysbios_heaps_HeapMem_Module_GateProxy_leave__E)
                  00010100    00000064     sysbios.aer4ft : BIOS.obj (.text:ti_sysbios_family_arm_v7r_vim_Hwi_phantomIntHandler__I)
                  00010164    0000000a     libosal_xwr68xx.aer4f : SemaphoreP_tirtos.oer4f (.text:SemaphoreP_post)
                  0001016e    00000002     --HOLE-- [fill = 0]
                  00010170    00000064     sysbios.aer4ft : BIOS.obj (.text:ti_sysbios_knl_Clock_logTick__E)
                  000101d4    0000000a     libuart_xwr68xx.aer4f : UART.oer4f (.text:UART_read)
                  000101de    00000002     --HOLE-- [fill = 0]
                  000101e0    00000064     sysbios.aer4ft : BIOS.obj (.text:xdc_runtime_Startup_exec__E)
                  00010244    00000060     cli_mmwave.oer4f (.text:CLI_MMWaveExtensionHandler)
                  000102a4    00000060     libgpio_xwr68xx.aer4f : gpio.oer4f (.text:GPIO_setCallback)
                  00010304    00000060     mss_main.oer4f (.text:gestureInferenceProcessing)
                  00010364    0000000a     libuart_xwr68xx.aer4f : UART.oer4f (.text:UART_write)
                  0001036e    00000002     --HOLE-- [fill = 0]
                  00010370    00000060     sysbios.aer4ft : BIOS.obj (.text:ti_sysbios_heaps_HeapMem_alloc__E)
                  000103d0    00000060                    : BIOS.obj (.text:xdc_runtime_Assert_raise__I)
                  00010430    0000005f                    : BIOS.obj (.text:xdc_runtime_Text_putLab__E)
                  0001048f    00000001     --HOLE-- [fill = 0]
                  00010490    0000005e     libuart_xwr68xx.aer4f : uartsci.oer4f (.text:UartSci_writeChar)
                  000104ee    00000002     --HOLE-- [fill = 0]
                  000104f0    0000005c     libmmwave_xwr68xx.aer4f : mmwave_link.oer4f (.text:MMWave_mboxOpen)
                  0001054c    0000005c                             : mmwave.oer4f (.text:MMWave_stop)
                  000105a8    0000005c     rtsv7R4_T_le_v3D16_eabi.lib : hostopen.obj (.text)
                  00010604    0000005c                                 : hostread.obj (.text)
                  00010660    0000005a     libuart_xwr68xx.aer4f : uartsci.oer4f (.text:UartSci_readCancel)
                  000106ba    0000005a     libmmwavelink_xwr68xx.aer4f : rl_driver.oer4f (.text:rlDriverCalChkSum)
                  00010714    00000058     libesm_xwr68xx.aer4f : esm.oer4f (.text:ESM_highpriority_FIQ)
                  0001076c    00000058     libmmwave_xwr68xx.aer4f : mmwave.oer4f (.text:MMWave_execute)
                  000107c4    00000058                             : mmwave_link.oer4f (.text:MMWave_initCRC)
                  0001081c    00000058     mss_main.oer4f (.text:MmwDemo_mmWaveCtrlTask)
                  00010874    00000058     libuart_xwr68xx.aer4f : uartsci_dma.oer4f (.text:UartSci_closeDMA)
                  000108cc    00000058     libmmwavelink_xwr68xx.aer4f : rl_driver.oer4f (.text:rlDriverMsgReadSpawnCtx)
                  00010924    00000058     rtsv7R4_T_le_v3D16_eabi.lib : close.obj (.text)
                  0001097c    00000058                                 : hostwrite.obj (.text)
                  000109d4    0000000a     libuart_xwr68xx.aer4f : UART.oer4f (.text:UART_writePolling)
                  000109de    00000002     --HOLE-- [fill = 0]
                  000109e0    00000058     sysbios.aer4ft : BIOS.obj (.text:ti_sysbios_knl_Swi_restoreHwi__E)
                  00010a38    00000056     libmmwavelink_xwr68xx.aer4f : rl_driver.oer4f (.text:rlDriverOsiCbCheck)
                  00010a8e    00000002     --HOLE-- [fill = 0]
                  00010a90    00000054     libcrc_xwr68xx.aer4f : crc.oer4f (.text:CRC_getTransactionId)
                  00010ae4    00000054     libdma_xwr68xx.aer4f : dma.oer4f (.text:DMA_freeChannel)
                  00010b38    00000054     libmmwave_xwr68xx.aer4f : mmwave_link.oer4f (.text:MMWave_initLink)
                  00010b8c    00000054     rtsv7R4_T_le_v3D16_eabi.lib : ltoa.obj (.text)
                  00010be0    00000054     mss_mmw_per4ft.oer4ft (.text:ti_sysbios_family_arm_v7r_vim_Hwi_create)
                  00010c34    0000000a     sysbios.aer4ft : tms570_Core_asm.obj (.text:ti_sysbios_family_arm_v7r_tms570_Core_getId__E)
                  00010c3e    00000002     --HOLE-- [fill = 0]
                  00010c40    00000054                    : BIOS.obj (.text:ti_sysbios_heaps_HeapMem_getStats__E)
                  00010c94    0000000a     mss_mmw_per4ft.oer4ft (.text:xdc_runtime_IHeap_alloc)
                  00010c9e    00000002     --HOLE-- [fill = 0]
                  00010ca0    00000054     sysbios.aer4ft : BIOS.obj (.text:ti_sysbios_knl_Swi_runLoop__I)
                  00010cf4    0000000a     mss_mmw_per4ft.oer4ft (.text:xdc_runtime_IHeap_free)
                  00010cfe    00000002     --HOLE-- [fill = 0]
                  00010d00    00000054     sysbios.aer4ft : BIOS.obj (.text:ti_sysbios_knl_Swi_startup__E)
                  00010d54    00000004     mss_mmw_per4ft.oer4ft (.text:ti_sysbios_knl_Clock_TimerProxy_getMaxTicks__E)
                  00010d58    00000004     mss_mmw_per4ft.oer4ft (.text:ti_sysbios_knl_Semaphore_delete)
                  00010d5c    00000004     mss_mmw_per4ft.oer4ft (.text:xdc_runtime_System_Module_GateProxy_enter__E)
                  00010d60    00000054     sysbios.aer4ft : BIOS.obj (.text:xdc_runtime_Core_assignLabel__I)
                  00010db4    00000050     cli.oer4f (.text:CLI_write)
                  00010e04    00000050     libcrc_xwr68xx.aer4f : crc.oer4f (.text:CRC_getSignature)
                  00010e54    00000050     libmmwave_xwr68xx.aer4f : mmwave.oer4f (.text:MMWave_sync)
                  00010ea4    00000050     libmmwavelink_xwr68xx.aer4f : rl_driver.oer4f (.text:rlDeviceIdentifyCmdDir)
                  00010ef4    00000050                                 : rl_driver.oer4f (.text:rlDriverVerifyCRC)
                  00010f44    00000050     rtsv7R4_T_le_v3D16_eabi.lib : atoi.obj (.text)
                  00010f94    00000050                                 : exit.obj (.text)
                  00010fe4    00000050                                 : u_div32.obj (.text)
                  00011034    00000004     mss_mmw_per4ft.oer4ft (.text:xdc_runtime_System_Module_GateProxy_leave__E)
                  00011038    00000008     --HOLE-- [fill = 0]
                  00011040    00000050     sysbios.aer4ft : BIOS.obj (.text:xdc_runtime_System_exit__E)
                  00011090    0000004c     libmailbox_xwr68xx.aer4f : mailbox.oer4f (.text:Mailbox_boxEmptyISRProcessing)
                  000110dc    0000004c     libuart_xwr68xx.aer4f : uartsci.oer4f (.text:UartSci_writeCancel)
                  00011128    0000004c     rtsv7R4_T_le_v3D16_eabi.lib : cpy_tbl.obj (.text)
                  00011174    0000000c     --HOLE-- [fill = 0]
                  00011180    0000004c     sysbios.aer4ft : BIOS.obj (.text:ti_sysbios_family_arm_v7r_vim_Hwi_getStackInfo__E)
                  000111cc    0000004c     mss_mmw_per4ft.oer4ft (.text:ti_sysbios_knl_Task_create)
                  00011218    0000004a     libmailbox_xwr68xx.aer4f : mailbox.oer4f (.text:Mailbox_boxFullISRProcessing)
                  00011262    0000000e     mss_cli.oer4f (.text:MmwDemo_CLISensorStop)
                  00011270    0000004a     sysbios.aer4ft : BIOS.obj (.text:xdc_runtime_Core_assignParams__I)
                  000112ba    00000006     --HOLE-- [fill = 0]
                  000112c0    0000004a                    : BIOS.obj (.text:xdc_runtime_Text_xprintf__I)
                  0001130a    00000048     libmmwavelink_xwr68xx.aer4f : rl_device.oer4f (.text:rlDeviceGetVersion)
                  00011352    00000002     --HOLE-- [fill = 0]
                  00011354    00000048                                 : rl_driver.oer4f (.text:rlDriverOsiInit)
                  0001139c    00000046     libmailbox_xwr68xx.aer4f : mailbox.oer4f (.text:CSL_FINSR)
                  000113e2    00000044     libcrc_xwr68xx.aer4f : crc.oer4f (.text:CRC_resetSignature)
                  00011426    00000002     --HOLE-- [fill = 0]
                  00011428    00000044     libmailbox_xwr68xx.aer4f : mailbox.oer4f (.text:Mailbox_boxFullISRMssDss)
                  0001146c    00000044     mss_cli.oer4f (.text:MmwDemo_mssCfgUpdate)
                  000114b0    00000044     rtsv7R4_T_le_v3D16_eabi.lib : hostclose.obj (.text)
                  000114f4    00000044                                 : hostunlink.obj (.text)
                  00011538    00000008     --HOLE-- [fill = 0]
                  00011540    00000044     sysbios.aer4ft : BIOS.obj (.text:ti_sysbios_family_arm_v7r_tms570_Core_Module_startup__E)
                  00011584    0000000c     --HOLE-- [fill = 0]
                  00011590    00000044                    : BIOS.obj (.text:ti_sysbios_knl_Task_allBlockedFunction__I)
                  000115d4    0000000c     --HOLE-- [fill = 0]
                  000115e0    00000044                    : BIOS.obj (.text:xdc_runtime_System_atexit__E)
                  00011624    00000042     libmmwave_xwr68xx.aer4f : mmwave_link.oer4f (.text:MMWave_executeLink)
                  00011666    00000040     libmmwavelink_xwr68xx.aer4f : rl_driver.oer4f (.text:rlDriverValidateHdr)
                  000116a6    00000002     --HOLE-- [fill = 0]
                  000116a8    00000040     rtsv7R4_T_le_v3D16_eabi.lib : strtok.obj (.text)
                  000116e8    00000008     --HOLE-- [fill = 0]
                  000116f0    00000040     sysbios.aer4ft : BIOS.obj (.text:ti_sysbios_timers_rti_Timer_stop__E)
                  00011730    0000003e     libcrc_xwr68xx.aer4f : crc.oer4f (.text:CSL_FINSR)
                  0001176e    0000003e     libdma_xwr68xx.aer4f : dma.oer4f (.text:CSL_FINSR)
                  000117ac    0000003e     libgpio_xwr68xx.aer4f : gpio.oer4f (.text:CSL_FINSR)
                  000117ea    0000003e     libpinmux_xwr68xx.aer4f : pinmux.oer4f (.text:CSL_FINSR)
                  00011828    0000003e     libsoc_xwr68xx.aer4f : soc.oer4f (.text:CSL_FINSR)
                  00011866    0000003e                          : soc_xwr68xx.oer4f (.text:CSL_FINSR)
                  000118a4    0000003e                          : soc_xwr68xx_mss.oer4f (.text:CSL_FINSR)
                  000118e2    0000003e     libuart_xwr68xx.aer4f : uartsci.oer4f (.text:CSL_FINSR)
                  00011920    0000003e     libmmwave_xwr68xx.aer4f : mmwave.oer4f (.text:MMWave_decodeError)
                  0001195e    0000003e     libuart_xwr68xx.aer4f : uartsci.oer4f (.text:UartSci_close)
                  0001199c    0000003c     cli_mmwave.oer4f (.text:CLI_MMWaveFlushCfg)
                  000119d8    0000003c     libmailbox_xwr68xx.aer4f : mailbox.oer4f (.text:Mailbox_writeReset)
                  00011a14    0000003c     libsoc_xwr68xx.aer4f : soc.oer4f (.text:SOC_unhaltBSS)
                  00011a50    0000003c     libmmwavelink_xwr68xx.aer4f : rl_controller.oer4f (.text:rlGetSubBlock)
                  00011a8c    0000003c     sysbios.aer4ft : vim_Hwi_asm.obj (.text:ti_sysbios_family_arm_v7r_vim_Hwi_init__I)
                  00011ac8    00000008     --HOLE-- [fill = 0]
                  00011ad0    0000003c                    : BIOS.obj (.text:ti_sysbios_hal_Hwi_checkStack)
                  00011b0c    00000004     --HOLE-- [fill = 0]
                  00011b10    0000003c                    : BIOS.obj (.text:ti_sysbios_heaps_HeapMem_init__I)
                  00011b4c    00000004     --HOLE-- [fill = 0]
                  00011b50    0000003c                    : BIOS.obj (.text:ti_sysbios_timers_rti_Timer_setPeriod__E)
                  00011b8c    0000003a     libosal_xwr68xx.aer4f : HwiP_tirtos.oer4f (.text:HwiP_delete)
                  00011bc6    0000003a     mss_main.oer4f (.text:maxCheck)
                  00011c00    00000038     cli_mmwave.oer4f (.text:CLI_MMWaveExtensionInit)
                  00011c38    00000038     libuart_xwr68xx.aer4f : UART.oer4f (.text:UART_init)
                  00011c70    00000036     mss_main.oer4f (.text:logEnergy)
                  00011ca6    00000036     libmmwavelink_xwr68xx.aer4f : rl_controller.oer4f (.text:rlAppendSubBlock)
                  00011cdc    00000036     rtsv7R4_T_le_v3D16_eabi.lib : strncpy.obj (.text)
                  00011d12    00000002     --HOLE-- [fill = 0]
                  00011d14    00000034     libmmwave_xwr68xx.aer4f : mmwave_link.oer4f (.text:MMWave_mboxWrite)
                  00011d48    00000034     mss_main.oer4f (.text:MmwDemo_installDss2MssExceptionSignallingISR)
                  00011d7c    00000034     libsoc_xwr68xx.aer4f : soc_xwr68xx.oer4f (.text:SOC_setMMWaveDSSLinkState)
                  00011db0    00000034                          : soc_xwr68xx.oer4f (.text:SOC_setMMWaveMSSLinkState)
                  00011de4    00000034     libuart_xwr68xx.aer4f : UART.oer4f (.text:UART_open)
                  00011e18    00000034     mss_mmw_per4ft.oer4ft (.text:ti_sysbios_knl_Semaphore_create)
                  00011e4c    00000032     libcrc_xwr68xx.aer4f : crc.oer4f (.text:CRC_getCRCDataSelectBitValue)
                  00011e7e    00000002     --HOLE-- [fill = 0]
                  00011e80    00000032                          : crc.oer4f (.text:CRC_getCRCTypeBitValue)
                  00011eb2    0000000e     libosal_xwr68xx.aer4f : SemaphoreP_tirtos.oer4f (.text:SemaphoreP_delete)
                  00011ec0    00000032     sysbios.aer4ft : BIOS.obj (.text:ti_sysbios_hal_Hwi_initStack)
                  00011ef2    00000030     libmmwave_xwr68xx.aer4f : mmwave_listlib.oer4f (.text:MMWave_listRemoveNode)
                  00011f22    00000002     --HOLE-- [fill = 0]
                  00011f24    00000030     libsoc_xwr68xx.aer4f : soc.oer4f (.text:SOC_getDevicePartNumber)
                  00011f54    00000030     libmmwavelink_xwr68xx.aer4f : rl_sensor.oer4f (.text:rlSensorStart)
                  00011f84    00000030     mss_mmw_per4ft.oer4ft (.text:ti_sysbios_BIOS_atExitFunc__I)
                  00011fb4    00000030     mss_mmw_per4ft.oer4ft (.text:ti_sysbios_BIOS_startFunc__I)
                  00011fe4    0000000c     --HOLE-- [fill = 0]
                  00011ff0    00000030     sysbios.aer4ft : BIOS.obj (.text:ti_sysbios_family_arm_TaskSupport_start__E)
                  00012020    00000030     mss_mmw_per4ft.oer4ft (.text:ti_sysbios_gates_GateHwi_Object__create__S)
                  00012050    00000030     mss_mmw_per4ft.oer4ft (.text:ti_sysbios_gates_GateMutex_Object__create__S)
                  00012080    00000030     mss_mmw_per4ft.oer4ft (.text:ti_sysbios_heaps_HeapMem_Object__create__S)
                  000120b0    00000030     sysbios.aer4ft : BIOS.obj (.text:ti_sysbios_heaps_HeapMem_free__E)
                  000120e0    00000030     mss_mmw_per4ft.oer4ft (.text:ti_sysbios_knl_Event_create)
                  00012110    00000030     mss_mmw_per4ft.oer4ft (.text:ti_sysbios_knl_Semaphore_construct)
                  00012140    0000002f     sysbios.aer4ft : BIOS.obj (.text:xdc_runtime_Text_printVisFxn__I)
                  0001216f    00000001     --HOLE-- [fill = 0]
                  00012170    0000002e                    : BIOS.obj (.text:ti_sysbios_knl_Event_pendTimeout__I)
                  0001219e    00000002     --HOLE-- [fill = 0]
                  000121a0    0000002e                    : BIOS.obj (.text:ti_sysbios_knl_Semaphore_pendTimeout__I)
                  000121ce    0000002e     mss_mmw_per4ft.oer4ft (.text:ti_sysbios_rts_MemAlloc_alloc)
                  000121fc    0000002c     libgpio_xwr68xx.aer4f : gpio.oer4f (.text:GPIO_HighPriorityISR)
                  00012228    0000002c                           : gpio.oer4f (.text:GPIO_LowPriorityISR)
                  00012254    0000002c     libmmwave_xwr68xx.aer4f : mmwave_osal.oer4f (.text:MMWave_osalMutexCreate)
                  00012280    0000002c                             : mmwave_osal.oer4f (.text:MMWave_osalSemCreate)
                  000122ac    0000002c     libsoc_xwr68xx.aer4f : soc_xwr68xx_mss.oer4f (.text:SOC_waitBSSPowerUp)
                  000122d8    0000002c     utils.oer4f (.text:compute_innerprod)
                  00012304    0000002c     utils.oer4f (.text:relu_activation)
                  00012330    0000002c     libmmwavelink_xwr68xx.aer4f : rl_device.oer4f (.text:rlDeviceGetMssVersion)
                  0001235c    0000002c                                 : rl_sensor.oer4f (.text:rlSensorStop)
                  00012388    0000002c     rtsv7R4_T_le_v3D16_eabi.lib : e_sqrt.obj (.text)
                  000123b4    0000002c                                 : unlink.obj (.text)
                  000123e0    0000002c     mss_mmw_per4ft.oer4ft (.text:ti_sysbios_knl_Clock_doTick__I)
                  0001240c    0000002c     mss_mmw_per4ft.oer4ft (.text:ti_sysbios_knl_Queue_construct)
                  00012438    00000008     --HOLE-- [fill = 0]
                  00012440    0000002c     sysbios.aer4ft : BIOS.obj (.text:ti_sysbios_knl_Swi_Module_startup__E)
                  0001246c    00000004     --HOLE-- [fill = 0]
                  00012470    0000002c                    : BIOS.obj (.text:ti_sysbios_timers_rti_Timer_periodicStub__E)
                  0001249c    0000002a     libsoc_xwr68xx.aer4f : soc.oer4f (.text:SOC_SystemISR)
                  000124c6    0000002a     libmmwavelink_xwr68xx.aer4f : rl_device.oer4f (.text:rlDeviceGetMmWaveLinkVersion)
                  000124f0    0000002a     rtsv7R4_T_le_v3D16_eabi.lib : strspn.obj (.text)
                  0001251a    00000002     --HOLE-- [fill = 0]
                  0001251c    00000028     libmailbox_xwr68xx.aer4f : mailbox.oer4f (.text:Mailbox_Config_init)
                  00012544    00000028     libuart_xwr68xx.aer4f : uartsci_dma.oer4f (.text:UartSci_RxDMACallbackFxn)
                  0001256c    00000028                           : uartsci_dma.oer4f (.text:UartSci_TxDMACallbackFxn)
                  00012594    00000028     mss_cli.oer4f (.text:log2Approx)
                  000125bc    00000028     libmmwavelink_xwr68xx.aer4f : rl_driver.oer4f (.text:rlDriverConstructInMsg)
                  000125e4    00000028     rtsv7R4_T_le_v3D16_eabi.lib : lseek.obj (.text)
                  0001260c    00000028                                 : write.obj (.text)
                  00012634    0000000c     --HOLE-- [fill = 0]
                  00012640    00000028     sysbios.aer4ft : BIOS.obj (.text:ti_sysbios_knl_Idle_run__E)
                  00012668    00000008     --HOLE-- [fill = 0]
                  00012670    00000028                    : BIOS.obj (.text:xdc_runtime_SysStd_abort__E)
                  00012698    00000008     --HOLE-- [fill = 0]
                  000126a0    00000028                    : BIOS.obj (.text:xdc_runtime_System_aprintf_va__F)
                  000126c8    00000026     libmmwavelink_xwr68xx.aer4f : rl_sensor.oer4f (.text:rlRfInitCalibConfig)
                  000126ee    00000026                                 : rl_sensor.oer4f (.text:rlRfRunTimeCalibConfig)
                  00012714    00000026                                 : rl_sensor.oer4f (.text:rlRfSetDeviceCfg)
                  0001273a    00000026                                 : rl_sensor.oer4f (.text:rlSetAdcOutConfig)
                  00012760    00000026                                 : rl_sensor.oer4f (.text:rlSetBpmCommonConfig)
                  00012786    00000026                                 : rl_sensor.oer4f (.text:rlSetChannelConfig)
                  000127ac    00000026                                 : rl_sensor.oer4f (.text:rlSetContModeConfig)
                  000127d2    00000026     rtsv7R4_T_le_v3D16_eabi.lib : memcmp.obj (.text)
                  000127f8    00000008     --HOLE-- [fill = 0]
                  00012800    00000026     sysbios.aer4ft : BIOS.obj (.text:xdc_runtime_System_printf_va__F)
                  00012826    00000024     libcrc_xwr68xx.aer4f : crc.oer4f (.text:CRC_isTransactionIdValid)
                  0001284a    00000002     --HOLE-- [fill = 0]
                  0001284c    00000024     libgpio_xwr68xx.aer4f : gpio.oer4f (.text:GPIO_processInterrupt)
                  00012870    00000024     mss_main.oer4f (.text:MmwDemo_notifySensorStart)
                  00012894    00000024     libsoc_xwr68xx.aer4f : soc_xwr68xx.oer4f (.text:SOC_isMMWaveDSSOperational)
                  000128b8    00000024                          : soc_xwr68xx.oer4f (.text:SOC_isMMWaveMSSOperational)
                  000128dc    00000024     libmmwavelink_xwr68xx.aer4f : rl_device.oer4f (.text:rlDeviceSetHsiClk)
                  00012900    00000024                                 : rl_sensor.oer4f (.text:rlEnableContMode)
                  00012924    00000024                                 : rl_sensor.oer4f (.text:rlRfSetCalMonTimeUnitConfig)
                  00012948    00000024                                 : rl_sensor.oer4f (.text:rlSetLowPowerModeConfig)
                  0001296c    00000024     mss_mmw_per4ft.oer4ft (.text:ti_sysbios_BIOS_errorRaiseHook__I)
                  00012990    00000024     mss_mmw_per4ft.oer4ft (.text:ti_sysbios_BIOS_registerRTSLock__I)
                  000129b4    00000024     mss_mmw_per4ft.oer4ft (.text:ti_sysbios_BIOS_removeRTSLock__I)
                  000129d8    00000024     mss_mmw_per4ft.oer4ft (.text:ti_sysbios_gates_GateMutex_Object__delete__S)
                  000129fc    00000004     --HOLE-- [fill = 0]
                  00012a00    00000024     sysbios.aer4ft : BIOS.obj (.text:ti_sysbios_knl_Clock_Module_startup__E)
                  00012a24    00000024     mss_mmw_per4ft.oer4ft (.text:ti_sysbios_knl_Semaphore_Object__delete__S)
                  00012a48    00000008     --HOLE-- [fill = 0]
                  00012a50    00000024     sysbios.aer4ft : BIOS.obj (.text:ti_sysbios_knl_Task_restoreHwi__E)
                  00012a74    00000022     mss_cli.oer4f (.text:MmwDemo_CLISensorStart)
                  00012a96    00000022     libuart_xwr68xx.aer4f : uartsci.oer4f (.text:UartSci_disableRxDMA)
                  00012ab8    00000022                           : uartsci.oer4f (.text:UartSci_enableRxDMA)
                  00012ada    00000022     rtsv7R4_T_le_v3D16_eabi.lib : strcspn.obj (.text)
                  00012afc    00000020     libesm_xwr68xx.aer4f : esm.oer4f (.text:ESM_lowpriority_IRQ)
                  00012b1c    00000020     libmmwave_xwr68xx.aer4f : mmwave_listlib.oer4f (.text:MMWave_listCat)
                  00012b3c    00000020     mss_main.oer4f (.text:MmwDemo_mboxWrite)
                  00012b5c    00000020     libpinmux_xwr68xx.aer4f : pinmux.oer4f (.text:Pinmux_Unlock)
                  00012b7c    00000020     libmmwavelink_xwr68xx.aer4f : rl_sensor.oer4f (.text:rlRfInit)
                  00012b9c    00000020     rtsv7R4_T_le_v3D16_eabi.lib : memchr.obj (.text)
                  00012bbc    00000004     --HOLE-- [fill = 0]
                  00012bc0    00000020     sysbios.aer4ft : BIOS.obj (.text:ti_sysbios_family_arm_v7a_Pmu_Module_startup__E)
                  00012be0    00000020     mss_mmw_per4ft.oer4ft (.text:ti_sysbios_family_arm_v7r_vim_Hwi_Object__delete__S)
                  00012c00    00000020     sysbios.aer4ft : BIOS.obj (.text:ti_sysbios_family_arm_v7r_vim_Hwi_disableInterrupt__E)
                  00012c20    00000020                    : BIOS.obj (.text:ti_sysbios_family_arm_v7r_vim_Hwi_enableInterrupt__E)
                  00012c40    00000020     mss_mmw_per4ft.oer4ft (.text:ti_sysbios_gates_GateHwi_Object__delete__S)
                  00012c60    00000020     mss_mmw_per4ft.oer4ft (.text:ti_sysbios_heaps_HeapMem_Object__delete__S)
                  00012c80    00000020     mss_mmw_per4ft.oer4ft (.text:ti_sysbios_knl_Semaphore_destruct)
                  00012ca0    0000001e     libmmwave_xwr68xx.aer4f : mmwave_fullcfg.oer4f (.text:MMWave_internalDelChirp)
                  00012cbe    0000001e     libsoc_xwr68xx.aer4f : soc_xwr68xx_mss.oer4f (.text:SOC_getOutAddr_LUTType)
                  00012cdc    0000001c     libcrc_xwr68xx.aer4f : crc.oer4f (.text:CRC_releaseTransactionId)
                  00012cf8    0000001c     libdma_xwr68xx.aer4f : dma.oer4f (.text:CSL_FEXTR)
                  00012d14    0000001c     libmmwave_xwr68xx.aer4f : mmwave.oer4f (.text:CSL_FEXTR)
                  00012d30    0000001c     libsoc_xwr68xx.aer4f : soc.oer4f (.text:CSL_FEXTR)
                  00012d4c    0000001c                          : soc_xwr68xx.oer4f (.text:CSL_FEXTR)
                  00012d68    0000001c                          : soc_xwr68xx_mss.oer4f (.text:CSL_FEXTR)
                  00012d84    0000001c     libuart_xwr68xx.aer4f : uartsci.oer4f (.text:CSL_FEXTR)
                  00012da0    0000001c     libmmwave_xwr68xx.aer4f : mmwave_listlib.oer4f (.text:MMWave_listRemove)
                  00012dbc    0000001c     mss_main.oer4f (.text:MmwDemo_mssMmwaveStartCallbackFxn)
                  00012dd8    0000001c     mss_main.oer4f (.text:MmwDemo_notifySensorStop)
                  00012df4    0000001c     libsoc_xwr68xx.aer4f : soc_xwr68xx_mss.oer4f (.text:SOC_getInAddr_LUTType)
                  00012e10    0000001c     sysbios.aer4ft : arm_TaskSupport_asm.obj (.text:_ti_sysbios_family_arm_TaskSupport_glue)
                  00012e2c    0000001c                    : arm_TaskSupport_asm.obj (.text:_ti_sysbios_family_arm_TaskSupport_swap__E)
                  00012e48    0000001c     rtsv7R4_T_le_v3D16_eabi.lib : memccpy.obj (.text)
                  00012e64    0000001c     mss_mmw_per4ft.oer4ft (.text:ti_sysbios_BIOS_rtsLock__I)
                  00012e80    0000001c     sysbios.aer4ft : BIOS.obj (.text:ti_sysbios_family_arm_v7r_vim_Hwi_clearInterrupt__E)
                  00012e9c    00000004     --HOLE-- [fill = 0]
                  00012ea0    0000001c                    : BIOS.obj (.text:ti_sysbios_gates_GateMutex_Instance_init__E)
                  00012ebc    00000004     --HOLE-- [fill = 0]
                  00012ec0    0000001c                    : BIOS.obj (.text:ti_sysbios_gates_GateMutex_leave__E)
                  00012edc    0000001c     mss_mmw_per4ft.oer4ft (.text:ti_sysbios_knl_Queue_destruct)
                  00012ef8    0000001a     libmmwave_xwr68xx.aer4f : mmwave_dualcore.oer4f (.text:MMWave_deviceSyncFxn)
                  00012f12    0000001a                             : mmwave.oer4f (.text:MMWave_encodeError)
                  00012f2c    0000001a                             : mmwave_listlib.oer4f (.text:MMWave_listAdd)
                  00012f46    0000001a     mss_mmw_per4ft.oer4ft (.text:free)
                  00012f60    0000001a     libmmwavelink_xwr68xx.aer4f : rl_sensor.oer4f (.text:rlGetRfDieId)
                  00012f7a    0000001a     rtsv7R4_T_le_v3D16_eabi.lib : s_copysign.obj (.text)
                  00012f94    0000001a     mss_mmw_per4ft.oer4ft (.text:ti_sysbios_gates_GateHwi_Handle__label__S)
                  00012fae    0000001a     mss_mmw_per4ft.oer4ft (.text:ti_sysbios_gates_GateMutex_Handle__label__S)
                  00012fc8    0000001a     mss_mmw_per4ft.oer4ft (.text:ti_sysbios_heaps_HeapMem_Handle__label__S)
                  00012fe2    0000001a     mss_mmw_per4ft.oer4ft (.text:xdc_runtime_System_aprintf__E)
                  00012ffc    0000001a     mss_mmw_per4ft.oer4ft (.text:xdc_runtime_System_printf__E)
                  00013016    00000002     --HOLE-- [fill = 0]
                  00013018    00000018     cli_mmwave.oer4f (.text:CLI_getMMWaveExtensionOpenConfig)
                  00013030    00000018     libmmwave_xwr68xx.aer4f : mmwave_osal.oer4f (.text:MMWave_osalMutexLock)
                  00013048    00000018                             : mmwave_osal.oer4f (.text:MMWave_osalSemWait)
                  00013060    00000018     libmailbox_xwr68xx.aer4f : mailbox.oer4f (.text:Mailbox_boxEmptyISRBss)
                  00013078    00000018                              : mailbox.oer4f (.text:Mailbox_boxEmptyISRMssDss)
                  00013090    00000018                              : mailbox.oer4f (.text:Mailbox_boxFullISRBss)
                  000130a8    00000018     libmmwavelink_xwr68xx.aer4f : rl_device.oer4f (.text:rlDeviceGetRfVersion)
                  000130c0    00000018                                 : rl_driver.oer4f (.text:rlDriverCalCRC)
                  000130d8    00000018                                 : rl_driver.oer4f (.text:rlDriverFillPayload)
                  000130f0    00000018                                 : rl_driver.oer4f (.text:rlDriverIsDeviceMapValid)
                  00013108    00000018     rtsv7R4_T_le_v3D16_eabi.lib : args_main.obj (.text)
                  00013120    00000018                                 : strcmp.obj (.text)
                  00013138    00000018     mss_mmw_per4ft.oer4ft (.text:ti_sysbios_BIOS_rtsUnlock__I)
                  00013150    00000018     sysbios.aer4ft : BIOS.obj (.text:ti_sysbios_family_arm_v7a_Pmu_initCounters__I)
                  00013168    00000018     mss_mmw_per4ft.oer4ft (.text:ti_sysbios_family_arm_v7r_vim_Hwi_Module__startupDone__F)
                  00013180    00000018     mss_mmw_per4ft.oer4ft (.text:ti_sysbios_family_arm_v7r_vim_Hwi_Params__init__S)
                  00013198    00000018     mss_mmw_per4ft.oer4ft (.text:ti_sysbios_knl_Semaphore_Params__init__S)
                  000131b0    00000018     mss_mmw_per4ft.oer4ft (.text:ti_sysbios_knl_Task_Params__init__S)
                  000131c8    00000008     --HOLE-- [fill = 0]
                  000131d0    00000018     sysbios.aer4ft : BIOS.obj (.text:ti_sysbios_knl_Task_enter__I)
                  000131e8    00000018     mss_mmw_per4ft.oer4ft (.text:ti_sysbios_timers_rti_Timer_Module__startupDone__F)
                  00013200    00000018     sysbios.aer4ft : BIOS.obj (.text:xdc_runtime_Error_init__E)
                  00013218    00000016     rtsv7R4_T_le_v3D16_eabi.lib : strchr.obj (.text)
                  0001322e    00000016                                 : strlen.obj (.text)
                  00013244    00000016     mss_mmw_per4ft.oer4ft (.text:ti_sysbios_BIOS_exitFunc__I)
                  0001325a    00000006     --HOLE-- [fill = 0]
                  00013260    00000016     sysbios.aer4ft : BIOS.obj (.text:ti_sysbios_knl_Idle_loop__E)
                  00013276    0000000a     --HOLE-- [fill = 0]
                  00013280    00000016                    : BIOS.obj (.text:ti_sysbios_knl_Task_sleepTimeout__I)
                  00013296    00000014     libosal_xwr68xx.aer4f : HwiP_tirtos.oer4f (.text:HwiP_Params_init)
                  000132aa    00000014     libmmwave_xwr68xx.aer4f : mmwave_fullcfg.oer4f (.text:MMWave_internalDelBpmChirp)
                  000132be    00000014                             : mmwave_fullcfg.oer4f (.text:MMWave_internalDelProfile)
                  000132d2    00000014                             : mmwave_osal.oer4f (.text:MMWave_osalMutexDelete)
                  000132e6    00000014                             : mmwave_osal.oer4f (.text:MMWave_osalSemDelete)
                  000132fa    00000002     --HOLE-- [fill = 0]
                  000132fc    00000014     mss_main.oer4f (.text:MmwDemo_mssMmwaveConfigCallbackFxn)
                  00013310    00000014     mss_main.oer4f (.text:MmwDemo_mssMmwaveStopCallbackFxn)
                  00013324    00000014     libpinmux_xwr68xx.aer4f : pinmux.oer4f (.text:Pinmux_Lock)
                  00013338    00000014     libuart_xwr68xx.aer4f : uartsci.oer4f (.text:UartSci_disableTxDMA)
                  0001334c    00000014                           : uartsci.oer4f (.text:UartSci_enableTxDMA)
                  00013360    00000014     libosal_xwr68xx.aer4f : DebugP_tirtos.oer4f (.text:_DebugP_assert)
                  00013374    00000014     mss_main.oer4f (.text:gestureInferenceCircle)
                  00013388    00000014     libmmwavelink_xwr68xx.aer4f : rl_controller.oer4f (.text:rlAppendDummy)
                  0001339c    00000014     rtsv7R4_T_le_v3D16_eabi.lib : _lock.obj (.text)
                  000133b0    00000014                                 : strcpy.obj (.text)
                  000133c4    00000014     mss_mmw_per4ft.oer4ft (.text:ti_sysbios_heaps_HeapMem_Object__get__S)
                  000133d8    00000008     --HOLE-- [fill = 0]
                  000133e0    00000014     sysbios.aer4ft : BIOS.obj (.text:ti_sysbios_knl_Event_Instance_init__E)
                  000133f4    00000014     mss_mmw_per4ft.oer4ft (.text:ti_sysbios_knl_Swi_Object__get__S)
                  00013408    00000012     libcrc_xwr68xx.aer4f : crc.oer4f (.text:CRC_initConfigParams)
                  0001341a    00000012     libmmwave_xwr68xx.aer4f : mmwave_dualcore.oer4f (.text:MMWave_deviceGetDeviceInfo)
                  0001342c    00000012     libosal_xwr68xx.aer4f : MemoryP_tirtos.oer4f (.text:MemoryP_ctrlAlloc)
                  0001343e    00000012                           : SemaphoreP_tirtos.oer4f (.text:SemaphoreP_pend)
                  00013450    00000012     sysbios.aer4ft : BIOS.obj (.text:ti_sysbios_hal_Hwi_Module_startup__E)
                  00013462    00000012     mss_mmw_per4ft.oer4ft (.text:xdc_runtime_Startup_exec__I)
                  00013474    00000010     libcrc_xwr68xx.aer4f : crc.oer4f (.text:CRC_getSignatureRegister)
                  00013484    00000010     mss_main.oer4f (.text:MmwDemo_switchPressFxn)
                  00013494    0000000c     --HOLE-- [fill = 0]
                  000134a0    00000010     sysbios.aer4ft : BIOS.obj (.text:ti_sysbios_BIOS_setThreadType__E)
                  000134b0    00000010                    : BIOS.obj (.text:ti_sysbios_BIOS_start__E)
                  000134c0    00000010                    : BIOS.obj (.text:ti_sysbios_family_arm_v7a_Pmu_disableInterruptI__E)
                  000134d0    00000010                    : BIOS.obj (.text:ti_sysbios_family_arm_v7a_Pmu_enableInterruptI__E)
                  000134e0    00000010                    : BIOS.obj (.text:ti_sysbios_family_arm_v7a_Pmu_getNumCounters__E)
                  000134f0    00000010                    : BIOS.obj (.text:ti_sysbios_family_arm_v7a_Pmu_startCounterI__E)
                  00013500    00000010                    : BIOS.obj (.text:ti_sysbios_family_arm_v7a_Pmu_stopCounterI__E)
                  00013510    00000010                    : BIOS.obj (.text:ti_sysbios_gates_GateMutex_Instance_finalize__E)
                  00013520    00000010     mss_mmw_per4ft.oer4ft (.text:ti_sysbios_heaps_HeapBuf_Object__get__S)
                  00013530    00000010     sysbios.aer4ft : BIOS.obj (.text:ti_sysbios_knl_Semaphore_Instance_finalize__E)
                  00013540    00000010                    : BIOS.obj (.text:ti_sysbios_knl_Swi_disable__E)
                  00013550    00000010     mss_mmw_per4ft.oer4ft (.text:ti_sysbios_knl_Task_Object__get__S)
                  00013560    00000010     sysbios.aer4ft : BIOS.obj (.text:ti_sysbios_knl_Task_disable__E)
                  00013570    00000010                    : BIOS.obj (.text:xdc_runtime_Memory_free__E)
                  00013580    00000010     mss_mmw_per4ft.oer4ft (.text:xdc_runtime_Text_visitRope__I)
                  00013590    0000000e     rtsv7R4_T_le_v3D16_eabi.lib : copy_decompress_none.obj (.text:decompress:none)
                  0001359e    00000002     --HOLE-- [fill = 0]
                  000135a0    0000000e     sysbios.aer4ft : BIOS.obj (.text:ti_sysbios_knl_Queue_empty__E)
                  000135ae    00000002     --HOLE-- [fill = 0]
                  000135b0    0000000c                    : BIOS.obj (.text:ti_sysbios_family_arm_TaskSupport_checkStack__E)
                  000135bc    00000004     --HOLE-- [fill = 0]
                  000135c0    0000000c                    : BIOS.obj (.text:ti_sysbios_family_arm_TaskSupport_getStackAlignment__E)
                  000135cc    00000004     --HOLE-- [fill = 0]
                  000135d0    0000000c                    : BIOS.obj (.text:ti_sysbios_family_arm_exc_Exception_Module_startup__E)
                  000135dc    00000004     --HOLE-- [fill = 0]
                  000135e0    0000000c                    : BIOS.obj (.text:ti_sysbios_family_arm_v7r_vim_Hwi_switchFromBootStack__E)
                  000135ec    00000004     --HOLE-- [fill = 0]
                  000135f0    0000000c                    : BIOS.obj (.text:xdc_runtime_Startup_rtsDone__E)
                  000135fc    00000004     --HOLE-- [fill = 0]
                  00013600    0000000c                    : BIOS.obj (.text:xdc_runtime_SysStd_exit__E)
                  0001360c    00000004     --HOLE-- [fill = 0]
                  00013610    00000008                    : BIOS.obj (.text:ti_sysbios_gates_GateHwi_enter__E)
                  00013618    00000008     --HOLE-- [fill = 0]
                  00013620    00000006                    : BIOS.obj (.text:ti_sysbios_family_arm_v7r_vim_Hwi_startup__E)
                  00013626    0000000a     --HOLE-- [fill = 0]
                  00013630    00000006                    : BIOS.obj (.text:ti_sysbios_gates_GateHwi_leave__E)
                  00013636    0000000a     --HOLE-- [fill = 0]
                  00013640    00000006                    : BIOS.obj (.text:ti_sysbios_heaps_HeapMem_isBlocking__E)
                  00013646    0000000a     --HOLE-- [fill = 0]
                  00013650    00000006                    : BIOS.obj (.text:ti_sysbios_knl_Queue_Instance_init__E)
                  00013656    0000000a     --HOLE-- [fill = 0]
                  00013660    00000006                    : BIOS.obj (.text:xdc_runtime_System_Module_startup__E)
                  00013666    0000000a     --HOLE-- [fill = 0]
                  00013670    00000004                    : BIOS.obj (.text:ti_sysbios_gates_GateHwi_query__E)
                  00013674    0000000c     --HOLE-- [fill = 0]
                  00013680    00000004                    : BIOS.obj (.text:ti_sysbios_gates_GateMutex_query__E)
                  00013684    0000000c     --HOLE-- [fill = 0]
                  00013690    00000004                    : BIOS.obj (.text:ti_sysbios_knl_Task_startup__E)
                  00013694    0000000c     --HOLE-- [fill = 0]
                  000136a0    00000004                    : BIOS.obj (.text:ti_sysbios_timers_rti_Timer_getMaxTicks__E)
                  000136a4    0000000c     --HOLE-- [fill = 0]
                  000136b0    00000004                    : BIOS.obj (.text:xdc_runtime_SysStd_putch__E)
                  000136b4    0000000c     --HOLE-- [fill = 0]
                  000136c0    00000004                    : BIOS.obj (.text:xdc_runtime_SysStd_ready__E)
                  000136c4    0000000c     --HOLE-- [fill = 0]
                  000136d0    00000002                    : BIOS.obj (.text:ti_sysbios_BIOS_linkedWithIncorrectBootLibrary__E)
                  000136d2    0000000e     --HOLE-- [fill = 0]
                  000136e0    00000002                    : BIOS.obj (.text:ti_sysbios_gates_GateHwi_Instance_init__E)

.const     0    000136e8    00002e76     
                  000136e8    00001b6f     mss_mmw_per4ft.oer4ft (.const:xdc_runtime_Text_charTab__A)
                  00015257    00000001     --HOLE-- [fill = 0]
                  00015258    0000034e     cli.oer4f (.const:.string)
                  000155a6    00000002     mss_mmw_per4ft.oer4ft (.const:ti_sysbios_family_arm_exc_Exception_Module__id__C)
                  000155a8    000002b8     libmmwavelink_xwr68xx.aer4f : rl_sensor.oer4f (.const:$O1$$)
                  00015860    000001de     mss_cli.oer4f (.const:.string)
                  00015a3e    00000101     rtsv7R4_T_le_v3D16_eabi.lib : ctype.obj (.const:.string:_ctypes_)
                  00015b3f    00000001     --HOLE-- [fill = 0]
                  00015b40    000000d8     mss_mmw_per4ft.oer4ft (.const:xdc_runtime_Text_nodeTab__A)
                  00015c18    000000a0     cli_mmwave.oer4f (.const:.string)
                  00015cb8    00000098     rtsv7R4_T_le_v3D16_eabi.lib : strtod.obj (.const:$O1$$)
                  00015d50    00000080     mss_mmw_per4ft.oer4ft (.const:ti_sysbios_family_arm_v7r_vim_Hwi_channelMap__A)
                  00015dd0    00000078     libmmwavelink_xwr68xx.aer4f : rl_driver.oer4f (.const:$O2$$)
                  00015e48    00000058     mss_mmw_per4ft.oer4ft (.const:.string)
                  00015ea0    00000044     mss_mmw_per4ft.oer4ft (.const:ti_sysbios_knl_Task_Object__PARAMS__C)
                  00015ee4    0000003c     libuart_xwr68xx.aer4f : UART.oer4f (.const:UART_defaultParams)
                  00015f20    00000030     rtsv7R4_T_le_v3D16_eabi.lib : e_exp.obj (.const:$O1$$)
                  00015f50    00000030     mss_mmw_per4ft.oer4ft (.const:ti_sysbios_family_arm_v7r_vim_Hwi_Object__PARAMS__C)
                  00015f80    0000002c     mss_mmw_per4ft.oer4ft (.const:xdc_runtime_Startup_sfxnTab__A)
                  00015fac    00000028     mss_mmw_per4ft.oer4ft (.const:ti_sysbios_heaps_HeapMem_Module__FXNS__C)
                  00015fd4    00000024     libmailbox_xwr68xx.aer4f : mailbox.oer4f (.const:Mailbox_defaultCfg)
                  00015ff8    00000024     mss_mmw_per4ft.oer4ft (.const:ti_sysbios_gates_GateHwi_Module__FXNS__C)
                  0001601c    00000024     mss_mmw_per4ft.oer4ft (.const:ti_sysbios_gates_GateMutex_Module__FXNS__C)
                  00016040    00000024     mss_mmw_per4ft.oer4ft (.const:ti_sysbios_heaps_HeapMem_Object__PARAMS__C)
                  00016064    00000024     mss_mmw_per4ft.oer4ft (.const:ti_sysbios_knl_Semaphore_Object__PARAMS__C)
                  00016088    00000020     cli_mmwave.oer4f (.const:$P$T0$1)
                  000160a8    00000020     mss_mmw_per4ft.oer4ft (.const:ti_sysbios_family_arm_v7r_vim_Hwi_Object__DESC__C)
                  000160c8    00000020     mss_mmw_per4ft.oer4ft (.const:ti_sysbios_gates_GateHwi_Object__DESC__C)
                  000160e8    00000020     mss_mmw_per4ft.oer4ft (.const:ti_sysbios_gates_GateMutex_Object__DESC__C)
                  00016108    00000020     mss_mmw_per4ft.oer4ft (.const:ti_sysbios_heaps_HeapMem_Object__DESC__C)
                  00016128    00000020     mss_mmw_per4ft.oer4ft (.const:ti_sysbios_knl_Event_Object__DESC__C)
                  00016148    00000020     mss_mmw_per4ft.oer4ft (.const:ti_sysbios_knl_Queue_Object__DESC__C)
                  00016168    00000020     mss_mmw_per4ft.oer4ft (.const:ti_sysbios_knl_Semaphore_Object__DESC__C)
                  00016188    00000020     mss_mmw_per4ft.oer4ft (.const:ti_sysbios_knl_Task_Object__DESC__C)
                  000161a8    0000001c     mss_main.oer4f (.const:$P$T0$1)
                  000161c4    00000018     mss_mmw_per4ft.oer4ft (.const:ti_sysbios_gates_GateHwi_Object__PARAMS__C)
                  000161dc    00000018     mss_mmw_per4ft.oer4ft (.const:ti_sysbios_gates_GateMutex_Object__PARAMS__C)
                  000161f4    00000018     mss_mmw_per4ft.oer4ft (.const:ti_sysbios_knl_Event_Object__PARAMS__C)
                  0001620c    00000018     mss_mmw_per4ft.oer4ft (.const:ti_sysbios_knl_Queue_Object__PARAMS__C)
                  00016224    00000016     mss_mmw_per4ft.oer4ft (.const:xdc_runtime_Startup_sfxnRts__A)
                  0001623a    00000002     mss_mmw_per4ft.oer4ft (.const:ti_sysbios_family_arm_v7a_Pmu_Module__id__C)
                  0001623c    00000010     mss_mmw_per4ft.oer4ft (.const:ti_sysbios_family_arm_v7r_vim_Hwi_intReqEnaSet__A)
                  0001624c    00000010     mss_mmw_per4ft.oer4ft (.const:ti_sysbios_family_arm_v7r_vim_Hwi_wakeEnaSet__A)
                  0001625c    00000008     mss_mmw_per4ft.oer4ft (.const:ti_sysbios_knl_Idle_funcList__A)
                  00016264    00000008     mss_mmw_per4ft.oer4ft (.const:ti_sysbios_knl_Idle_funcList__C)
                  0001626c    00000008     mss_mmw_per4ft.oer4ft (.const:xdc_runtime_Startup_firstFxns__A)
                  00016274    00000008     mss_mmw_per4ft.oer4ft (.const:xdc_runtime_Startup_firstFxns__C)
                  0001627c    00000008     mss_mmw_per4ft.oer4ft (.const:xdc_runtime_Startup_lastFxns__C)
                  00016284    00000004     cli.oer4f (.const:.string:$P$T0$1)
                  00016288    00000004     mss_mmw_per4ft.oer4ft (.const:ti_sysbios_family_arm_TaskSupport_stackAlignment__C)
                  0001628c    00000004     mss_mmw_per4ft.oer4ft (.const:ti_sysbios_family_arm_exc_Exception_E_dataAbort__C)
                  00016290    00000004     mss_mmw_per4ft.oer4ft (.const:ti_sysbios_family_arm_exc_Exception_E_prefetchAbort__C)
                  00016294    00000004     mss_mmw_per4ft.oer4ft (.const:ti_sysbios_family_arm_exc_Exception_E_swi__C)
                  00016298    00000004     mss_mmw_per4ft.oer4ft (.const:ti_sysbios_family_arm_exc_Exception_E_undefinedInstruction__C)
                  0001629c    00000004     mss_mmw_per4ft.oer4ft (.const:ti_sysbios_family_arm_exc_Exception_excHookFuncs__A)
                  000162a0    00000004     mss_mmw_per4ft.oer4ft (.const:ti_sysbios_family_arm_exc_Exception_excHookFuncs__C)
                  000162a4    00000004     mss_mmw_per4ft.oer4ft (.const:ti_sysbios_family_arm_v7a_Pmu_A_invalidCounterId__C)
                  000162a8    00000004     mss_mmw_per4ft.oer4ft (.const:ti_sysbios_family_arm_v7a_Pmu_Module__diagsEnabled__C)
                  000162ac    00000004     mss_mmw_per4ft.oer4ft (.const:ti_sysbios_family_arm_v7a_Pmu_Module__diagsIncluded__C)
                  000162b0    00000004     mss_mmw_per4ft.oer4ft (.const:ti_sysbios_family_arm_v7a_Pmu_Module__diagsMask__C)
                  000162b4    00000004     mss_mmw_per4ft.oer4ft (.const:ti_sysbios_family_arm_v7r_tms570_Core_E_mismatchedIds__C)
                  000162b8    00000004     mss_mmw_per4ft.oer4ft (.const:ti_sysbios_family_arm_v7r_tms570_Core_id__C)
                  000162bc    00000004     mss_mmw_per4ft.oer4ft (.const:ti_sysbios_family_arm_v7r_vim_Hwi_A_badChannelId__C)
                  000162c0    00000004     mss_mmw_per4ft.oer4ft (.const:ti_sysbios_family_arm_v7r_vim_Hwi_E_alreadyDefined__C)
                  000162c4    00000004     mss_mmw_per4ft.oer4ft (.const:ti_sysbios_family_arm_v7r_vim_Hwi_E_badIntNum__C)
                  000162c8    00000004     mss_mmw_per4ft.oer4ft (.const:ti_sysbios_family_arm_v7r_vim_Hwi_E_phantomInterrupt__C)
                  000162cc    00000004     mss_mmw_per4ft.oer4ft (.const:ti_sysbios_family_arm_v7r_vim_Hwi_E_undefined__C)
                  000162d0    00000004     mss_mmw_per4ft.oer4ft (.const:ti_sysbios_family_arm_v7r_vim_Hwi_E_unsupportedMaskingOption__C)
                  000162d4    00000004     mss_mmw_per4ft.oer4ft (.const:ti_sysbios_family_arm_v7r_vim_Hwi_LD_end__C)
                  000162d8    00000004     mss_mmw_per4ft.oer4ft (.const:ti_sysbios_family_arm_v7r_vim_Hwi_LM_begin__C)
                  000162dc    00000004     mss_mmw_per4ft.oer4ft (.const:ti_sysbios_family_arm_v7r_vim_Hwi_Module__diagsEnabled__C)
                  000162e0    00000004     mss_mmw_per4ft.oer4ft (.const:ti_sysbios_family_arm_v7r_vim_Hwi_Module__diagsIncluded__C)
                  000162e4    00000004     mss_mmw_per4ft.oer4ft (.const:ti_sysbios_family_arm_v7r_vim_Hwi_Module__diagsMask__C)
                  000162e8    00000004     mss_mmw_per4ft.oer4ft (.const:ti_sysbios_family_arm_v7r_vim_Hwi_Module__loggerFxn1__C)
                  000162ec    00000004     mss_mmw_per4ft.oer4ft (.const:ti_sysbios_family_arm_v7r_vim_Hwi_Module__loggerFxn8__C)
                  000162f0    00000004     mss_mmw_per4ft.oer4ft (.const:ti_sysbios_family_arm_v7r_vim_Hwi_Module__loggerObj__C)
                  000162f4    00000004     mss_mmw_per4ft.oer4ft (.const:ti_sysbios_family_arm_v7r_vim_Hwi_NUM_INTERRUPTS__C)
                  000162f8    00000004     mss_mmw_per4ft.oer4ft (.const:ti_sysbios_family_arm_v7r_vim_Hwi_channelMap__C)
                  000162fc    00000004     mss_mmw_per4ft.oer4ft (.const:ti_sysbios_family_arm_v7r_vim_Hwi_intReqEnaSet__C)
                  00016300    00000004     mss_mmw_per4ft.oer4ft (.const:ti_sysbios_family_arm_v7r_vim_Hwi_phantomFunc__C)
                  00016304    00000004     mss_mmw_per4ft.oer4ft (.const:ti_sysbios_family_arm_v7r_vim_Hwi_swiDisable__C)
                  00016308    00000004     mss_mmw_per4ft.oer4ft (.const:ti_sysbios_family_arm_v7r_vim_Hwi_swiRestoreHwi__C)
                  0001630c    00000004     mss_mmw_per4ft.oer4ft (.const:ti_sysbios_family_arm_v7r_vim_Hwi_taskDisable__C)
                  00016310    00000004     mss_mmw_per4ft.oer4ft (.const:ti_sysbios_family_arm_v7r_vim_Hwi_taskRestoreHwi__C)
                  00016314    00000004     mss_mmw_per4ft.oer4ft (.const:ti_sysbios_family_arm_v7r_vim_Hwi_wakeEnaSet__C)
                  00016318    00000004     mss_mmw_per4ft.oer4ft (.const:ti_sysbios_gates_GateMutex_A_badContext__C)
                  0001631c    00000004     mss_mmw_per4ft.oer4ft (.const:ti_sysbios_gates_GateMutex_Instance_State_sem__O)
                  00016320    00000004     mss_mmw_per4ft.oer4ft (.const:ti_sysbios_gates_GateMutex_Module__diagsEnabled__C)
                  00016324    00000004     mss_mmw_per4ft.oer4ft (.const:ti_sysbios_gates_GateMutex_Module__diagsIncluded__C)
                  00016328    00000004     mss_mmw_per4ft.oer4ft (.const:ti_sysbios_gates_GateMutex_Module__diagsMask__C)
                  0001632c    00000004     mss_mmw_per4ft.oer4ft (.const:ti_sysbios_hal_Hwi_E_stackOverflow__C)
                  00016330    00000004     mss_mmw_per4ft.oer4ft (.const:ti_sysbios_heaps_HeapBuf_Instance_State_freeList__O)
                  00016334    00000004     mss_mmw_per4ft.oer4ft (.const:ti_sysbios_heaps_HeapBuf_Object__count__C)
                  00016338    00000004     mss_mmw_per4ft.oer4ft (.const:ti_sysbios_heaps_HeapBuf_numConstructedHeaps__C)
                  0001633c    00000004     mss_mmw_per4ft.oer4ft (.const:ti_sysbios_heaps_HeapMem_A_align__C)
                  00016340    00000004     mss_mmw_per4ft.oer4ft (.const:ti_sysbios_heaps_HeapMem_A_heapSize__C)
                  00016344    00000004     mss_mmw_per4ft.oer4ft (.const:ti_sysbios_heaps_HeapMem_A_invalidFree__C)
                  00016348    00000004     mss_mmw_per4ft.oer4ft (.const:ti_sysbios_heaps_HeapMem_A_zeroBlock__C)
                  0001634c    00000004     mss_mmw_per4ft.oer4ft (.const:ti_sysbios_heaps_HeapMem_E_memory__C)
                  00016350    00000004     mss_mmw_per4ft.oer4ft (.const:ti_sysbios_heaps_HeapMem_Module__diagsEnabled__C)
                  00016354    00000004     mss_mmw_per4ft.oer4ft (.const:ti_sysbios_heaps_HeapMem_Module__diagsIncluded__C)
                  00016358    00000004     mss_mmw_per4ft.oer4ft (.const:ti_sysbios_heaps_HeapMem_Module__diagsMask__C)
                  0001635c    00000004     mss_mmw_per4ft.oer4ft (.const:ti_sysbios_heaps_HeapMem_Module__gateObj__C)
                  00016360    00000004     mss_mmw_per4ft.oer4ft (.const:ti_sysbios_heaps_HeapMem_Object__count__C)
                  00016364    00000004     mss_mmw_per4ft.oer4ft (.const:ti_sysbios_heaps_HeapMem_reqAlign__C)
                  00016368    00000004     mss_mmw_per4ft.oer4ft (.const:ti_sysbios_knl_Clock_LM_begin__C)
                  0001636c    00000004     mss_mmw_per4ft.oer4ft (.const:ti_sysbios_knl_Clock_LM_tick__C)
                  00016370    00000004     mss_mmw_per4ft.oer4ft (.const:ti_sysbios_knl_Clock_LW_delayed__C)
                  00016374    00000004     mss_mmw_per4ft.oer4ft (.const:ti_sysbios_knl_Clock_Module_State_clockQ__O)
                  00016378    00000004     mss_mmw_per4ft.oer4ft (.const:ti_sysbios_knl_Clock_Module__diagsEnabled__C)
                  0001637c    00000004     mss_mmw_per4ft.oer4ft (.const:ti_sysbios_knl_Clock_Module__diagsIncluded__C)
                  00016380    00000004     mss_mmw_per4ft.oer4ft (.const:ti_sysbios_knl_Clock_Module__diagsMask__C)
                  00016384    00000004     mss_mmw_per4ft.oer4ft (.const:ti_sysbios_knl_Clock_Module__loggerFxn1__C)
                  00016388    00000004     mss_mmw_per4ft.oer4ft (.const:ti_sysbios_knl_Clock_Module__loggerFxn2__C)
                  0001638c    00000004     mss_mmw_per4ft.oer4ft (.const:ti_sysbios_knl_Clock_Module__loggerObj__C)
                  00016390    00000004     mss_mmw_per4ft.oer4ft (.const:ti_sysbios_knl_Event_A_badContext__C)
                  00016394    00000004     mss_mmw_per4ft.oer4ft (.const:ti_sysbios_knl_Event_A_eventInUse__C)
                  00016398    00000004     mss_mmw_per4ft.oer4ft (.const:ti_sysbios_knl_Event_A_nullEventId__C)
                  0001639c    00000004     mss_mmw_per4ft.oer4ft (.const:ti_sysbios_knl_Event_A_nullEventMasks__C)
                  000163a0    00000004     mss_mmw_per4ft.oer4ft (.const:ti_sysbios_knl_Event_A_pendTaskDisabled__C)
                  000163a4    00000004     mss_mmw_per4ft.oer4ft (.const:ti_sysbios_knl_Event_Instance_State_pendQ__O)
                  000163a8    00000004     mss_mmw_per4ft.oer4ft (.const:ti_sysbios_knl_Event_LM_pend__C)
                  000163ac    00000004     mss_mmw_per4ft.oer4ft (.const:ti_sysbios_knl_Event_LM_post__C)
                  000163b0    00000004     mss_mmw_per4ft.oer4ft (.const:ti_sysbios_knl_Event_Module__diagsEnabled__C)
                  000163b4    00000004     mss_mmw_per4ft.oer4ft (.const:ti_sysbios_knl_Event_Module__diagsIncluded__C)
                  000163b8    00000004     mss_mmw_per4ft.oer4ft (.const:ti_sysbios_knl_Event_Module__diagsMask__C)
                  000163bc    00000004     mss_mmw_per4ft.oer4ft (.const:ti_sysbios_knl_Event_Module__loggerFxn4__C)
                  000163c0    00000004     mss_mmw_per4ft.oer4ft (.const:ti_sysbios_knl_Event_Module__loggerFxn8__C)
                  000163c4    00000004     mss_mmw_per4ft.oer4ft (.const:ti_sysbios_knl_Event_Module__loggerObj__C)
                  000163c8    00000004     mss_mmw_per4ft.oer4ft (.const:ti_sysbios_knl_Semaphore_A_badContext__C)
                  000163cc    00000004     mss_mmw_per4ft.oer4ft (.const:ti_sysbios_knl_Semaphore_A_noEvents__C)
                  000163d0    00000004     mss_mmw_per4ft.oer4ft (.const:ti_sysbios_knl_Semaphore_A_overflow__C)
                  000163d4    00000004     mss_mmw_per4ft.oer4ft (.const:ti_sysbios_knl_Semaphore_A_pendTaskDisabled__C)
                  000163d8    00000004     mss_mmw_per4ft.oer4ft (.const:ti_sysbios_knl_Semaphore_Instance_State_pendQ__O)
                  000163dc    00000004     mss_mmw_per4ft.oer4ft (.const:ti_sysbios_knl_Semaphore_LM_pend__C)
                  000163e0    00000004     mss_mmw_per4ft.oer4ft (.const:ti_sysbios_knl_Semaphore_LM_post__C)
                  000163e4    00000004     mss_mmw_per4ft.oer4ft (.const:ti_sysbios_knl_Semaphore_Module__diagsEnabled__C)
                  000163e8    00000004     mss_mmw_per4ft.oer4ft (.const:ti_sysbios_knl_Semaphore_Module__diagsIncluded__C)
                  000163ec    00000004     mss_mmw_per4ft.oer4ft (.const:ti_sysbios_knl_Semaphore_Module__diagsMask__C)
                  000163f0    00000004     mss_mmw_per4ft.oer4ft (.const:ti_sysbios_knl_Semaphore_Module__loggerFxn2__C)
                  000163f4    00000004     mss_mmw_per4ft.oer4ft (.const:ti_sysbios_knl_Semaphore_Module__loggerFxn4__C)
                  000163f8    00000004     mss_mmw_per4ft.oer4ft (.const:ti_sysbios_knl_Semaphore_Module__loggerObj__C)
                  000163fc    00000004     mss_mmw_per4ft.oer4ft (.const:ti_sysbios_knl_Swi_LD_end__C)
                  00016400    00000004     mss_mmw_per4ft.oer4ft (.const:ti_sysbios_knl_Swi_LM_begin__C)
                  00016404    00000004     mss_mmw_per4ft.oer4ft (.const:ti_sysbios_knl_Swi_LM_post__C)
                  00016408    00000004     mss_mmw_per4ft.oer4ft (.const:ti_sysbios_knl_Swi_Module__diagsEnabled__C)
                  0001640c    00000004     mss_mmw_per4ft.oer4ft (.const:ti_sysbios_knl_Swi_Module__diagsIncluded__C)
                  00016410    00000004     mss_mmw_per4ft.oer4ft (.const:ti_sysbios_knl_Swi_Module__diagsMask__C)
                  00016414    00000004     mss_mmw_per4ft.oer4ft (.const:ti_sysbios_knl_Swi_Module__loggerFxn1__C)
                  00016418    00000004     mss_mmw_per4ft.oer4ft (.const:ti_sysbios_knl_Swi_Module__loggerFxn4__C)
                  0001641c    00000004     mss_mmw_per4ft.oer4ft (.const:ti_sysbios_knl_Swi_Module__loggerObj__C)
                  00016420    00000004     mss_mmw_per4ft.oer4ft (.const:ti_sysbios_knl_Swi_Object__count__C)
                  00016424    00000004     mss_mmw_per4ft.oer4ft (.const:ti_sysbios_knl_Task_A_badPriority__C)
                  00016428    00000004     mss_mmw_per4ft.oer4ft (.const:ti_sysbios_knl_Task_A_badTaskState__C)
                  0001642c    00000004     mss_mmw_per4ft.oer4ft (.const:ti_sysbios_knl_Task_A_badThreadType__C)
                  00016430    00000004     mss_mmw_per4ft.oer4ft (.const:ti_sysbios_knl_Task_A_badTimeout__C)
                  00016434    00000004     mss_mmw_per4ft.oer4ft (.const:ti_sysbios_knl_Task_A_noPendElem__C)
                  00016438    00000004     mss_mmw_per4ft.oer4ft (.const:ti_sysbios_knl_Task_A_sleepTaskDisabled__C)
                  0001643c    00000004     mss_mmw_per4ft.oer4ft (.const:ti_sysbios_knl_Task_E_spOutOfBounds__C)
                  00016440    00000004     mss_mmw_per4ft.oer4ft (.const:ti_sysbios_knl_Task_E_stackOverflow__C)
                  00016444    00000004     mss_mmw_per4ft.oer4ft (.const:ti_sysbios_knl_Task_LD_block__C)
                  00016448    00000004     mss_mmw_per4ft.oer4ft (.const:ti_sysbios_knl_Task_LD_exit__C)
                  0001644c    00000004     mss_mmw_per4ft.oer4ft (.const:ti_sysbios_knl_Task_LD_ready__C)
                  00016450    00000004     mss_mmw_per4ft.oer4ft (.const:ti_sysbios_knl_Task_LM_sleep__C)
                  00016454    00000004     mss_mmw_per4ft.oer4ft (.const:ti_sysbios_knl_Task_LM_switch__C)
                  00016458    00000004     mss_mmw_per4ft.oer4ft (.const:ti_sysbios_knl_Task_Module_State_inactiveQ__O)
                  0001645c    00000004     mss_mmw_per4ft.oer4ft (.const:ti_sysbios_knl_Task_Module__diagsEnabled__C)
                  00016460    00000004     mss_mmw_per4ft.oer4ft (.const:ti_sysbios_knl_Task_Module__diagsIncluded__C)
                  00016464    00000004     mss_mmw_per4ft.oer4ft (.const:ti_sysbios_knl_Task_Module__diagsMask__C)
                  00016468    00000004     mss_mmw_per4ft.oer4ft (.const:ti_sysbios_knl_Task_Module__loggerFxn2__C)
                  0001646c    00000004     mss_mmw_per4ft.oer4ft (.const:ti_sysbios_knl_Task_Module__loggerFxn4__C)
                  00016470    00000004     mss_mmw_per4ft.oer4ft (.const:ti_sysbios_knl_Task_Module__loggerObj__C)
                  00016474    00000004     mss_mmw_per4ft.oer4ft (.const:ti_sysbios_knl_Task_Object__count__C)
                  00016478    00000004     mss_mmw_per4ft.oer4ft (.const:ti_sysbios_knl_Task_allBlockedFunc__C)
                  0001647c    00000004     mss_mmw_per4ft.oer4ft (.const:ti_sysbios_knl_Task_defaultStackHeap__C)
                  00016480    00000004     mss_mmw_per4ft.oer4ft (.const:ti_sysbios_knl_Task_defaultStackSize__C)
                  00016484    00000004     mss_mmw_per4ft.oer4ft (.const:ti_sysbios_knl_Task_numConstructedTasks__C)
                  00016488    00000004     mss_mmw_per4ft.oer4ft (.const:ti_sysbios_timers_rti_Timer_E_cannotSupport__C)
                  0001648c    00000004     mss_mmw_per4ft.oer4ft (.const:ti_sysbios_timers_rti_Timer_Module__diagsEnabled__C)
                  00016490    00000004     mss_mmw_per4ft.oer4ft (.const:ti_sysbios_timers_rti_Timer_Module__diagsIncluded__C)
                  00016494    00000004     mss_mmw_per4ft.oer4ft (.const:ti_sysbios_timers_rti_Timer_Module__diagsMask__C)
                  00016498    00000004     mss_mmw_per4ft.oer4ft (.const:ti_sysbios_timers_rti_Timer_numTimerDevices__C)
                  0001649c    00000004     mss_mmw_per4ft.oer4ft (.const:ti_sysbios_timers_rti_Timer_startupNeeded__C)
                  000164a0    00000004     mss_mmw_per4ft.oer4ft (.const:xdc_runtime_Assert_E_assertFailed__C)
                  000164a4    00000004     mss_mmw_per4ft.oer4ft (.const:xdc_runtime_Core_A_initializedParams__C)
                  000164a8    00000004     mss_mmw_per4ft.oer4ft (.const:xdc_runtime_Core_Module__diagsEnabled__C)
                  000164ac    00000004     mss_mmw_per4ft.oer4ft (.const:xdc_runtime_Core_Module__diagsIncluded__C)
                  000164b0    00000004     mss_mmw_per4ft.oer4ft (.const:xdc_runtime_Core_Module__diagsMask__C)
                  000164b4    00000004     mss_mmw_per4ft.oer4ft (.const:xdc_runtime_Error_E_memory__C)
                  000164b8    00000004     mss_mmw_per4ft.oer4ft (.const:xdc_runtime_Error_Module__diagsEnabled__C)
                  000164bc    00000004     mss_mmw_per4ft.oer4ft (.const:xdc_runtime_Error_Module__diagsIncluded__C)
                  000164c0    00000004     mss_mmw_per4ft.oer4ft (.const:xdc_runtime_Error_Module__diagsMask__C)
                  000164c4    00000004     mss_mmw_per4ft.oer4ft (.const:xdc_runtime_Error_Module__loggerFxn8__C)
                  000164c8    00000004     mss_mmw_per4ft.oer4ft (.const:xdc_runtime_Error_Module__loggerObj__C)
                  000164cc    00000004     mss_mmw_per4ft.oer4ft (.const:xdc_runtime_Error_policyFxn__C)
                  000164d0    00000004     mss_mmw_per4ft.oer4ft (.const:xdc_runtime_Error_policy__C)
                  000164d4    00000004     mss_mmw_per4ft.oer4ft (.const:xdc_runtime_Error_raiseHook__C)
                  000164d8    00000004     mss_mmw_per4ft.oer4ft (.const:xdc_runtime_IGateProvider_Interface__BASE__C)
                  000164dc    00000004     mss_mmw_per4ft.oer4ft (.const:xdc_runtime_IHeap_Interface__BASE__C)
                  000164e0    00000004     mss_mmw_per4ft.oer4ft (.const:xdc_runtime_IModule_Interface__BASE__C)
                  000164e4    00000004     mss_mmw_per4ft.oer4ft (.const:xdc_runtime_Log_L_error__C)
                  000164e8    00000004     mss_mmw_per4ft.oer4ft (.const:xdc_runtime_Memory_defaultHeapInstance__C)
                  000164ec    00000004     mss_mmw_per4ft.oer4ft (.const:xdc_runtime_Startup_execImpl__C)
                  000164f0    00000004     mss_mmw_per4ft.oer4ft (.const:xdc_runtime_Startup_maxPasses__C)
                  000164f4    00000004     mss_mmw_per4ft.oer4ft (.const:xdc_runtime_Startup_sfxnRts__C)
                  000164f8    00000004     mss_mmw_per4ft.oer4ft (.const:xdc_runtime_Startup_sfxnTab__C)
                  000164fc    00000004     mss_mmw_per4ft.oer4ft (.const:xdc_runtime_System_Module__gateObj__C)
                  00016500    00000004     mss_mmw_per4ft.oer4ft (.const:xdc_runtime_System_abortFxn__C)
                  00016504    00000004     mss_mmw_per4ft.oer4ft (.const:xdc_runtime_System_exitFxn__C)
                  00016508    00000004     mss_mmw_per4ft.oer4ft (.const:xdc_runtime_System_extendFxn__C)
                  0001650c    00000004     mss_mmw_per4ft.oer4ft (.const:xdc_runtime_System_maxAtexitHandlers__C)
                  00016510    00000004     mss_mmw_per4ft.oer4ft (.const:xdc_runtime_Text_charTab__C)
                  00016514    00000004     mss_mmw_per4ft.oer4ft (.const:xdc_runtime_Text_nameEmpty__C)
                  00016518    00000004     mss_mmw_per4ft.oer4ft (.const:xdc_runtime_Text_nameStatic__C)
                  0001651c    00000004     mss_mmw_per4ft.oer4ft (.const:xdc_runtime_Text_nameUnknown__C)
                  00016520    00000004     mss_mmw_per4ft.oer4ft (.const:xdc_runtime_Text_nodeTab__C)
                  00016524    00000004     mss_mmw_per4ft.oer4ft (.const:xdc_runtime_Text_visitRopeFxn__C)
                  00016528    00000002     mss_mmw_per4ft.oer4ft (.const:ti_sysbios_family_arm_v7r_tms570_Core_Module__id__C)
                  0001652a    00000002     mss_mmw_per4ft.oer4ft (.const:ti_sysbios_family_arm_v7r_vim_Hwi_Module__id__C)
                  0001652c    00000002     mss_mmw_per4ft.oer4ft (.const:ti_sysbios_family_arm_v7r_vim_Hwi_Module__loggerDefined__C)
                  0001652e    00000002     mss_mmw_per4ft.oer4ft (.const:ti_sysbios_gates_GateMutex_Module__id__C)
                  00016530    00000002     mss_mmw_per4ft.oer4ft (.const:ti_sysbios_hal_Hwi_Module__id__C)
                  00016532    00000002     mss_mmw_per4ft.oer4ft (.const:ti_sysbios_heaps_HeapMem_Module__id__C)
                  00016534    00000002     mss_mmw_per4ft.oer4ft (.const:ti_sysbios_knl_Clock_Module__id__C)
                  00016536    00000002     mss_mmw_per4ft.oer4ft (.const:ti_sysbios_knl_Clock_Module__loggerDefined__C)
                  00016538    00000002     mss_mmw_per4ft.oer4ft (.const:ti_sysbios_knl_Event_Module__id__C)
                  0001653a    00000002     mss_mmw_per4ft.oer4ft (.const:ti_sysbios_knl_Event_Module__loggerDefined__C)
                  0001653c    00000002     mss_mmw_per4ft.oer4ft (.const:ti_sysbios_knl_Semaphore_Module__id__C)
                  0001653e    00000002     mss_mmw_per4ft.oer4ft (.const:ti_sysbios_knl_Semaphore_Module__loggerDefined__C)
                  00016540    00000002     mss_mmw_per4ft.oer4ft (.const:ti_sysbios_knl_Swi_Module__id__C)
                  00016542    00000002     mss_mmw_per4ft.oer4ft (.const:ti_sysbios_knl_Swi_Module__loggerDefined__C)
                  00016544    00000002     mss_mmw_per4ft.oer4ft (.const:ti_sysbios_knl_Task_Module__id__C)
                  00016546    00000002     mss_mmw_per4ft.oer4ft (.const:ti_sysbios_knl_Task_Module__loggerDefined__C)
                  00016548    00000002     mss_mmw_per4ft.oer4ft (.const:ti_sysbios_timers_rti_Timer_Module__id__C)
                  0001654a    00000002     mss_mmw_per4ft.oer4ft (.const:ti_sysbios_timers_rti_Timer_continueOnSuspend__C)
                  0001654c    00000002     mss_mmw_per4ft.oer4ft (.const:xdc_runtime_Core_Module__id__C)
                  0001654e    00000002     mss_mmw_per4ft.oer4ft (.const:xdc_runtime_Error_Module__loggerDefined__C)
                  00016550    00000002     mss_mmw_per4ft.oer4ft (.const:xdc_runtime_Error_maxDepth__C)
                  00016552    00000002     mss_mmw_per4ft.oer4ft (.const:xdc_runtime_Main_Module__id__C)
                  00016554    00000002     mss_mmw_per4ft.oer4ft (.const:xdc_runtime_Memory_Module__id__C)
                  00016556    00000002     mss_mmw_per4ft.oer4ft (.const:xdc_runtime_Text_charCnt__C)
                  00016558    00000002     mss_mmw_per4ft.oer4ft (.const:xdc_runtime_Text_isLoaded__C)
                  0001655a    00000002     mss_mmw_per4ft.oer4ft (.const:xdc_runtime_Text_registryModsLastId__C)
                  0001655c    00000002     mss_mmw_per4ft.oer4ft (.const:xdc_runtime_Text_unnamedModsLastId__C)

.cinit     0    00016560    00002f40     
                  00016560    00002efb     (.cinit..data.load) [load image, compression = lzss]
                  0001945b    00000001     --HOLE-- [fill = 0]
                  0001945c    0000000c     (__TI_handler_table)
                  00019468    00000008     (.cinit..bss.load) [load image, compression = zero_init]
                  00019470    00000008     (.cinit..myFiqStack.load) [load image, compression = zero_init]
                  00019478    00000008     (.cinit.systemHeap.load) [load image, compression = zero_init]
                  00019480    00000020     (__TI_cinit_table)

systemHeap 
*          0    08000000    0000a000     UNINITIALIZED
                  08000000    0000a000     mss_mmw_per4ft.oer4ft (systemHeap)

.data      0    0800a000    00004094     UNINITIALIZED
                  0800a000    00002ed8     mss_main.oer4f (.data:$O1$$)
                  0800ced8    000003e4     libmmwavelink_xwr68xx.aer4f : rl_driver.oer4f (.data:$O1$$)
                  0800d2bc    0000021c     cli.oer4f (.data:$O1$$)
                  0800d4d8    00000200     mss_mmw_per4ft.oer4ft (.data:ti_sysbios_family_arm_v7r_vim_Hwi_Module_State_0_dispatchTable__A)
                  0800d6d8    000001e0     cli_mmwave.oer4f (.data:$O1$$)
                  0800d8b8    000000f0     rtsv7R4_T_le_v3D16_eabi.lib : defs.obj (.data:_ftable)
                  0800d9a8    00000080     mss_mmw_per4ft.oer4ft (.data:ti_sysbios_knl_Swi_Module_State_0_readyQ__A)
                  0800da28    00000080     mss_mmw_per4ft.oer4ft (.data:ti_sysbios_knl_Task_Module_State_0_readyQ__A)
                  0800daa8    00000078     rtsv7R4_T_le_v3D16_eabi.lib : write.obj (.data:_device)
                  0800db20    0000005c     mss_mmw_per4ft.oer4ft (.data:ti_sysbios_knl_Task_Object__table__V)
                  0800db7c    00000058     libuart_xwr68xx.aer4f : uart_xwr68xx.oer4f (.data:gUartSciHwCfg)
                  0800dbd4    00000050     rtsv7R4_T_le_v3D16_eabi.lib : write.obj (.data:_stream)
                  0800dc24    00000050     libmailbox_xwr68xx.aer4f : mailbox.oer4f (.data:gMailboxMCB)
                  0800dc74    00000048     mss_mmw_per4ft.oer4ft (.data:ti_sysbios_knl_Task_Module__state__V)
                  0800dcbc    00000040     libsoc_xwr68xx.aer4f : soc_xwr68xx.oer4f (.data:SOC_TranslateAddr_LUT)
                  0800dcfc    00000040     mss_mmw_per4ft.oer4ft (.data:ti_sysbios_gates_GateMutex_Object__table__V)
                  0800dd3c    0000003c     mss_mmw_per4ft.oer4ft (.data:ti_sysbios_timers_rti_Timer_Object__table__V)
                  0800dd78    00000034     mss_mmw_per4ft.oer4ft (.data:ti_sysbios_family_arm_v7r_vim_Hwi_Module__state__V)
                  0800ddac    00000030     mss_mmw_per4ft.oer4ft (.data:ti_sysbios_knl_Swi_Object__table__V)
                  0800dddc    0000002c     mss_mmw_per4ft.oer4ft (.data:ti_sysbios_family_arm_v7r_vim_Hwi_Object__table__V)
                  0800de08    0000002c     mss_mmw_per4ft.oer4ft (.data:ti_sysbios_knl_Clock_Module__state__V)
                  0800de34    00000028     libuart_xwr68xx.aer4f : uartsci.oer4f (.data:gUartSciFxnTable)
                  0800de5c    00000024                           : uart_xwr68xx.oer4f (.data:UART_config)
                  0800de80    00000024     mss_mmw_per4ft.oer4ft (.data:ti_sysbios_BIOS_Module__state__V)
                  0800dea4    00000020     mss_mmw_per4ft.oer4ft (.data:xdc_runtime_Error_IgnoreBlock)
                  0800dec4    00000020     mss_mmw_per4ft.oer4ft (.data:xdc_runtime_System_Module_State_0_atexitHandlers__A)
                  0800dee4    0000001c     mss_mmw_per4ft.oer4ft (.data:ti_sysbios_knl_Swi_Module__state__V)
                  0800df00    00000018     libmailbox_xwr68xx.aer4f : mailbox_xwr68xx.oer4f (.data:gMailboxMssBssHwCfg)
                  0800df18    00000018                              : mailbox_xwr68xx.oer4f (.data:gMailboxMssDssHwCfg)
                  0800df30    00000018     mss_mmw_per4ft.oer4ft (.data:ti_sysbios_heaps_HeapMem_Object__table__V)
                  0800df48    00000018     mss_mmw_per4ft.oer4ft (.data:ti_sysbios_timers_rti_Timer_Module_State_0_device__A)
                  0800df60    00000014     libsoc_xwr68xx.aer4f : soc_xwr68xx_mss.oer4f (.data:gSOCHwAttrib)
                  0800df74    00000014     mss_mmw_per4ft.oer4ft (.data:ti_sysbios_family_arm_exc_Exception_Module__state__V)
                  0800df88    00000010     rtsv7R4_T_le_v3D16_eabi.lib : defs.obj (.data)
                  0800df98    00000010     mss_mmw_per4ft.oer4ft (.data:ti_sysbios_timers_rti_Timer_Module_State_0_intFreqs__A)
                  0800dfa8    00000010     mss_mmw_per4ft.oer4ft (.data:ti_sysbios_timers_rti_Timer_Module__state__V)
                  0800dfb8    0000000c     rtsv7R4_T_le_v3D16_eabi.lib : exit.obj (.data:$O1$$)
                  0800dfc4    0000000c     libesm_xwr68xx.aer4f : esm_xwr1xxx.oer4f (.data:gESMHwCfgAttrs)
                  0800dfd0    0000000c     mss_mmw_per4ft.oer4ft (.data:ti_sysbios_family_arm_v7a_Pmu_Module__state__V)
                  0800dfdc    00000008     rtsv7R4_T_le_v3D16_eabi.lib : _lock.obj (.data:$O1$$)
                  0800dfe4    00000008     libgpio_xwr68xx.aer4f : gpio_xwr68xx.oer4f (.data:gGPIOHwAtrrib)
                  0800dfec    00000008     mss_mmw_per4ft.oer4ft (.data:ti_sysbios_family_arm_v7r_vim_Hwi_Module__root__V)
                  0800dff4    00000008     mss_mmw_per4ft.oer4ft (.data:ti_sysbios_gates_GateHwi_Module__root__V)
                  0800dffc    00000008     mss_mmw_per4ft.oer4ft (.data:ti_sysbios_gates_GateMutex_Module__root__V)
                  0800e004    00000008     mss_mmw_per4ft.oer4ft (.data:ti_sysbios_hal_Hwi_Object__table__V)
                  0800e00c    00000008     mss_mmw_per4ft.oer4ft (.data:ti_sysbios_heaps_HeapMem_Module__root__V)
                  0800e014    00000008     mss_mmw_per4ft.oer4ft (.data:ti_sysbios_knl_Event_Module__root__V)
                  0800e01c    00000008     mss_mmw_per4ft.oer4ft (.data:ti_sysbios_knl_Queue_Module__root__V)
                  0800e024    00000008     mss_mmw_per4ft.oer4ft (.data:ti_sysbios_knl_Semaphore_Module__root__V)
                  0800e02c    00000008     mss_mmw_per4ft.oer4ft (.data:ti_sysbios_knl_Task_Module__root__V)
                  0800e034    00000008     mss_mmw_per4ft.oer4ft (.data:ti_sysbios_timers_rti_Timer_Module_State_0_handles__A)
                  0800e03c    00000008     mss_mmw_per4ft.oer4ft (.data:xdc_runtime_Registry_Module__state__V)
                  0800e044    00000008     mss_mmw_per4ft.oer4ft (.data:xdc_runtime_Startup_Module__state__V)
                  0800e04c    00000008     mss_mmw_per4ft.oer4ft (.data:xdc_runtime_System_Module__state__V)
                  0800e054    00000004     libcrc_xwr68xx.aer4f : crc_xwr68xx.oer4f (.data)
                  0800e058    00000004     libpinmux_xwr68xx.aer4f : pinmux_xwr1xxx.oer4f (.data)
                  0800e05c    00000004     libuart_xwr68xx.aer4f : UART.oer4f (.data)
                  0800e060    00000004     rtsv7R4_T_le_v3D16_eabi.lib : errno.obj (.data)
                  0800e064    00000004                                 : fopen.obj (.data)
                  0800e068    00000004                                 : open.obj (.data)
                  0800e06c    00000004                                 : stkdepth_vars.obj (.data)
                  0800e070    00000004                                 : strtok.obj (.data)
                  0800e074    00000004     mss_mmw_per4ft.oer4ft (.data:ti_sysbios_family_arm_exc_Exception_Module_State_0_excContext__A)
                  0800e078    00000004     mss_mmw_per4ft.oer4ft (.data:ti_sysbios_family_arm_exc_Exception_Module_State_0_excStackBuffers__A)
                  0800e07c    00000004     mss_mmw_per4ft.oer4ft (.data:ti_sysbios_family_arm_exc_Exception_Module_State_0_excStack__A)
                  0800e080    00000004     mss_mmw_per4ft.oer4ft (.data:ti_sysbios_gates_GateHwi_Object__table__V)
                  0800e084    00000004     mss_mmw_per4ft.oer4ft (.data:ti_sysbios_heaps_HeapBuf_Module__state__V)
                  0800e088    00000004     mss_mmw_per4ft.oer4ft (.data:ti_sysbios_knl_Task_Module_State_0_idleTask__A)
                  0800e08c    00000004     mss_mmw_per4ft.oer4ft (.data:xdc_runtime_Memory_Module__state__V)
                  0800e090    00000002     mss_mmw_per4ft.oer4ft (.data:ti_sysbios_family_arm_exc_Exception_Module_State_0_excActive__A)
                  0800e092    00000002     mss_mmw_per4ft.oer4ft (.data:xdc_runtime_Error_Module__state__V)

.bss       0    0800e098    00001cd0     UNINITIALIZED
                  0800e098    00001000     (.common:ti_sysbios_family_arm_exc_Exception_Module_State_0_excStack_0__A)
                  0800f098    00000800     mss_mmw_per4ft.oer4ft (.bss:taskStackSection)
                  0800f898    00000194     (.common:gGPIOMCB)
                  0800fa2c    00000120     rtsv7R4_T_le_v3D16_eabi.lib : trgmsg.obj (.bss:_CIOBUF_)
                  0800fb4c    000000fc     (.common:gMMWave_MCB)
                  0800fc48    000000a0     (.common:__TI_tmpnams)
                  0800fce8    00000070     (.common:gEsmMCB)
                  0800fd58    00000008     (.common:gMMWave_DualcoreMCB)
                  0800fd60    00000008     (.common:parmbuf)

.stack     0    0800fd68    00001000     UNINITIALIZED
                  0800fd68    00001000     --HOLE--

.myFiqStack 
*          0    08010d68    00000800     UNINITIALIZED
                  08010d68    00000800     mss_mmw_per4ft.oer4ft (.myFiqStack)

xdc.meta   0    00000000    0000012e     COPY SECTION
                  00000000    0000012e     mss_mmw_per4ft.oer4ft (xdc.meta)

MODULE SUMMARY

       Module                          code    ro data   rw data
       ------                          ----    -------   -------
    .\common\
       cli_mmwave.oer4f                4588    192       480    
       cli.oer4f                       1012    850       540    
    +--+-------------------------------+-------+---------+---------+
       Total:                          5600    1042      1020   
                                                                
    .\mss\
       mss_main.oer4f                  7347    28        11992  
       mss_cli.oer4f                   5033    478       0      
       utils.oer4f                     232     0         0      
       inference.oer4f                 230     0         0      
    +--+-------------------------------+-------+---------+---------+
       Total:                          12842   506       11992  
                                                                
    C:\Users\sonif\Documents\StudiumMaster\Semester3\Masterthesis\TI_modifiedFromTICommunity\multi_gesture_68xx_mss\Debug\configPkg\package\cfg\
       mss_mmw_per4ft.oer4ft           1798    9035      50772  
    +--+-------------------------------+-------+---------+---------+
       Total:                          1798    9035      50772  
                                                                
    C:/ti/mmwave_sdk_03_01_01_02/packages/ti/control/mmwave/lib/libmmwave_xwr68xx.aer4f
       mmwave_link.oer4f               2460    0         0      
       mmwave_dualcore.oer4f           2108    0         8      
       mmwave_fullcfg.oer4f            2002    0         0      
       mmwave.oer4f                    1012    0         252    
       mmwave_osal.oer4f               200     0         0      
       mmwave_listlib.oer4f            142     0         0      
    +--+-------------------------------+-------+---------+---------+
       Total:                          7924    0         260    
                                                                
    C:/ti/mmwave_sdk_03_01_01_02/packages/ti/control/mmwavelink/lib/libmmwavelink_xwr68xx.aer4f
       rl_driver.oer4f                 4014    120       996    
       rl_sensor.oer4f                 1680    696       0      
       rl_device.oer4f                 460     0         0      
       rl_controller.oer4f             146     0         0      
    +--+-------------------------------+-------+---------+---------+
       Total:                          6300    816       996    
                                                                
    C:/ti/mmwave_sdk_03_01_01_02/packages/ti/drivers/crc/lib/libcrc_xwr68xx.aer4f
       crc.oer4f                       1256    0         0      
       crc_xwr68xx.oer4f               0       0         4      
    +--+-------------------------------+-------+---------+---------+
       Total:                          1256    0         4      
                                                                
    C:/ti/mmwave_sdk_03_01_01_02/packages/ti/drivers/dma/lib/libdma_xwr68xx.aer4f
       dma.oer4f                       1906    0         0      
    +--+-------------------------------+-------+---------+---------+
       Total:                          1906    0         0      
                                                                
    C:/ti/mmwave_sdk_03_01_01_02/packages/ti/drivers/esm/lib/libesm_xwr68xx.aer4f
       esm.oer4f                       456     0         112    
       esm_xwr1xxx.oer4f               0       0         12     
    +--+-------------------------------+-------+---------+---------+
       Total:                          456     0         124    
                                                                
    C:/ti/mmwave_sdk_03_01_01_02/packages/ti/drivers/gpio/lib/libgpio_xwr68xx.aer4f
       gpio.oer4f                      1090    0         404    
       gpio_xwr68xx.oer4f              0       0         8      
    +--+-------------------------------+-------+---------+---------+
       Total:                          1090    0         412    
                                                                
    C:/ti/mmwave_sdk_03_01_01_02/packages/ti/drivers/mailbox/lib/libmailbox_xwr68xx.aer4f
       mailbox.oer4f                   1916    36        80     
       mailbox_xwr68xx.oer4f           0       0         48     
    +--+-------------------------------+-------+---------+---------+
       Total:                          1916    36        128    
                                                                
    C:/ti/mmwave_sdk_03_01_01_02/packages/ti/drivers/osal/lib/libosal_xwr68xx.aer4f
       HwiP_tirtos.oer4f               222     0         0      
       SemaphoreP_tirtos.oer4f         150     0         0      
       MemoryP_tirtos.oer4f            28      0         0      
       DebugP_tirtos.oer4f             20      0         0      
    +--+-------------------------------+-------+---------+---------+
       Total:                          420     0         0      
                                                                
    C:/ti/mmwave_sdk_03_01_01_02/packages/ti/drivers/pinmux/lib/libpinmux_xwr68xx.aer4f
       pinmux.oer4f                    390     0         0      
       pinmux_xwr1xxx.oer4f            0       0         4      
    +--+-------------------------------+-------+---------+---------+
       Total:                          390     0         4      
                                                                
    C:/ti/mmwave_sdk_03_01_01_02/packages/ti/drivers/soc/lib/libsoc_xwr68xx.aer4f
       soc_xwr68xx_mss.oer4f           1336    0         20     
       soc.oer4f                       492     0         0      
       soc_xwr68xx.oer4f               406     0         64     
       soc_mpu.o                       182     0         0      
    +--+-------------------------------+-------+---------+---------+
       Total:                          2416    0         84     
                                                                
    C:/ti/mmwave_sdk_03_01_01_02/packages/ti/drivers/uart/lib/libuart_xwr68xx.aer4f
       uartsci.oer4f                   2192    0         40     
       uartsci_dma.oer4f               642     0         0      
       UART.oer4f                      150     60        4      
       uart_xwr68xx.oer4f              0       0         124    
    +--+-------------------------------+-------+---------+---------+
       Total:                          2984    60        168    
                                                                
    C:/ti/ti-cgt-arm_16.9.6.LTS/lib/rtsv7R4_T_le_v3D16_eabi.lib
       _printfi.obj                    4218    0         0      
       ull_div32.obj                   696     0         0      
       e_exp.obj                       600     48        0      
       strtod.obj                      484     152       0      
       fopen.obj                       456     0         4      
       defs.obj                        0       0         416    
       trgmsg.obj                      108     0         288    
       fputs.obj                       312     0         0      
       ctype.obj                       0       257       0      
       write.obj                       40      0         200    
       s_scalbn.obj                    236     0         0      
       setvbuf.obj                     220     0         0      
       fflush.obj                      204     0         0      
       open.obj                        188     0         4      
       _io_perm.obj                    174     0         0      
       memcpy_t2.obj                   156     0         0      
       fclose.obj                      152     0         0      
       fputc.obj                       152     0         0      
       vsnprintf.obj                   136     0         0      
       memset_t2.obj                   122     0         0      
       getdevice.obj                   116     0         0      
       s_frexp.obj                     116     0         0      
       printf.obj                      112     0         0      
       copy_decompress_lzss.obj        108     0         0      
       hostlseek.obj                   104     0         0      
       hostrename.obj                  104     0         0      
       fseek.obj                       100     0         0      
       hostopen.obj                    92      0         8      
       sprintf.obj                     100     0         0      
       exit.obj                        80      0         12     
       hostread.obj                    92      0         0      
       close.obj                       88      0         0      
       hostwrite.obj                   88      0         0      
       ltoa.obj                        84      0         0      
       atoi.obj                        80      0         0      
       u_div32.obj                     80      0         0      
       cpy_tbl.obj                     76      0         0      
       hostclose.obj                   68      0         0      
       hostunlink.obj                  68      0         0      
       strtok.obj                      64      0         4      
       strncpy.obj                     54      0         0      
       e_sqrt.obj                      44      0         0      
       unlink.obj                      44      0         0      
       strspn.obj                      42      0         0      
       lseek.obj                       40      0         0      
       memcmp.obj                      38      0         0      
       strcspn.obj                     34      0         0      
       memchr.obj                      32      0         0      
       _lock.obj                       20      0         8      
       memccpy.obj                     28      0         0      
       s_copysign.obj                  26      0         0      
       args_main.obj                   24      0         0      
       strcmp.obj                      24      0         0      
       strchr.obj                      22      0         0      
       strlen.obj                      22      0         0      
       strcpy.obj                      20      0         0      
       copy_decompress_none.obj        14      0         0      
       copy_zero_init.obj              12      0         0      
       errno.obj                       0       0         4      
       stkdepth_vars.obj               0       0         4      
       i_div0.obj                      2       0         0      
    +--+-------------------------------+-------+---------+---------+
       Total:                          11016   457       952    
                                                                
    C:\Users\sonif\Documents\StudiumMaster\Semester3\Masterthesis\TI_modifiedFromTICommunity\multi_gesture_68xx_mss\mss\src\sysbios\sysbios.aer4ft
       BIOS.obj                        19427   0         0      
       exc_Exception_asm.obj           308     0         0      
       vim_Hwi_asm.obj                 208     0         0      
       arm_TaskSupport_asm.obj         180     0         0      
       vim_Hwi_asm_switch.obj          152     0         0      
       arm_IntrinsicsSupport_asm.obj   12      0         0      
       tms570_Core_asm.obj             10      0         0      
    +--+-------------------------------+-------+---------+---------+
       Total:                          20297   0         0      
                                                                
    C:\ti\bios_6_73_01_01\packages\ti\targets\arm\rtsarm\lib\auto_init.aer4ft
       auto_init.oer4ft                160     0         0      
    +--+-------------------------------+-------+---------+---------+
       Total:                          160     0         0      
                                                                
    C:\ti\bios_6_73_01_01\packages\ti\targets\arm\rtsarm\lib\boot.aer4ft
       boot.oer4ft                     116     0         0      
    +--+-------------------------------+-------+---------+---------+
       Total:                          116     0         0      
                                                                
       Stack:                          0       0         4096   
       Linker Generated:               0       12095     0      
    +--+-------------------------------+-------+---------+---------+
       Grand Total:                    78887   24047     71012  


LINKER GENERATED COPY TABLES

__TI_cinit_table @ 00019480 records: 4, size/record: 8, table size: 32
	.data: load addr=00016560, load size=00002efb bytes, run addr=0800a000, run size=00004094 bytes, compression=lzss
	.bss: load addr=00019468, load size=00000008 bytes, run addr=0800e098, run size=00001cd0 bytes, compression=zero_init
	.myFiqStack: load addr=00019470, load size=00000008 bytes, run addr=08010d68, run size=00000800 bytes, compression=zero_init
	systemHeap: load addr=00019478, load size=00000008 bytes, run addr=08000000, run size=0000a000 bytes, compression=zero_init


LINKER GENERATED HANDLER TABLE

__TI_handler_table @ 0001945c records: 3, size/record: 4, table size: 12
	index: 0, handler: __TI_zero_init
	index: 1, handler: __TI_decompress_lzss
	index: 2, handler: __TI_decompress_none


GLOBAL SYMBOLS: SORTED ALPHABETICALLY BY Name 

address   name                                                                 
-------   ----                                                                 
00010f95  C$$EXIT                                                              
0000fa47  C$$IO$$                                                              
00010245  CLI_MMWaveExtensionHandler                                           
0000c389  CLI_MMWaveExtensionHelp                                              
00011c01  CLI_MMWaveExtensionInit                                              
00002cb5  CLI_getMMWaveExtensionConfig                                         
00013019  CLI_getMMWaveExtensionOpenConfig                                     
00009c8d  CLI_open                                                             
00010db5  CLI_write                                                            
000094d5  CRC_computeSignature                                                 
00010e05  CRC_getSignature                                                     
00010a91  CRC_getTransactionId                                                 
00013409  CRC_initConfigParams                                                 
00005379  CRC_open                                                             
0000c8c9  DMA_assignChannel                                                    
00009e5d  DMA_clearChannelInterruptFlag                                        
0000f721  DMA_disableChannel                                                   
000095d1  DMA_disableInterrupt                                                 
0000faed  DMA_enableChannel                                                    
0000a1dd  DMA_enableInterrupt                                                  
00010ae5  DMA_freeChannel                                                      
0000c96d  DMA_getChannelInterruptFlag                                          
00005771  DMA_setChannelParams                                                 
00010715  ESM_highpriority_FIQ                                                 
0000ca11  ESM_init                                                             
00012afd  ESM_lowpriority_IRQ                                                  
0000c231  ESM_processInterrupt                                                 
0000f78d  GPIO_enableInt                                                       
0000d8e1  GPIO_init                                                            
000102a5  GPIO_setCallback                                                     
00007265  GPIO_setConfig                                                       
0000b6b1  GPIO_write                                                           
000114b1  HOSTclose                                                            
0000fcf5  HOSTlseek                                                            
000105a9  HOSTopen                                                             
00010605  HOSTread                                                             
0000fd5d  HOSTrename                                                           
000114f5  HOSTunlink                                                           
0001097d  HOSTwrite                                                            
00013297  HwiP_Params_init                                                     
0000eaa1  HwiP_create                                                          
00011b8d  HwiP_delete                                                          
00003589  HwiP_disable                                                         
00006f6d  HwiP_disableInterrupt                                                
000017cb  HwiP_restore                                                         
00009d75  Inference                                                            
0000cab5  MMWave_addBpmChirp                                                   
0000ad6d  MMWave_addChirp                                                      
0000bf69  MMWave_addProfile                                                    
0000f065  MMWave_config                                                        
0000ae35  MMWave_configBPM                                                     
0000cfe1  MMWave_configLink                                                    
00011921  MMWave_decodeError                                                   
00003ab9  MMWave_decodeErrorLevel                                              
0000e58d  MMWave_deviceCfgAsyncEvent                                           
0000f4ed  MMWave_deviceCfgFxn                                                  
0000e611  MMWave_deviceEventFxn                                                
00003835  MMWave_deviceExecuteFxn                                              
0001341b  MMWave_deviceGetDeviceInfo                                           
00008d9d  MMWave_deviceInitFxn                                                 
0000eb21  MMWave_deviceOpenFxn                                                 
0000f0d9  MMWave_deviceStartFxn                                                
0000fb55  MMWave_deviceStopFxn                                                 
00012ef9  MMWave_deviceSyncFxn                                                 
00012f13  MMWave_encodeError                                                   
0001076d  MMWave_execute                                                       
00011625  MMWave_executeLink                                                   
0000aefd  MMWave_flushCfg                                                      
0000e81d  MMWave_getBpmChirpCfg                                                
0000c4d9  MMWave_getBpmChirpHandle                                             
0000d42d  MMWave_getChirpCfg                                                   
0000afc5  MMWave_getChirpHandle                                                
0000e695  MMWave_getNumBpmChirp                                                
0000eefd  MMWave_getNumChirps                                                  
0000e25d  MMWave_getProfileCfg                                                 
0000d07d  MMWave_getProfileHandle                                              
0000a2b5  MMWave_init                                                          
00010b39  MMWave_initLink                                                      
00012f2d  MMWave_listAdd                                                       
00012b1d  MMWave_listCat                                                       
00009b9d  MMWave_listGetHead                                                   
0000ac99  MMWave_listGetNext                                                   
00012da1  MMWave_listRemove                                                    
00011ef3  MMWave_listRemoveNode                                                
0000e719  MMWave_open                                                          
00008491  MMWave_openLink                                                      
00012255  MMWave_osalMutexCreate                                               
000132d3  MMWave_osalMutexDelete                                               
00013031  MMWave_osalMutexLock                                                 
00005d35  MMWave_osalMutexUnlock                                               
00012281  MMWave_osalSemCreate                                                 
000132e7  MMWave_osalSemDelete                                                 
000060e5  MMWave_osalSemSignal                                                 
00013049  MMWave_osalSemWait                                                   
0000cb59  MMWave_start                                                         
000093d5  MMWave_startLink                                                     
0001054d  MMWave_stop                                                          
0000f865  MMWave_stopLink                                                      
00010e55  MMWave_sync                                                          
0001251d  Mailbox_Config_init                                                  
0000d971  Mailbox_close                                                        
00015fd4  Mailbox_defaultCfg                                                   
0000eb9d  Mailbox_init                                                         
00003fa9  Mailbox_open                                                         
0000a465  Mailbox_read                                                         
0000fbbd  Mailbox_readFlush                                                    
00008fbd  Mailbox_write                                                        
000119d9  Mailbox_writeReset                                                   
0001342d  MemoryP_ctrlAlloc                                                    
0000fdc5  MemoryP_ctrlFree                                                     
0000117d  MmwDemo_CLIInit                                                      
0000efed  MmwDemo_Dss2MssISR                                                   
000062b9  MmwDemo_bpmConfig                                                    
0000e3f5  MmwDemo_gpioSwitchTask                                               
000067b5  MmwDemo_mboxCallback                                                 
00012b3d  MmwDemo_mboxWrite                                                    
0001081d  MmwDemo_mmWaveCtrlTask                                               
000046b5  MmwDemo_mssCtrlPathTask                                              
00004f65  MmwDemo_mssDataPathConfig                                            
0000bc89  MmwDemo_mssDataPathStart                                             
0000a539  MmwDemo_mssDataPathStop                                              
00001cb5  MmwDemo_mssInitTask                                                  
000132fd  MmwDemo_mssMmwaveConfigCallbackFxn                                   
000090c5  MmwDemo_mssMmwaveEventCallbackFxn                                    
00012dbd  MmwDemo_mssMmwaveStartCallbackFxn                                    
00013311  MmwDemo_mssMmwaveStopCallbackFxn                                     
0000fe39  MmwDemo_mssSetHsiClk                                                 
00012871  MmwDemo_notifySensorStart                                            
00012dd9  MmwDemo_notifySensorStop                                             
0000d2ed  MmwDemo_sleep                                                        
0000da91  MmwDemo_waitSensorStartComplete                                      
0000cbfd  MmwDemo_waitSensorStopComplete                                       
0000f8d1  Pinmux_Set_FuncSel                                                   
0000c629  Pinmux_Set_OverrideCtrl                                              
UNDEFED   SHT$$INIT_ARRAY$$Base                                                
UNDEFED   SHT$$INIT_ARRAY$$Limit                                               
0000bc43  SOC_MPUAreRegionsSeparate                                            
0000bbef  SOC_MPUDisable                                                       
0000bc23  SOC_MPUDisableBackgroundRegion                                       
0000bbd1  SOC_MPUEnable                                                        
0000bc0d  SOC_MPUEnableBackgroundRegion                                        
0000bc39  SOC_MPUGetNumberOfRegions                                            
0000bc51  SOC_MPUGetRegion                                                     
0000bc5d  SOC_MPUGetRegionBaseAddress                                          
0000bc77  SOC_MPUGetRegionPermission                                           
0000bc6d  SOC_MPUGetRegionType                                                 
0000bc4b  SOC_MPUSetRegion                                                     
0000bc57  SOC_MPUSetRegionBaseAddress                                          
0000bc81  SOC_MPUSetRegionSizeRegister                                         
0000bc63  SOC_MPUSetRegionTypeAndPermission                                    
0001249d  SOC_SystemISR                                                        
0800dcbc  SOC_TranslateAddr_LUT                                                
0000a895  SOC_controlSecureFirewall                                            
00002fd1  SOC_deviceInit                                                       
00011f25  SOC_getDevicePartNumber                                              
0000f1c1  SOC_getDeviceRFFreqScaleFactor                                       
00012df5  SOC_getInAddr_LUTType                                                
00012cbf  SOC_getOutAddr_LUTType                                               
0000e47d  SOC_init                                                             
00012895  SOC_isMMWaveDSSOperational                                           
000128b9  SOC_isMMWaveMSSOperational                                           
0000d38d  SOC_isSecureDevice                                                   
00011d7d  SOC_setMMWaveDSSLinkState                                            
00011db1  SOC_setMMWaveMSSLinkState                                            
0000df09  SOC_translateAddress                                                 
00011a15  SOC_unhaltBSS                                                        
000122ad  SOC_waitBSSPowerUp                                                   
00004b29  SemaphoreP_Params_init                                               
0000ff6d  SemaphoreP_create                                                    
00011eb3  SemaphoreP_delete                                                    
0001343f  SemaphoreP_pend                                                      
00010165  SemaphoreP_post                                                      
00010165  SemaphoreP_postFromClock                                             
00010165  SemaphoreP_postFromISR                                               
00006de5  UART_Params_init                                                     
0800de5c  UART_config                                                          
00015ee4  UART_defaultParams                                                   
00011c39  UART_init                                                            
00011de5  UART_open                                                            
000101d5  UART_read                                                            
00010365  UART_write                                                           
000109d5  UART_writePolling                                                    
00010875  UartSci_closeDMA                                                     
00012a97  UartSci_disableRxDMA                                                 
00013339  UartSci_disableTxDMA                                                 
00012ab9  UartSci_enableRxDMA                                                  
0001334d  UartSci_enableTxDMA                                                  
0000df95  UartSci_initiateRxDMA                                                
0000db21  UartSci_initiateTxDMA                                                
00008225  UartSci_isDMAEnabled                                                 
0000beb5  UartSci_openDMA                                                      
00013361  _DebugP_assert                                                       
00000000  __ASM__                                                              
0800fa2c  __CIOBUF_                                                            
000000a9  __ISA__                                                              
000000bb  __PLAT__                                                             
08010d68  __STACK_END                                                          
00001000  __STACK_SIZE                                                         
000000df  __TARG__                                                             
00019480  __TI_CINIT_Base                                                      
000194a0  __TI_CINIT_Limit                                                     
0001945c  __TI_Handler_Table_Base                                              
00019468  __TI_Handler_Table_Limit                                             
0000cdf5  __TI_auto_init                                                       
00005fe7  __TI_cleanup                                                         
0800dfb8  __TI_cleanup_ptr                                                     
0000d4c5  __TI_closefile                                                       
0000f9a9  __TI_decompress_lzss                                                 
00013591  __TI_decompress_none                                                 
0000abcd  __TI_doflush                                                         
0800dfbc  __TI_dtors_ptr                                                       
0800dfc0  __TI_enable_exit_profile_output                                      
0800df88  __TI_ft_end                                                          
ffffffff  __TI_pprof_out_hndl                                                  
000008c5  __TI_printfi                                                         
ffffffff  __TI_prof_data_size                                                  
ffffffff  __TI_prof_data_start                                                 
0000c1e5  __TI_rd_ok                                                           
0000fa4b  __TI_readmsg                                                         
00016560  __TI_static_base__                                                   
0800fc48  __TI_tmpnams                                                         
0000fa15  __TI_writemsg                                                        
0000c181  __TI_wrt_ok                                                          
0000b5e5  __TI_zero_init                                                       
00000106  __TRDR__                                                             
0000bc87  __aeabi_idiv0                                                        
0000ee09  __aeabi_memclr                                                       
0000ee09  __aeabi_memclr4                                                      
0000ee09  __aeabi_memclr8                                                      
0000d1b5  __aeabi_memcpy                                                       
0000d1b5  __aeabi_memcpy4                                                      
0000d1b5  __aeabi_memcpy8                                                      
0000ee0b  __aeabi_memset                                                       
0000ee0b  __aeabi_memset4                                                      
0000ee0b  __aeabi_memset8                                                      
0800df94  __aeabi_stderr                                                       
0800df8c  __aeabi_stdin                                                        
0800df90  __aeabi_stdout                                                       
00010fe4  __aeabi_uidiv                                                        
00010fe4  __aeabi_uidivmod                                                     
000032d0  __aeabi_uldivmod                                                     
ffffffff  __binit__                                                            
ffffffff  __c_args__                                                           
0800fd68  __stack                                                              
00013109  _args_main                                                           
0000f234  _c_int00                                                             
00015a3e  _ctypes_                                                             
0800daa8  _device                                                              
0800d8b8  _ftable                                                              
0800dfdc  _lock                                                                
000133ab  _nop                                                                 
000133a3  _register_lock                                                       
0001339d  _register_unlock                                                     
0800dbd4  _stream                                                              
0800dfe0  _unlock                                                              
00010f99  abort                                                                
0000f93d  angleDelta                                                           
00010f45  atoi                                                                 
ffffffff  binit                                                                
0800a000  circleCount                                                          
0800a040  circleData                                                           
0800a090  circleDataInt                                                        
0800a068  circleDataNew                                                        
00010925  close                                                                
000122d9  compute_innerprod                                                    
00011129  copy_in                                                              
00012f7b  copysign                                                             
00012f7b  copysignl                                                            
0000b9a1  correlation_function                                                 
0800a218  energyLog                                                            
0800e060  errno                                                                
000073d5  estimateCircleState                                                  
00010fa1  exit                                                                 
00004209  exp                                                                  
00004209  expl                                                                 
0000d52b  fclose                                                               
0800a130  featureVecPosLog                                                     
0000ac19  fflush                                                               
0000e91d  findDelta                                                            
0000f391  finddevice                                                           
0800a028  fltGestureCnt                                                        
0000603d  fopen                                                                
0000d55d  fputc                                                                
000080ed  fputs                                                                
00012f47  free                                                                 
00006013  freopen                                                              
0000f405  frexp                                                                
0000f405  frexpl                                                               
0000ffd1  fseek                                                                
0800a7a4  gANN_struct_t                                                        
0800d334  gCLI                                                                 
0800d7ec  gCLIMMWaveControlCfg                                                 
0800d744  gCLIMMWaveExtensionTable                                             
0800d6e0  gCLIMMWaveOpenCfg                                                    
0800d6d8  gCLI_mmwave_freq_scale_factor                                        
0800e054  gCRCRegister                                                         
0800dfc4  gESMHwCfgAttrs                                                       
0800fce8  gEsmMCB                                                              
0800dfe4  gGPIOHwAtrrib                                                        
0800f898  gGPIOMCB                                                             
0800fd58  gMMWave_DualcoreMCB                                                  
0800fb4c  gMMWave_MCB                                                          
0800dc24  gMailboxMCB                                                          
0800df00  gMailboxMssBssHwCfg                                                  
0800df18  gMailboxMssDssHwCfg                                                  
0800a418  gMmwMssMCB                                                           
0800e058  gPinmuxRegs                                                          
0800df60  gSOCHwAttrib                                                         
0800de34  gUartSciFxnTable                                                     
0800db7c  gUartSciHwCfg                                                        
0800a018  gestureCnt                                                           
0800a020  gestureCntPrev                                                       
00013375  gestureInferenceCircle                                               
00010305  gestureInferenceProcessing                                           
0800a0b8  gestureProbabilityLog                                                
0800a010  gestureTimeStamp                                                     
0000f3bf  getdevice                                                            
0800d2c0  hardCodedConfigCommands                                              
0800d2bc  hardCodedConfigIndex                                                 
00009ab1  ldexp                                                                
00009ab1  ldexpl                                                               
00012595  log2Approx                                                           
00011c71  logEnergy                                                            
0000f55d  logFeatures                                                          
000125e5  lseek                                                                
00010b8d  ltoa                                                                 
000076a1  main                                                                 
0800e06c  main_func_sp                                                         
000121cf  malloc                                                               
00011bc7  maxCheck                                                             
00012e49  memccpy                                                              
00012b9d  memchr                                                               
000127d3  memcmp                                                               
0000d1b5  memcpy                                                               
0000ee11  memset                                                               
0800a030  numDetectionsPerBucket                                               
0000ba5d  open                                                                 
0800fd60  parmbuf                                                              
0800d704  partInfoStringArray                                                  
0800a004  peopleDetectorState                                                  
0800a008  peopleDetectorStateFlt                                               
0800a00c  peopleDetectorStatePrev                                              
00008365  postProcessing                                                       
0000f5d5  printf                                                               
0000d55d  putc                                                                 
0000d5e3  putchar                                                              
000081fd  puts                                                                 
00012305  relu_activation                                                      
000123b5  remove                                                               
00013389  rlAppendDummy                                                        
00011ca7  rlAppendSubBlock                                                     
000124c7  rlDeviceGetMmWaveLinkVersion                                         
00012331  rlDeviceGetMssVersion                                                
000130a9  rlDeviceGetRfVersion                                                 
0001130b  rlDeviceGetVersion                                                   
00010ea5  rlDeviceIdentifyCmdDir                                               
0000fea1  rlDevicePowerOff                                                     
0000e021  rlDevicePowerOn                                                      
000128dd  rlDeviceSetHsiClk                                                    
0000f2a9  rlDriverAsyncEventHandler                                            
000130c1  rlDriverCalCRC                                                       
000106bb  rlDriverCalChkSum                                                    
0000695d  rlDriverCmdInvoke                                                    
00008c89  rlDriverCmdSendRetry                                                 
000125bd  rlDriverConstructInMsg                                               
00008a49  rlDriverConstructOutMsg                                              
0000d725  rlDriverDeInit                                                       
0000e99d  rlDriverExecuteGetApi                                                
0000fc25  rlDriverExecuteSetApi                                                
000130d9  rlDriverFillPayload                                                  
00008b69  rlDriverGetHandle                                                    
0000bdf5  rlDriverGetPlatformId                                                
0000fc8d  rlDriverHostIrqHandler                                               
000096cd  rlDriverInit                                                         
000130f1  rlDriverIsDeviceMapValid                                             
0000e0ad  rlDriverMsgCmdReply                                                  
000085b9  rlDriverMsgRead                                                      
0000d7b9  rlDriverMsgReadCmdCtx                                                
000108cd  rlDriverMsgReadSpawnCtx                                              
0000b465  rlDriverMsgWrite                                                     
00011355  rlDriverOsiInit                                                      
0000f31d  rlDriverProcRdMsg                                                    
000097c9  rlDriverRdVerifyMsg                                                  
00006c65  rlDriverRxHdrRead                                                    
00011667  rlDriverValidateHdr                                                  
00010ef5  rlDriverVerifyCRC                                                    
0000ce95  rlDriverWaitForResponse                                              
00012901  rlEnableContMode                                                     
00012f61  rlGetRfDieId                                                         
00011a51  rlGetSubBlock                                                        
00007d2b  rlGetSubBlockId                                                      
000099b9  rlGetSubBlockLen                                                     
0000aa35  rlRfCalibDataRestore                                                 
00012b7d  rlRfInit                                                             
000126c9  rlRfInitCalibConfig                                                  
000126ef  rlRfRunTimeCalibConfig                                               
00012925  rlRfSetCalMonTimeUnitConfig                                          
00012715  rlRfSetDeviceCfg                                                     
00011f55  rlSensorStart                                                        
0001235d  rlSensorStop                                                         
0001273b  rlSetAdcOutConfig                                                    
0000c6d1  rlSetAdvFrameConfig                                                  
00012761  rlSetBpmCommonConfig                                                 
00012787  rlSetChannelConfig                                                   
0000ab01  rlSetChirpConfig                                                     
000127ad  rlSetContModeConfig                                                  
0000b525  rlSetFrameConfig                                                     
00012949  rlSetLowPowerModeConfig                                              
0000a60d  rlSetMultiBpmChirpConfig                                             
0000c019  rlSetProfileConfig                                                   
0800cfd8  rl_rxMsg                                                             
0800ced8  rl_txMsg                                                             
0000c779  runPeopleDetection                                                   
00009ab1  scalbn                                                               
00009ab1  scalbnl                                                              
0000a101  setvbuf                                                              
0000dc41  soft_max                                                             
00010035  sprintf                                                              
00012389  sqrt                                                                 
00012389  sqrtl                                                                
00013219  strchr                                                               
00013121  strcmp                                                               
000133b1  strcpy                                                               
00012adb  strcspn                                                              
0001322f  strlen                                                               
00011cdd  strncpy                                                              
000124f1  strspn                                                               
00005961  strtod                                                               
000116a9  strtok                                                               
00005961  strtold                                                              
0800de80  ti_sysbios_BIOS_Module__state__V                                     
00012faf  ti_sysbios_BIOS_RtsGateProxy_Handle__label__S                        
0000e139  ti_sysbios_BIOS_RtsGateProxy_enter__E                                
0000e13d  ti_sysbios_BIOS_RtsGateProxy_leave__E                                
00013681  ti_sysbios_BIOS_RtsGateProxy_query__E                                
00011f85  ti_sysbios_BIOS_atExitFunc__I                                        
0001296d  ti_sysbios_BIOS_errorRaiseHook__I                                    
00013245  ti_sysbios_BIOS_exitFunc__I                                          
000136d1  ti_sysbios_BIOS_linkedWithIncorrectBootLibrary__E                    
0000bf67  ti_sysbios_BIOS_nullFunc__I                                          
00012991  ti_sysbios_BIOS_registerRTSLock__I                                   
000129b5  ti_sysbios_BIOS_removeRTSLock__I                                     
00012e65  ti_sysbios_BIOS_rtsLock__I                                           
00013139  ti_sysbios_BIOS_rtsUnlock__I                                         
000134a1  ti_sysbios_BIOS_setThreadType__E                                     
00011fb5  ti_sysbios_BIOS_startFunc__I                                         
000134b1  ti_sysbios_BIOS_start__E                                             
0000a7b4  ti_sysbios_family_arm_IntrinsicsSupport_maxbitA__I                   
0000a7b4  ti_sysbios_family_arm_IntrinsicsSupport_maxbit__E                    
0000e1cd  ti_sysbios_family_arm_TaskSupport_Module__startupDone__S             
0000ec94  ti_sysbios_family_arm_TaskSupport_buildTaskStack                     
000135b1  ti_sysbios_family_arm_TaskSupport_checkStack__E                      
000135c1  ti_sysbios_family_arm_TaskSupport_getStackAlignment__E               
00012e10  ti_sysbios_family_arm_TaskSupport_glue                               
00016288  ti_sysbios_family_arm_TaskSupport_stackAlignment__C                  
00011ff1  ti_sysbios_family_arm_TaskSupport_start__E                           
00012e2c  ti_sysbios_family_arm_TaskSupport_swap__E                            
0001628c  ti_sysbios_family_arm_exc_Exception_E_dataAbort__C                   
00016290  ti_sysbios_family_arm_exc_Exception_E_prefetchAbort__C               
00016294  ti_sysbios_family_arm_exc_Exception_E_swi__C                         
00016298  ti_sysbios_family_arm_exc_Exception_E_undefinedInstruction__C        
0800e090  ti_sysbios_family_arm_exc_Exception_Module_State_0_excActive__A      
0800e074  ti_sysbios_family_arm_exc_Exception_Module_State_0_excContext__A     
0800e078  ti_sysbios_family_arm_exc_Exception_Module_State_0_excStackBuffers__A
0800e098  ti_sysbios_family_arm_exc_Exception_Module_State_0_excStack_0__A     
0800e07c  ti_sysbios_family_arm_exc_Exception_Module_State_0_excStack__A       
000155a6  ti_sysbios_family_arm_exc_Exception_Module__id__C                    
0800df74  ti_sysbios_family_arm_exc_Exception_Module__state__V                 
000135d1  ti_sysbios_family_arm_exc_Exception_Module_startup__E                
00003ac1  ti_sysbios_family_arm_exc_Exception_excDumpContext__I                
0000a964  ti_sysbios_family_arm_exc_Exception_excHandlerAsm__I                 
0000a9cc  ti_sysbios_family_arm_exc_Exception_excHandlerDataAsm__I             
00006df1  ti_sysbios_family_arm_exc_Exception_excHandler__I                    
0001629c  ti_sysbios_family_arm_exc_Exception_excHookFuncs__A                  
000162a0  ti_sysbios_family_arm_exc_Exception_excHookFuncs__C                  
00010098  ti_sysbios_family_arm_exc_Exception_initCore0__I                     
000162a4  ti_sysbios_family_arm_v7a_Pmu_A_invalidCounterId__C                  
000162a8  ti_sysbios_family_arm_v7a_Pmu_Module__diagsEnabled__C                
000162ac  ti_sysbios_family_arm_v7a_Pmu_Module__diagsIncluded__C               
000162b0  ti_sysbios_family_arm_v7a_Pmu_Module__diagsMask__C                   
0001623a  ti_sysbios_family_arm_v7a_Pmu_Module__id__C                          
0800dfd0  ti_sysbios_family_arm_v7a_Pmu_Module__state__V                       
00012bc1  ti_sysbios_family_arm_v7a_Pmu_Module_startup__E                      
0000cd44  ti_sysbios_family_arm_v7a_Pmu_configureCounterI__I                   
0000b2e1  ti_sysbios_family_arm_v7a_Pmu_configureCounter__E                    
000134c0  ti_sysbios_family_arm_v7a_Pmu_disableInterruptI__E                   
000134d0  ti_sysbios_family_arm_v7a_Pmu_enableInterruptI__E                    
00008ea8  ti_sysbios_family_arm_v7a_Pmu_getEnabled__E                          
000134e0  ti_sysbios_family_arm_v7a_Pmu_getNumCounters__E                      
00013150  ti_sysbios_family_arm_v7a_Pmu_initCounters__I                        
000134f0  ti_sysbios_family_arm_v7a_Pmu_startCounterI__E                       
0000dcd1  ti_sysbios_family_arm_v7a_Pmu_startCounter__E                        
00013500  ti_sysbios_family_arm_v7a_Pmu_stopCounterI__E                        
000162b4  ti_sysbios_family_arm_v7r_tms570_Core_E_mismatchedIds__C             
00016528  ti_sysbios_family_arm_v7r_tms570_Core_Module__id__C                  
00011541  ti_sysbios_family_arm_v7r_tms570_Core_Module_startup__E              
00010c35  ti_sysbios_family_arm_v7r_tms570_Core_getId__E                       
000162b8  ti_sysbios_family_arm_v7r_tms570_Core_id__C                          
000162bc  ti_sysbios_family_arm_v7r_vim_Hwi_A_badChannelId__C                  
000162c0  ti_sysbios_family_arm_v7r_vim_Hwi_E_alreadyDefined__C                
000162c4  ti_sysbios_family_arm_v7r_vim_Hwi_E_badIntNum__C                     
000162c8  ti_sysbios_family_arm_v7r_vim_Hwi_E_phantomInterrupt__C              
000162cc  ti_sysbios_family_arm_v7r_vim_Hwi_E_undefined__C                     
000162d0  ti_sysbios_family_arm_v7r_vim_Hwi_E_unsupportedMaskingOption__C      
0000e141  ti_sysbios_family_arm_v7r_vim_Hwi_Instance_finalize__E               
00008a51  ti_sysbios_family_arm_v7r_vim_Hwi_Instance_init__E                   
000162d4  ti_sysbios_family_arm_v7r_vim_Hwi_LD_end__C                          
000162d8  ti_sysbios_family_arm_v7r_vim_Hwi_LM_begin__C                        
0800d4d8  ti_sysbios_family_arm_v7r_vim_Hwi_Module_State_0_dispatchTable__A    
08010d68  ti_sysbios_family_arm_v7r_vim_Hwi_Module_State_0_fiqStack__A         
000162dc  ti_sysbios_family_arm_v7r_vim_Hwi_Module__diagsEnabled__C            
000162e0  ti_sysbios_family_arm_v7r_vim_Hwi_Module__diagsIncluded__C           
000162e4  ti_sysbios_family_arm_v7r_vim_Hwi_Module__diagsMask__C               
0001652a  ti_sysbios_family_arm_v7r_vim_Hwi_Module__id__C                      
0001652c  ti_sysbios_family_arm_v7r_vim_Hwi_Module__loggerDefined__C           
000162e8  ti_sysbios_family_arm_v7r_vim_Hwi_Module__loggerFxn1__C              
000162ec  ti_sysbios_family_arm_v7r_vim_Hwi_Module__loggerFxn8__C              
000162f0  ti_sysbios_family_arm_v7r_vim_Hwi_Module__loggerObj__C               
0800dfec  ti_sysbios_family_arm_v7r_vim_Hwi_Module__root__V                    
00013169  ti_sysbios_family_arm_v7r_vim_Hwi_Module__startupDone__F             
00013169  ti_sysbios_family_arm_v7r_vim_Hwi_Module__startupDone__S             
0800dd78  ti_sysbios_family_arm_v7r_vim_Hwi_Module__state__V                   
000099c1  ti_sysbios_family_arm_v7r_vim_Hwi_Module_startup__E                  
000162f4  ti_sysbios_family_arm_v7r_vim_Hwi_NUM_INTERRUPTS__C                  
000160a8  ti_sysbios_family_arm_v7r_vim_Hwi_Object__DESC__C                    
00015f50  ti_sysbios_family_arm_v7r_vim_Hwi_Object__PARAMS__C                  
00012be1  ti_sysbios_family_arm_v7r_vim_Hwi_Object__delete__S                  
0800dddc  ti_sysbios_family_arm_v7r_vim_Hwi_Object__table__V                   
00013181  ti_sysbios_family_arm_v7r_vim_Hwi_Params__init__S                    
00015d50  ti_sysbios_family_arm_v7r_vim_Hwi_channelMap__A                      
000162f8  ti_sysbios_family_arm_v7r_vim_Hwi_channelMap__C                      
00012e81  ti_sysbios_family_arm_v7r_vim_Hwi_clearInterrupt__E                  
00010be1  ti_sysbios_family_arm_v7r_vim_Hwi_create                             
0000ea1d  ti_sysbios_family_arm_v7r_vim_Hwi_delete                             
00012c01  ti_sysbios_family_arm_v7r_vim_Hwi_disableInterrupt__E                
00005b51  ti_sysbios_family_arm_v7r_vim_Hwi_dispatchIRQC__I                    
0000d84c  ti_sysbios_family_arm_v7r_vim_Hwi_dispatchIRQ__I                     
00012c21  ti_sysbios_family_arm_v7r_vim_Hwi_enableInterrupt__E                 
00011181  ti_sysbios_family_arm_v7r_vim_Hwi_getStackInfo__E                    
0000d251  ti_sysbios_family_arm_v7r_vim_Hwi_initIntController__I               
00011a8c  ti_sysbios_family_arm_v7r_vim_Hwi_init__I                            
0001623c  ti_sysbios_family_arm_v7r_vim_Hwi_intReqEnaSet__A                    
000162fc  ti_sysbios_family_arm_v7r_vim_Hwi_intReqEnaSet__C                    
0000d2f1  ti_sysbios_family_arm_v7r_vim_Hwi_mapChannel__I                      
00016300  ti_sysbios_family_arm_v7r_vim_Hwi_phantomFunc__C                     
00010101  ti_sysbios_family_arm_v7r_vim_Hwi_phantomIntHandler__I               
00007541  ti_sysbios_family_arm_v7r_vim_Hwi_reconfig__E                        
00013621  ti_sysbios_family_arm_v7r_vim_Hwi_startup__E                         
00016304  ti_sysbios_family_arm_v7r_vim_Hwi_swiDisable__C                      
00016308  ti_sysbios_family_arm_v7r_vim_Hwi_swiRestoreHwi__C                   
000135e1  ti_sysbios_family_arm_v7r_vim_Hwi_switchFromBootStack__E             
0001630c  ti_sysbios_family_arm_v7r_vim_Hwi_taskDisable__C                     
00016310  ti_sysbios_family_arm_v7r_vim_Hwi_taskRestoreHwi__C                  
00000000  ti_sysbios_family_arm_v7r_vim_Hwi_vectors                            
fffffdec  ti_sysbios_family_arm_v7r_vim_Hwi_vim                                
0001624c  ti_sysbios_family_arm_v7r_vim_Hwi_wakeEnaSet__A                      
00016314  ti_sysbios_family_arm_v7r_vim_Hwi_wakeEnaSet__C                      
0000d640  ti_sysbios_family_xxx_Hwi_switchAndRunDispatchC                      
0000d5f4  ti_sysbios_family_xxx_Hwi_switchAndRunFunc                           
00012f95  ti_sysbios_gates_GateHwi_Handle__label__S                            
000136e1  ti_sysbios_gates_GateHwi_Instance_init__E                            
00015ff8  ti_sysbios_gates_GateHwi_Module__FXNS__C                             
0800dff4  ti_sysbios_gates_GateHwi_Module__root__V                             
000160c8  ti_sysbios_gates_GateHwi_Object__DESC__C                             
000161c4  ti_sysbios_gates_GateHwi_Object__PARAMS__C                           
00012021  ti_sysbios_gates_GateHwi_Object__create__S                           
00012c41  ti_sysbios_gates_GateHwi_Object__delete__S                           
0800e080  ti_sysbios_gates_GateHwi_Object__table__V                            
00013611  ti_sysbios_gates_GateHwi_enter__E                                    
00013631  ti_sysbios_gates_GateHwi_leave__E                                    
00013671  ti_sysbios_gates_GateHwi_query__E                                    
00016318  ti_sysbios_gates_GateMutex_A_badContext__C                           
00012faf  ti_sysbios_gates_GateMutex_Handle__label__S                          
0001631c  ti_sysbios_gates_GateMutex_Instance_State_sem__O                     
00013511  ti_sysbios_gates_GateMutex_Instance_finalize__E                      
00012ea1  ti_sysbios_gates_GateMutex_Instance_init__E                          
0001601c  ti_sysbios_gates_GateMutex_Module__FXNS__C                           
00016320  ti_sysbios_gates_GateMutex_Module__diagsEnabled__C                   
00016324  ti_sysbios_gates_GateMutex_Module__diagsIncluded__C                  
00016328  ti_sysbios_gates_GateMutex_Module__diagsMask__C                      
0001652e  ti_sysbios_gates_GateMutex_Module__id__C                             
0800dffc  ti_sysbios_gates_GateMutex_Module__root__V                           
000160e8  ti_sysbios_gates_GateMutex_Object__DESC__C                           
000161dc  ti_sysbios_gates_GateMutex_Object__PARAMS__C                         
00012051  ti_sysbios_gates_GateMutex_Object__create__S                         
000129d9  ti_sysbios_gates_GateMutex_Object__delete__S                         
0800dcfc  ti_sysbios_gates_GateMutex_Object__table__V                          
0000bd41  ti_sysbios_gates_GateMutex_enter__E                                  
00012ec1  ti_sysbios_gates_GateMutex_leave__E                                  
00013681  ti_sysbios_gates_GateMutex_query__E                                  
00010c35  ti_sysbios_hal_Core_CoreProxy_getId__E                               
0001632c  ti_sysbios_hal_Hwi_E_stackOverflow__C                                
00013169  ti_sysbios_hal_Hwi_HwiProxy_Module__startupDone__S                   
00013181  ti_sysbios_hal_Hwi_HwiProxy_Params__init__S                          
00012e81  ti_sysbios_hal_Hwi_HwiProxy_clearInterrupt__E                        
00012c01  ti_sysbios_hal_Hwi_HwiProxy_disableInterrupt__E                      
00012c21  ti_sysbios_hal_Hwi_HwiProxy_enableInterrupt__E                       
00011181  ti_sysbios_hal_Hwi_HwiProxy_getStackInfo__E                          
00013621  ti_sysbios_hal_Hwi_HwiProxy_startup__E                               
000135e1  ti_sysbios_hal_Hwi_HwiProxy_switchFromBootStack__E                   
00016530  ti_sysbios_hal_Hwi_Module__id__C                                     
00013451  ti_sysbios_hal_Hwi_Module_startup__E                                 
0800e004  ti_sysbios_hal_Hwi_Object__table__V                                  
00011ad1  ti_sysbios_hal_Hwi_checkStack                                        
00012e81  ti_sysbios_hal_Hwi_clearInterrupt__E                                 
00012c01  ti_sysbios_hal_Hwi_disableInterrupt__E                               
00012c21  ti_sysbios_hal_Hwi_enableInterrupt__E                                
00011181  ti_sysbios_hal_Hwi_getStackInfo__E                                   
00011ec1  ti_sysbios_hal_Hwi_initStack                                         
00013621  ti_sysbios_hal_Hwi_startup__E                                        
000135e1  ti_sysbios_hal_Hwi_switchFromBootStack__E                            
00016330  ti_sysbios_heaps_HeapBuf_Instance_State_freeList__O                  
0800e084  ti_sysbios_heaps_HeapBuf_Module__state__V                            
00009ba1  ti_sysbios_heaps_HeapBuf_Module_startup__E                           
00016334  ti_sysbios_heaps_HeapBuf_Object__count__C                            
00013521  ti_sysbios_heaps_HeapBuf_Object__get__S                              
00016338  ti_sysbios_heaps_HeapBuf_numConstructedHeaps__C                      
0001633c  ti_sysbios_heaps_HeapMem_A_align__C                                  
00016340  ti_sysbios_heaps_HeapMem_A_heapSize__C                               
00016344  ti_sysbios_heaps_HeapMem_A_invalidFree__C                            
00016348  ti_sysbios_heaps_HeapMem_A_zeroBlock__C                              
0001634c  ti_sysbios_heaps_HeapMem_E_memory__C                                 
00012fc9  ti_sysbios_heaps_HeapMem_Handle__label__S                            
08000000  ti_sysbios_heaps_HeapMem_Instance_State_0_buf__A                     
00007d31  ti_sysbios_heaps_HeapMem_Instance_init__E                            
00012faf  ti_sysbios_heaps_HeapMem_Module_GateProxy_Handle__label__S           
0000f63d  ti_sysbios_heaps_HeapMem_Module_GateProxy_enter__E                   
000100fd  ti_sysbios_heaps_HeapMem_Module_GateProxy_leave__E                   
00013681  ti_sysbios_heaps_HeapMem_Module_GateProxy_query__E                   
00015fac  ti_sysbios_heaps_HeapMem_Module__FXNS__C                             
00016350  ti_sysbios_heaps_HeapMem_Module__diagsEnabled__C                     
00016354  ti_sysbios_heaps_HeapMem_Module__diagsIncluded__C                    
00016358  ti_sysbios_heaps_HeapMem_Module__diagsMask__C                        
0001635c  ti_sysbios_heaps_HeapMem_Module__gateObj__C                          
00016532  ti_sysbios_heaps_HeapMem_Module__id__C                               
0800e00c  ti_sysbios_heaps_HeapMem_Module__root__V                             
00016108  ti_sysbios_heaps_HeapMem_Object__DESC__C                             
00016040  ti_sysbios_heaps_HeapMem_Object__PARAMS__C                           
00016360  ti_sysbios_heaps_HeapMem_Object__count__C                            
00012081  ti_sysbios_heaps_HeapMem_Object__create__S                           
00012c61  ti_sysbios_heaps_HeapMem_Object__delete__S                           
000133c5  ti_sysbios_heaps_HeapMem_Object__get__S                              
0800df30  ti_sysbios_heaps_HeapMem_Object__table__V                            
00004901  ti_sysbios_heaps_HeapMem_allocUnprotected__E                         
00010371  ti_sysbios_heaps_HeapMem_alloc__E                                    
00003591  ti_sysbios_heaps_HeapMem_freeUnprotected__E                          
000120b1  ti_sysbios_heaps_HeapMem_free__E                                     
00010c41  ti_sysbios_heaps_HeapMem_getStats__E                                 
00011b11  ti_sysbios_heaps_HeapMem_init__I                                     
00013641  ti_sysbios_heaps_HeapMem_isBlocking__E                               
00016364  ti_sysbios_heaps_HeapMem_reqAlign__C                                 
00016368  ti_sysbios_knl_Clock_LM_begin__C                                     
0001636c  ti_sysbios_knl_Clock_LM_tick__C                                      
00016370  ti_sysbios_knl_Clock_LW_delayed__C                                   
00016374  ti_sysbios_knl_Clock_Module_State_clockQ__O                          
00016378  ti_sysbios_knl_Clock_Module__diagsEnabled__C                         
0001637c  ti_sysbios_knl_Clock_Module__diagsIncluded__C                        
00016380  ti_sysbios_knl_Clock_Module__diagsMask__C                            
00016534  ti_sysbios_knl_Clock_Module__id__C                                   
00016536  ti_sysbios_knl_Clock_Module__loggerDefined__C                        
00016384  ti_sysbios_knl_Clock_Module__loggerFxn1__C                           
00016388  ti_sysbios_knl_Clock_Module__loggerFxn2__C                           
0001638c  ti_sysbios_knl_Clock_Module__loggerObj__C                            
0800de08  ti_sysbios_knl_Clock_Module__state__V                                
00012a01  ti_sysbios_knl_Clock_Module_startup__E                               
000131e9  ti_sysbios_knl_Clock_TimerProxy_Module__startupDone__S               
00010d55  ti_sysbios_knl_Clock_TimerProxy_getMaxTicks__E                       
0000b5f1  ti_sysbios_knl_Clock_TimerProxy_startup__E                           
000123e1  ti_sysbios_knl_Clock_doTick__I                                       
00010171  ti_sysbios_knl_Clock_logTick__E                                      
00007fb1  ti_sysbios_knl_Clock_workFunc__E                                     
00016390  ti_sysbios_knl_Event_A_badContext__C                                 
00016394  ti_sysbios_knl_Event_A_eventInUse__C                                 
00016398  ti_sysbios_knl_Event_A_nullEventId__C                                
0001639c  ti_sysbios_knl_Event_A_nullEventMasks__C                             
000163a0  ti_sysbios_knl_Event_A_pendTaskDisabled__C                           
000163a4  ti_sysbios_knl_Event_Instance_State_pendQ__O                         
000133e1  ti_sysbios_knl_Event_Instance_init__E                                
000163a8  ti_sysbios_knl_Event_LM_pend__C                                      
000163ac  ti_sysbios_knl_Event_LM_post__C                                      
000163b0  ti_sysbios_knl_Event_Module__diagsEnabled__C                         
000163b4  ti_sysbios_knl_Event_Module__diagsIncluded__C                        
000163b8  ti_sysbios_knl_Event_Module__diagsMask__C                            
00016538  ti_sysbios_knl_Event_Module__id__C                                   
0001653a  ti_sysbios_knl_Event_Module__loggerDefined__C                        
000163bc  ti_sysbios_knl_Event_Module__loggerFxn4__C                           
000163c0  ti_sysbios_knl_Event_Module__loggerFxn8__C                           
000163c4  ti_sysbios_knl_Event_Module__loggerObj__C                            
0800e014  ti_sysbios_knl_Event_Module__root__V                                 
00016128  ti_sysbios_knl_Event_Object__DESC__C                                 
000161f4  ti_sysbios_knl_Event_Object__PARAMS__C                               
000120e1  ti_sysbios_knl_Event_create                                          
00012171  ti_sysbios_knl_Event_pendTimeout__I                                  
00002921  ti_sysbios_knl_Event_pend__E                                         
000070f1  ti_sysbios_knl_Event_post__E                                         
0001625c  ti_sysbios_knl_Idle_funcList__A                                      
00016264  ti_sysbios_knl_Idle_funcList__C                                      
00013261  ti_sysbios_knl_Idle_loop__E                                          
00012641  ti_sysbios_knl_Idle_run__E                                           
0000a7b4  ti_sysbios_knl_Intrinsics_SupportProxy_maxbit__E                     
0000a7b4  ti_sysbios_knl_Intrinsics_maxbit__E                                  
00013651  ti_sysbios_knl_Queue_Instance_init__E                                
0800e01c  ti_sysbios_knl_Queue_Module__root__V                                 
00016148  ti_sysbios_knl_Queue_Object__DESC__C                                 
0001620c  ti_sysbios_knl_Queue_Object__PARAMS__C                               
0000cf35  ti_sysbios_knl_Queue_Object__get__S                                  
0001240d  ti_sysbios_knl_Queue_construct                                       
00012edd  ti_sysbios_knl_Queue_destruct                                        
000135a1  ti_sysbios_knl_Queue_empty__E                                        
000163c8  ti_sysbios_knl_Semaphore_A_badContext__C                             
000163cc  ti_sysbios_knl_Semaphore_A_noEvents__C                               
000163d0  ti_sysbios_knl_Semaphore_A_overflow__C                               
000163d4  ti_sysbios_knl_Semaphore_A_pendTaskDisabled__C                       
000163d8  ti_sysbios_knl_Semaphore_Instance_State_pendQ__O                     
00013531  ti_sysbios_knl_Semaphore_Instance_finalize__E                        
0000d391  ti_sysbios_knl_Semaphore_Instance_init__E                            
000163dc  ti_sysbios_knl_Semaphore_LM_pend__C                                  
000163e0  ti_sysbios_knl_Semaphore_LM_post__C                                  
000163e4  ti_sysbios_knl_Semaphore_Module__diagsEnabled__C                     
000163e8  ti_sysbios_knl_Semaphore_Module__diagsIncluded__C                    
000163ec  ti_sysbios_knl_Semaphore_Module__diagsMask__C                        
0001653c  ti_sysbios_knl_Semaphore_Module__id__C                               
0001653e  ti_sysbios_knl_Semaphore_Module__loggerDefined__C                    
000163f0  ti_sysbios_knl_Semaphore_Module__loggerFxn2__C                       
000163f4  ti_sysbios_knl_Semaphore_Module__loggerFxn4__C                       
000163f8  ti_sysbios_knl_Semaphore_Module__loggerObj__C                        
0800e024  ti_sysbios_knl_Semaphore_Module__root__V                             
00016168  ti_sysbios_knl_Semaphore_Object__DESC__C                             
00016064  ti_sysbios_knl_Semaphore_Object__PARAMS__C                           
00012a25  ti_sysbios_knl_Semaphore_Object__delete__S                           
00013199  ti_sysbios_knl_Semaphore_Params__init__S                             
00012111  ti_sysbios_knl_Semaphore_construct                                   
00011e19  ti_sysbios_knl_Semaphore_create                                      
00010d59  ti_sysbios_knl_Semaphore_delete                                      
00012c81  ti_sysbios_knl_Semaphore_destruct                                    
000121a1  ti_sysbios_knl_Semaphore_pendTimeout__I                              
00002cc1  ti_sysbios_knl_Semaphore_pend__E                                     
00006f71  ti_sysbios_knl_Semaphore_post__E                                     
000163fc  ti_sysbios_knl_Swi_LD_end__C                                         
00016400  ti_sysbios_knl_Swi_LM_begin__C                                       
00016404  ti_sysbios_knl_Swi_LM_post__C                                        
0800d9a8  ti_sysbios_knl_Swi_Module_State_0_readyQ__A                          
00016408  ti_sysbios_knl_Swi_Module__diagsEnabled__C                           
0001640c  ti_sysbios_knl_Swi_Module__diagsIncluded__C                          
00016410  ti_sysbios_knl_Swi_Module__diagsMask__C                              
00016540  ti_sysbios_knl_Swi_Module__id__C                                     
00016542  ti_sysbios_knl_Swi_Module__loggerDefined__C                          
00016414  ti_sysbios_knl_Swi_Module__loggerFxn1__C                             
00016418  ti_sysbios_knl_Swi_Module__loggerFxn4__C                             
0001641c  ti_sysbios_knl_Swi_Module__loggerObj__C                              
0800dee4  ti_sysbios_knl_Swi_Module__state__V                                  
00012441  ti_sysbios_knl_Swi_Module_startup__E                                 
00016420  ti_sysbios_knl_Swi_Object__count__C                                  
000133f5  ti_sysbios_knl_Swi_Object__get__S                                    
0800ddac  ti_sysbios_knl_Swi_Object__table__V                                  
00013541  ti_sysbios_knl_Swi_disable__E                                        
0000c821  ti_sysbios_knl_Swi_post__E                                           
000109e1  ti_sysbios_knl_Swi_restoreHwi__E                                     
00010ca1  ti_sysbios_knl_Swi_runLoop__I                                        
00008b71  ti_sysbios_knl_Swi_run__I                                            
0000fdd1  ti_sysbios_knl_Swi_schedule__I                                       
00010d01  ti_sysbios_knl_Swi_startup__E                                        
00016424  ti_sysbios_knl_Task_A_badPriority__C                                 
00016428  ti_sysbios_knl_Task_A_badTaskState__C                                
0001642c  ti_sysbios_knl_Task_A_badThreadType__C                               
00016430  ti_sysbios_knl_Task_A_badTimeout__C                                  
00016434  ti_sysbios_knl_Task_A_noPendElem__C                                  
00016438  ti_sysbios_knl_Task_A_sleepTaskDisabled__C                           
0001643c  ti_sysbios_knl_Task_E_spOutOfBounds__C                               
00016440  ti_sysbios_knl_Task_E_stackOverflow__C                               
0800f098  ti_sysbios_knl_Task_Instance_State_0_stack__A                        
00003d41  ti_sysbios_knl_Task_Instance_finalize__E                             
000060f1  ti_sysbios_knl_Task_Instance_init__E                                 
00016444  ti_sysbios_knl_Task_LD_block__C                                      
00016448  ti_sysbios_knl_Task_LD_exit__C                                       
0001644c  ti_sysbios_knl_Task_LD_ready__C                                      
00016450  ti_sysbios_knl_Task_LM_sleep__C                                      
00016454  ti_sysbios_knl_Task_LM_switch__C                                     
0800e088  ti_sysbios_knl_Task_Module_State_0_idleTask__A                       
0800da28  ti_sysbios_knl_Task_Module_State_0_readyQ__A                         
00016458  ti_sysbios_knl_Task_Module_State_inactiveQ__O                        
0001645c  ti_sysbios_knl_Task_Module__diagsEnabled__C                          
00016460  ti_sysbios_knl_Task_Module__diagsIncluded__C                         
00016464  ti_sysbios_knl_Task_Module__diagsMask__C                             
00016544  ti_sysbios_knl_Task_Module__id__C                                    
00016546  ti_sysbios_knl_Task_Module__loggerDefined__C                         
00016468  ti_sysbios_knl_Task_Module__loggerFxn2__C                            
0001646c  ti_sysbios_knl_Task_Module__loggerFxn4__C                            
00016470  ti_sysbios_knl_Task_Module__loggerObj__C                             
0800e02c  ti_sysbios_knl_Task_Module__root__V                                  
0800dc74  ti_sysbios_knl_Task_Module__state__V                                 
00005d41  ti_sysbios_knl_Task_Module_startup__E                                
00016188  ti_sysbios_knl_Task_Object__DESC__C                                  
00015ea0  ti_sysbios_knl_Task_Object__PARAMS__C                                
00016474  ti_sysbios_knl_Task_Object__count__C                                 
00013551  ti_sysbios_knl_Task_Object__get__S                                   
0800db20  ti_sysbios_knl_Task_Object__table__V                                 
000131b1  ti_sysbios_knl_Task_Params__init__S                                  
0000e1cd  ti_sysbios_knl_Task_SupportProxy_Module__startupDone__S              
000135b1  ti_sysbios_knl_Task_SupportProxy_checkStack__E                       
000135c1  ti_sysbios_knl_Task_SupportProxy_getStackAlignment__E                
00011ff1  ti_sysbios_knl_Task_SupportProxy_start__E                            
00012e2c  ti_sysbios_knl_Task_SupportProxy_swap__E                             
00016478  ti_sysbios_knl_Task_allBlockedFunc__C                                
00011591  ti_sysbios_knl_Task_allBlockedFunction__I                            
0000cf41  ti_sysbios_knl_Task_blockI__E                                        
0000aca1  ti_sysbios_knl_Task_checkStacks__E                                   
000111cd  ti_sysbios_knl_Task_create                                           
0001647c  ti_sysbios_knl_Task_defaultStackHeap__C                              
00016480  ti_sysbios_knl_Task_defaultStackSize__C                              
00013561  ti_sysbios_knl_Task_disable__E                                       
000131d1  ti_sysbios_knl_Task_enter__I                                         
0000a6e1  ti_sysbios_knl_Task_exit__E                                          
00016484  ti_sysbios_knl_Task_numConstructedTasks__C                           
0000b091  ti_sysbios_knl_Task_postInit__I                                      
00012a51  ti_sysbios_knl_Task_restoreHwi__E                                    
0000a7c1  ti_sysbios_knl_Task_schedule__I                                      
00013281  ti_sysbios_knl_Task_sleepTimeout__I                                  
00004b31  ti_sysbios_knl_Task_sleep__E                                         
0000be01  ti_sysbios_knl_Task_startCore__E                                     
00013691  ti_sysbios_knl_Task_startup__E                                       
0000dd61  ti_sysbios_knl_Task_unblockI__E                                      
00016488  ti_sysbios_timers_rti_Timer_E_cannotSupport__C                       
0800df48  ti_sysbios_timers_rti_Timer_Module_State_0_device__A                 
0800e034  ti_sysbios_timers_rti_Timer_Module_State_0_handles__A                
0800df98  ti_sysbios_timers_rti_Timer_Module_State_0_intFreqs__A               
0001648c  ti_sysbios_timers_rti_Timer_Module__diagsEnabled__C                  
00016490  ti_sysbios_timers_rti_Timer_Module__diagsIncluded__C                 
00016494  ti_sysbios_timers_rti_Timer_Module__diagsMask__C                     
00016548  ti_sysbios_timers_rti_Timer_Module__id__C                            
000131e9  ti_sysbios_timers_rti_Timer_Module__startupDone__F                   
000131e9  ti_sysbios_timers_rti_Timer_Module__startupDone__S                   
0800dfa8  ti_sysbios_timers_rti_Timer_Module__state__V                         
00006ae1  ti_sysbios_timers_rti_Timer_Module_startup__E                        
0800dd3c  ti_sysbios_timers_rti_Timer_Object__table__V                         
0001654a  ti_sysbios_timers_rti_Timer_continueOnSuspend__C                     
000091d1  ti_sysbios_timers_rti_Timer_getFreq__E                               
000136a1  ti_sysbios_timers_rti_Timer_getMaxTicks__E                           
0000ea21  ti_sysbios_timers_rti_Timer_initDevice__I                            
00016498  ti_sysbios_timers_rti_Timer_numTimerDevices__C                       
00012471  ti_sysbios_timers_rti_Timer_periodicStub__E                          
00011b51  ti_sysbios_timers_rti_Timer_setPeriod__E                             
0001649c  ti_sysbios_timers_rti_Timer_startupNeeded__C                         
0000b5f1  ti_sysbios_timers_rti_Timer_startup__E                               
000116f1  ti_sysbios_timers_rti_Timer_stop__E                                  
000123b5  unlink                                                               
0000e505  vsnprintf                                                            
0001260d  write                                                                
000164a0  xdc_runtime_Assert_E_assertFailed__C                                 
000103d1  xdc_runtime_Assert_raise__I                                          
000164a4  xdc_runtime_Core_A_initializedParams__C                              
000164a8  xdc_runtime_Core_Module__diagsEnabled__C                             
000164ac  xdc_runtime_Core_Module__diagsIncluded__C                            
000164b0  xdc_runtime_Core_Module__diagsMask__C                                
0001654c  xdc_runtime_Core_Module__id__C                                       
00010d61  xdc_runtime_Core_assignLabel__I                                      
00011271  xdc_runtime_Core_assignParams__I                                     
00008eb1  xdc_runtime_Core_constructObject__I                                  
00007e71  xdc_runtime_Core_createObject__I                                     
0000ed11  xdc_runtime_Core_deleteObject__I                                     
000164b4  xdc_runtime_Error_E_memory__C                                        
0800dea4  xdc_runtime_Error_IgnoreBlock                                        
000164b8  xdc_runtime_Error_Module__diagsEnabled__C                            
000164bc  xdc_runtime_Error_Module__diagsIncluded__C                           
000164c0  xdc_runtime_Error_Module__diagsMask__C                               
0001654e  xdc_runtime_Error_Module__loggerDefined__C                           
000164c4  xdc_runtime_Error_Module__loggerFxn8__C                              
000164c8  xdc_runtime_Error_Module__loggerObj__C                               
0800e092  xdc_runtime_Error_Module__state__V                                   
00013201  xdc_runtime_Error_init__E                                            
00016550  xdc_runtime_Error_maxDepth__C                                        
000067c1  xdc_runtime_Error_policyDefault__E                                   
000164cc  xdc_runtime_Error_policyFxn__C                                       
000164d0  xdc_runtime_Error_policy__C                                          
0000f641  xdc_runtime_Error_print__E                                           
000164d4  xdc_runtime_Error_raiseHook__C                                       
000164d8  xdc_runtime_IGateProvider_Interface__BASE__C                         
000164dc  xdc_runtime_IHeap_Interface__BASE__C                                 
000164e0  xdc_runtime_IModule_Interface__BASE__C                               
000164e4  xdc_runtime_Log_L_error__C                                           
00012f95  xdc_runtime_Main_Module_GateProxy_Handle__label__S                   
00013671  xdc_runtime_Main_Module_GateProxy_query__E                           
00016552  xdc_runtime_Main_Module__id__C                                       
00012fc9  xdc_runtime_Memory_HeapProxy_Handle__label__S                        
00010c95  xdc_runtime_Memory_HeapProxy_alloc__E                                
00010cf5  xdc_runtime_Memory_HeapProxy_free__E                                 
00016554  xdc_runtime_Memory_Module__id__C                                     
0800e08c  xdc_runtime_Memory_Module__state__V                                  
0000e1d1  xdc_runtime_Memory_alloc__E                                          
000164e8  xdc_runtime_Memory_defaultHeapInstance__C                            
00013571  xdc_runtime_Memory_free__E                                           
0800e03c  xdc_runtime_Registry_Module__state__V                                
0800e044  xdc_runtime_Startup_Module__state__V                                 
00000001  xdc_runtime_Startup__EXECFXN__C                                      
00000001  xdc_runtime_Startup__RESETFXN__C                                     
000164ec  xdc_runtime_Startup_execImpl__C                                      
000101e1  xdc_runtime_Startup_exec__E                                          
00013463  xdc_runtime_Startup_exec__I                                          
0001626c  xdc_runtime_Startup_firstFxns__A                                     
00016274  xdc_runtime_Startup_firstFxns__C                                     
0001627c  xdc_runtime_Startup_lastFxns__C                                      
000164f0  xdc_runtime_Startup_maxPasses__C                                     
0000c22f  xdc_runtime_Startup_reset__I                                         
000135f1  xdc_runtime_Startup_rtsDone__E                                       
00016224  xdc_runtime_Startup_sfxnRts__A                                       
000164f4  xdc_runtime_Startup_sfxnRts__C                                       
00015f80  xdc_runtime_Startup_sfxnTab__A                                       
000164f8  xdc_runtime_Startup_sfxnTab__C                                       
00008231  xdc_runtime_Startup_startMods__I                                     
00012671  xdc_runtime_SysStd_abort__E                                          
00013601  xdc_runtime_SysStd_exit__E                                           
000136b1  xdc_runtime_SysStd_putch__E                                          
000136c1  xdc_runtime_SysStd_ready__E                                          
00012f95  xdc_runtime_System_Module_GateProxy_Handle__label__S                 
00010d5d  xdc_runtime_System_Module_GateProxy_enter__E                         
00011035  xdc_runtime_System_Module_GateProxy_leave__E                         
00013671  xdc_runtime_System_Module_GateProxy_query__E                         
0800dec4  xdc_runtime_System_Module_State_0_atexitHandlers__A                  
000164fc  xdc_runtime_System_Module__gateObj__C                                
0800e04c  xdc_runtime_System_Module__state__V                                  
00013661  xdc_runtime_System_Module_startup__E                                 
00012671  xdc_runtime_System_SupportProxy_abort__E                             
00013601  xdc_runtime_System_SupportProxy_exit__E                              
000136b1  xdc_runtime_System_SupportProxy_putch__E                             
000136c1  xdc_runtime_System_SupportProxy_ready__E                             
00016500  xdc_runtime_System_abortFxn__C                                       
00010f99  xdc_runtime_System_abortStd__E                                       
00012fe3  xdc_runtime_System_aprintf__E                                        
000126a1  xdc_runtime_System_aprintf_va__F                                     
000115e1  xdc_runtime_System_atexit__E                                         
000017d1  xdc_runtime_System_doPrint__I                                        
00016504  xdc_runtime_System_exitFxn__C                                        
00010fa1  xdc_runtime_System_exitStd__E                                        
00011041  xdc_runtime_System_exit__E                                           
00016508  xdc_runtime_System_extendFxn__C                                      
0001650c  xdc_runtime_System_maxAtexitHandlers__C                              
000098c1  xdc_runtime_System_printfExtend__I                                   
00012ffd  xdc_runtime_System_printf__E                                         
00012801  xdc_runtime_System_printf_va__F                                      
00016556  xdc_runtime_Text_charCnt__C                                          
000136e8  xdc_runtime_Text_charTab__A                                          
00016510  xdc_runtime_Text_charTab__C                                          
00016558  xdc_runtime_Text_isLoaded__C                                         
00016514  xdc_runtime_Text_nameEmpty__C                                        
00016518  xdc_runtime_Text_nameStatic__C                                       
0001651c  xdc_runtime_Text_nameUnknown__C                                      
00015b40  xdc_runtime_Text_nodeTab__A                                          
00016520  xdc_runtime_Text_nodeTab__C                                          
00012141  xdc_runtime_Text_printVisFxn__I                                      
00010431  xdc_runtime_Text_putLab__E                                           
0000c0d1  xdc_runtime_Text_putMod__E                                           
0000cd51  xdc_runtime_Text_putSite__E                                          
0001655a  xdc_runtime_Text_registryModsLastId__C                               
0001655c  xdc_runtime_Text_unnamedModsLastId__C                                
0000f6b1  xdc_runtime_Text_visitRope2__I                                       
00016524  xdc_runtime_Text_visitRopeFxn__C                                     
00013581  xdc_runtime_Text_visitRope__I                                        
000112c1  xdc_runtime_Text_xprintf__I                                          


GLOBAL SYMBOLS: SORTED BY Symbol Address 

address   name                                                                 
-------   ----                                                                 
00000000  __ASM__                                                              
00000000  ti_sysbios_family_arm_v7r_vim_Hwi_vectors                            
00000001  xdc_runtime_Startup__EXECFXN__C                                      
00000001  xdc_runtime_Startup__RESETFXN__C                                     
000000a9  __ISA__                                                              
000000bb  __PLAT__                                                             
000000df  __TARG__                                                             
00000106  __TRDR__                                                             
000008c5  __TI_printfi                                                         
00001000  __STACK_SIZE                                                         
0000117d  MmwDemo_CLIInit                                                      
000017cb  HwiP_restore                                                         
000017d1  xdc_runtime_System_doPrint__I                                        
00001cb5  MmwDemo_mssInitTask                                                  
00002921  ti_sysbios_knl_Event_pend__E                                         
00002cb5  CLI_getMMWaveExtensionConfig                                         
00002cc1  ti_sysbios_knl_Semaphore_pend__E                                     
00002fd1  SOC_deviceInit                                                       
000032d0  __aeabi_uldivmod                                                     
00003589  HwiP_disable                                                         
00003591  ti_sysbios_heaps_HeapMem_freeUnprotected__E                          
00003835  MMWave_deviceExecuteFxn                                              
00003ab9  MMWave_decodeErrorLevel                                              
00003ac1  ti_sysbios_family_arm_exc_Exception_excDumpContext__I                
00003d41  ti_sysbios_knl_Task_Instance_finalize__E                             
00003fa9  Mailbox_open                                                         
00004209  exp                                                                  
00004209  expl                                                                 
000046b5  MmwDemo_mssCtrlPathTask                                              
00004901  ti_sysbios_heaps_HeapMem_allocUnprotected__E                         
00004b29  SemaphoreP_Params_init                                               
00004b31  ti_sysbios_knl_Task_sleep__E                                         
00004f65  MmwDemo_mssDataPathConfig                                            
00005379  CRC_open                                                             
00005771  DMA_setChannelParams                                                 
00005961  strtod                                                               
00005961  strtold                                                              
00005b51  ti_sysbios_family_arm_v7r_vim_Hwi_dispatchIRQC__I                    
00005d35  MMWave_osalMutexUnlock                                               
00005d41  ti_sysbios_knl_Task_Module_startup__E                                
00005fe7  __TI_cleanup                                                         
00006013  freopen                                                              
0000603d  fopen                                                                
000060e5  MMWave_osalSemSignal                                                 
000060f1  ti_sysbios_knl_Task_Instance_init__E                                 
000062b9  MmwDemo_bpmConfig                                                    
000067b5  MmwDemo_mboxCallback                                                 
000067c1  xdc_runtime_Error_policyDefault__E                                   
0000695d  rlDriverCmdInvoke                                                    
00006ae1  ti_sysbios_timers_rti_Timer_Module_startup__E                        
00006c65  rlDriverRxHdrRead                                                    
00006de5  UART_Params_init                                                     
00006df1  ti_sysbios_family_arm_exc_Exception_excHandler__I                    
00006f6d  HwiP_disableInterrupt                                                
00006f71  ti_sysbios_knl_Semaphore_post__E                                     
000070f1  ti_sysbios_knl_Event_post__E                                         
00007265  GPIO_setConfig                                                       
000073d5  estimateCircleState                                                  
00007541  ti_sysbios_family_arm_v7r_vim_Hwi_reconfig__E                        
000076a1  main                                                                 
00007d2b  rlGetSubBlockId                                                      
00007d31  ti_sysbios_heaps_HeapMem_Instance_init__E                            
00007e71  xdc_runtime_Core_createObject__I                                     
00007fb1  ti_sysbios_knl_Clock_workFunc__E                                     
000080ed  fputs                                                                
000081fd  puts                                                                 
00008225  UartSci_isDMAEnabled                                                 
00008231  xdc_runtime_Startup_startMods__I                                     
00008365  postProcessing                                                       
00008491  MMWave_openLink                                                      
000085b9  rlDriverMsgRead                                                      
00008a49  rlDriverConstructOutMsg                                              
00008a51  ti_sysbios_family_arm_v7r_vim_Hwi_Instance_init__E                   
00008b69  rlDriverGetHandle                                                    
00008b71  ti_sysbios_knl_Swi_run__I                                            
00008c89  rlDriverCmdSendRetry                                                 
00008d9d  MMWave_deviceInitFxn                                                 
00008ea8  ti_sysbios_family_arm_v7a_Pmu_getEnabled__E                          
00008eb1  xdc_runtime_Core_constructObject__I                                  
00008fbd  Mailbox_write                                                        
000090c5  MmwDemo_mssMmwaveEventCallbackFxn                                    
000091d1  ti_sysbios_timers_rti_Timer_getFreq__E                               
000093d5  MMWave_startLink                                                     
000094d5  CRC_computeSignature                                                 
000095d1  DMA_disableInterrupt                                                 
000096cd  rlDriverInit                                                         
000097c9  rlDriverRdVerifyMsg                                                  
000098c1  xdc_runtime_System_printfExtend__I                                   
000099b9  rlGetSubBlockLen                                                     
000099c1  ti_sysbios_family_arm_v7r_vim_Hwi_Module_startup__E                  
00009ab1  ldexp                                                                
00009ab1  ldexpl                                                               
00009ab1  scalbn                                                               
00009ab1  scalbnl                                                              
00009b9d  MMWave_listGetHead                                                   
00009ba1  ti_sysbios_heaps_HeapBuf_Module_startup__E                           
00009c8d  CLI_open                                                             
00009d75  Inference                                                            
00009e5d  DMA_clearChannelInterruptFlag                                        
0000a101  setvbuf                                                              
0000a1dd  DMA_enableInterrupt                                                  
0000a2b5  MMWave_init                                                          
0000a465  Mailbox_read                                                         
0000a539  MmwDemo_mssDataPathStop                                              
0000a60d  rlSetMultiBpmChirpConfig                                             
0000a6e1  ti_sysbios_knl_Task_exit__E                                          
0000a7b4  ti_sysbios_family_arm_IntrinsicsSupport_maxbitA__I                   
0000a7b4  ti_sysbios_family_arm_IntrinsicsSupport_maxbit__E                    
0000a7b4  ti_sysbios_knl_Intrinsics_SupportProxy_maxbit__E                     
0000a7b4  ti_sysbios_knl_Intrinsics_maxbit__E                                  
0000a7c1  ti_sysbios_knl_Task_schedule__I                                      
0000a895  SOC_controlSecureFirewall                                            
0000a964  ti_sysbios_family_arm_exc_Exception_excHandlerAsm__I                 
0000a9cc  ti_sysbios_family_arm_exc_Exception_excHandlerDataAsm__I             
0000aa35  rlRfCalibDataRestore                                                 
0000ab01  rlSetChirpConfig                                                     
0000abcd  __TI_doflush                                                         
0000ac19  fflush                                                               
0000ac99  MMWave_listGetNext                                                   
0000aca1  ti_sysbios_knl_Task_checkStacks__E                                   
0000ad6d  MMWave_addChirp                                                      
0000ae35  MMWave_configBPM                                                     
0000aefd  MMWave_flushCfg                                                      
0000afc5  MMWave_getChirpHandle                                                
0000b091  ti_sysbios_knl_Task_postInit__I                                      
0000b2e1  ti_sysbios_family_arm_v7a_Pmu_configureCounter__E                    
0000b465  rlDriverMsgWrite                                                     
0000b525  rlSetFrameConfig                                                     
0000b5e5  __TI_zero_init                                                       
0000b5f1  ti_sysbios_knl_Clock_TimerProxy_startup__E                           
0000b5f1  ti_sysbios_timers_rti_Timer_startup__E                               
0000b6b1  GPIO_write                                                           
0000b9a1  correlation_function                                                 
0000ba5d  open                                                                 
0000bbd1  SOC_MPUEnable                                                        
0000bbef  SOC_MPUDisable                                                       
0000bc0d  SOC_MPUEnableBackgroundRegion                                        
0000bc23  SOC_MPUDisableBackgroundRegion                                       
0000bc39  SOC_MPUGetNumberOfRegions                                            
0000bc43  SOC_MPUAreRegionsSeparate                                            
0000bc4b  SOC_MPUSetRegion                                                     
0000bc51  SOC_MPUGetRegion                                                     
0000bc57  SOC_MPUSetRegionBaseAddress                                          
0000bc5d  SOC_MPUGetRegionBaseAddress                                          
0000bc63  SOC_MPUSetRegionTypeAndPermission                                    
0000bc6d  SOC_MPUGetRegionType                                                 
0000bc77  SOC_MPUGetRegionPermission                                           
0000bc81  SOC_MPUSetRegionSizeRegister                                         
0000bc87  __aeabi_idiv0                                                        
0000bc89  MmwDemo_mssDataPathStart                                             
0000bd41  ti_sysbios_gates_GateMutex_enter__E                                  
0000bdf5  rlDriverGetPlatformId                                                
0000be01  ti_sysbios_knl_Task_startCore__E                                     
0000beb5  UartSci_openDMA                                                      
0000bf67  ti_sysbios_BIOS_nullFunc__I                                          
0000bf69  MMWave_addProfile                                                    
0000c019  rlSetProfileConfig                                                   
0000c0d1  xdc_runtime_Text_putMod__E                                           
0000c181  __TI_wrt_ok                                                          
0000c1e5  __TI_rd_ok                                                           
0000c22f  xdc_runtime_Startup_reset__I                                         
0000c231  ESM_processInterrupt                                                 
0000c389  CLI_MMWaveExtensionHelp                                              
0000c4d9  MMWave_getBpmChirpHandle                                             
0000c629  Pinmux_Set_OverrideCtrl                                              
0000c6d1  rlSetAdvFrameConfig                                                  
0000c779  runPeopleDetection                                                   
0000c821  ti_sysbios_knl_Swi_post__E                                           
0000c8c9  DMA_assignChannel                                                    
0000c96d  DMA_getChannelInterruptFlag                                          
0000ca11  ESM_init                                                             
0000cab5  MMWave_addBpmChirp                                                   
0000cb59  MMWave_start                                                         
0000cbfd  MmwDemo_waitSensorStopComplete                                       
0000cd44  ti_sysbios_family_arm_v7a_Pmu_configureCounterI__I                   
0000cd51  xdc_runtime_Text_putSite__E                                          
0000cdf5  __TI_auto_init                                                       
0000ce95  rlDriverWaitForResponse                                              
0000cf35  ti_sysbios_knl_Queue_Object__get__S                                  
0000cf41  ti_sysbios_knl_Task_blockI__E                                        
0000cfe1  MMWave_configLink                                                    
0000d07d  MMWave_getProfileHandle                                              
0000d1b5  __aeabi_memcpy                                                       
0000d1b5  __aeabi_memcpy4                                                      
0000d1b5  __aeabi_memcpy8                                                      
0000d1b5  memcpy                                                               
0000d251  ti_sysbios_family_arm_v7r_vim_Hwi_initIntController__I               
0000d2ed  MmwDemo_sleep                                                        
0000d2f1  ti_sysbios_family_arm_v7r_vim_Hwi_mapChannel__I                      
0000d38d  SOC_isSecureDevice                                                   
0000d391  ti_sysbios_knl_Semaphore_Instance_init__E                            
0000d42d  MMWave_getChirpCfg                                                   
0000d4c5  __TI_closefile                                                       
0000d52b  fclose                                                               
0000d55d  fputc                                                                
0000d55d  putc                                                                 
0000d5e3  putchar                                                              
0000d5f4  ti_sysbios_family_xxx_Hwi_switchAndRunFunc                           
0000d640  ti_sysbios_family_xxx_Hwi_switchAndRunDispatchC                      
0000d725  rlDriverDeInit                                                       
0000d7b9  rlDriverMsgReadCmdCtx                                                
0000d84c  ti_sysbios_family_arm_v7r_vim_Hwi_dispatchIRQ__I                     
0000d8e1  GPIO_init                                                            
0000d971  Mailbox_close                                                        
0000da91  MmwDemo_waitSensorStartComplete                                      
0000db21  UartSci_initiateTxDMA                                                
0000dc41  soft_max                                                             
0000dcd1  ti_sysbios_family_arm_v7a_Pmu_startCounter__E                        
0000dd61  ti_sysbios_knl_Task_unblockI__E                                      
0000df09  SOC_translateAddress                                                 
0000df95  UartSci_initiateRxDMA                                                
0000e021  rlDevicePowerOn                                                      
0000e0ad  rlDriverMsgCmdReply                                                  
0000e139  ti_sysbios_BIOS_RtsGateProxy_enter__E                                
0000e13d  ti_sysbios_BIOS_RtsGateProxy_leave__E                                
0000e141  ti_sysbios_family_arm_v7r_vim_Hwi_Instance_finalize__E               
0000e1cd  ti_sysbios_family_arm_TaskSupport_Module__startupDone__S             
0000e1cd  ti_sysbios_knl_Task_SupportProxy_Module__startupDone__S              
0000e1d1  xdc_runtime_Memory_alloc__E                                          
0000e25d  MMWave_getProfileCfg                                                 
0000e3f5  MmwDemo_gpioSwitchTask                                               
0000e47d  SOC_init                                                             
0000e505  vsnprintf                                                            
0000e58d  MMWave_deviceCfgAsyncEvent                                           
0000e611  MMWave_deviceEventFxn                                                
0000e695  MMWave_getNumBpmChirp                                                
0000e719  MMWave_open                                                          
0000e81d  MMWave_getBpmChirpCfg                                                
0000e91d  findDelta                                                            
0000e99d  rlDriverExecuteGetApi                                                
0000ea1d  ti_sysbios_family_arm_v7r_vim_Hwi_delete                             
0000ea21  ti_sysbios_timers_rti_Timer_initDevice__I                            
0000eaa1  HwiP_create                                                          
0000eb21  MMWave_deviceOpenFxn                                                 
0000eb9d  Mailbox_init                                                         
0000ec94  ti_sysbios_family_arm_TaskSupport_buildTaskStack                     
0000ed11  xdc_runtime_Core_deleteObject__I                                     
0000ee09  __aeabi_memclr                                                       
0000ee09  __aeabi_memclr4                                                      
0000ee09  __aeabi_memclr8                                                      
0000ee0b  __aeabi_memset                                                       
0000ee0b  __aeabi_memset4                                                      
0000ee0b  __aeabi_memset8                                                      
0000ee11  memset                                                               
0000eefd  MMWave_getNumChirps                                                  
0000efed  MmwDemo_Dss2MssISR                                                   
0000f065  MMWave_config                                                        
0000f0d9  MMWave_deviceStartFxn                                                
0000f1c1  SOC_getDeviceRFFreqScaleFactor                                       
0000f234  _c_int00                                                             
0000f2a9  rlDriverAsyncEventHandler                                            
0000f31d  rlDriverProcRdMsg                                                    
0000f391  finddevice                                                           
0000f3bf  getdevice                                                            
0000f405  frexp                                                                
0000f405  frexpl                                                               
0000f4ed  MMWave_deviceCfgFxn                                                  
0000f55d  logFeatures                                                          
0000f5d5  printf                                                               
0000f63d  ti_sysbios_heaps_HeapMem_Module_GateProxy_enter__E                   
0000f641  xdc_runtime_Error_print__E                                           
0000f6b1  xdc_runtime_Text_visitRope2__I                                       
0000f721  DMA_disableChannel                                                   
0000f78d  GPIO_enableInt                                                       
0000f865  MMWave_stopLink                                                      
0000f8d1  Pinmux_Set_FuncSel                                                   
0000f93d  angleDelta                                                           
0000f9a9  __TI_decompress_lzss                                                 
0000fa15  __TI_writemsg                                                        
0000fa47  C$$IO$$                                                              
0000fa4b  __TI_readmsg                                                         
0000faed  DMA_enableChannel                                                    
0000fb55  MMWave_deviceStopFxn                                                 
0000fbbd  Mailbox_readFlush                                                    
0000fc25  rlDriverExecuteSetApi                                                
0000fc8d  rlDriverHostIrqHandler                                               
0000fcf5  HOSTlseek                                                            
0000fd5d  HOSTrename                                                           
0000fdc5  MemoryP_ctrlFree                                                     
0000fdd1  ti_sysbios_knl_Swi_schedule__I                                       
0000fe39  MmwDemo_mssSetHsiClk                                                 
0000fea1  rlDevicePowerOff                                                     
0000ff6d  SemaphoreP_create                                                    
0000ffd1  fseek                                                                
00010035  sprintf                                                              
00010098  ti_sysbios_family_arm_exc_Exception_initCore0__I                     
000100fd  ti_sysbios_heaps_HeapMem_Module_GateProxy_leave__E                   
00010101  ti_sysbios_family_arm_v7r_vim_Hwi_phantomIntHandler__I               
00010165  SemaphoreP_post                                                      
00010165  SemaphoreP_postFromClock                                             
00010165  SemaphoreP_postFromISR                                               
00010171  ti_sysbios_knl_Clock_logTick__E                                      
000101d5  UART_read                                                            
000101e1  xdc_runtime_Startup_exec__E                                          
00010245  CLI_MMWaveExtensionHandler                                           
000102a5  GPIO_setCallback                                                     
00010305  gestureInferenceProcessing                                           
00010365  UART_write                                                           
00010371  ti_sysbios_heaps_HeapMem_alloc__E                                    
000103d1  xdc_runtime_Assert_raise__I                                          
00010431  xdc_runtime_Text_putLab__E                                           
0001054d  MMWave_stop                                                          
000105a9  HOSTopen                                                             
00010605  HOSTread                                                             
000106bb  rlDriverCalChkSum                                                    
00010715  ESM_highpriority_FIQ                                                 
0001076d  MMWave_execute                                                       
0001081d  MmwDemo_mmWaveCtrlTask                                               
00010875  UartSci_closeDMA                                                     
000108cd  rlDriverMsgReadSpawnCtx                                              
00010925  close                                                                
0001097d  HOSTwrite                                                            
000109d5  UART_writePolling                                                    
000109e1  ti_sysbios_knl_Swi_restoreHwi__E                                     
00010a91  CRC_getTransactionId                                                 
00010ae5  DMA_freeChannel                                                      
00010b39  MMWave_initLink                                                      
00010b8d  ltoa                                                                 
00010be1  ti_sysbios_family_arm_v7r_vim_Hwi_create                             
00010c35  ti_sysbios_family_arm_v7r_tms570_Core_getId__E                       
00010c35  ti_sysbios_hal_Core_CoreProxy_getId__E                               
00010c41  ti_sysbios_heaps_HeapMem_getStats__E                                 
00010c95  xdc_runtime_Memory_HeapProxy_alloc__E                                
00010ca1  ti_sysbios_knl_Swi_runLoop__I                                        
00010cf5  xdc_runtime_Memory_HeapProxy_free__E                                 
00010d01  ti_sysbios_knl_Swi_startup__E                                        
00010d55  ti_sysbios_knl_Clock_TimerProxy_getMaxTicks__E                       
00010d59  ti_sysbios_knl_Semaphore_delete                                      
00010d5d  xdc_runtime_System_Module_GateProxy_enter__E                         
00010d61  xdc_runtime_Core_assignLabel__I                                      
00010db5  CLI_write                                                            
00010e05  CRC_getSignature                                                     
00010e55  MMWave_sync                                                          
00010ea5  rlDeviceIdentifyCmdDir                                               
00010ef5  rlDriverVerifyCRC                                                    
00010f45  atoi                                                                 
00010f95  C$$EXIT                                                              
00010f99  abort                                                                
00010f99  xdc_runtime_System_abortStd__E                                       
00010fa1  exit                                                                 
00010fa1  xdc_runtime_System_exitStd__E                                        
00010fe4  __aeabi_uidiv                                                        
00010fe4  __aeabi_uidivmod                                                     
00011035  xdc_runtime_System_Module_GateProxy_leave__E                         
00011041  xdc_runtime_System_exit__E                                           
00011129  copy_in                                                              
00011181  ti_sysbios_family_arm_v7r_vim_Hwi_getStackInfo__E                    
00011181  ti_sysbios_hal_Hwi_HwiProxy_getStackInfo__E                          
00011181  ti_sysbios_hal_Hwi_getStackInfo__E                                   
000111cd  ti_sysbios_knl_Task_create                                           
00011271  xdc_runtime_Core_assignParams__I                                     
000112c1  xdc_runtime_Text_xprintf__I                                          
0001130b  rlDeviceGetVersion                                                   
00011355  rlDriverOsiInit                                                      
000114b1  HOSTclose                                                            
000114f5  HOSTunlink                                                           
00011541  ti_sysbios_family_arm_v7r_tms570_Core_Module_startup__E              
00011591  ti_sysbios_knl_Task_allBlockedFunction__I                            
000115e1  xdc_runtime_System_atexit__E                                         
00011625  MMWave_executeLink                                                   
00011667  rlDriverValidateHdr                                                  
000116a9  strtok                                                               
000116f1  ti_sysbios_timers_rti_Timer_stop__E                                  
00011921  MMWave_decodeError                                                   
000119d9  Mailbox_writeReset                                                   
00011a15  SOC_unhaltBSS                                                        
00011a51  rlGetSubBlock                                                        
00011a8c  ti_sysbios_family_arm_v7r_vim_Hwi_init__I                            
00011ad1  ti_sysbios_hal_Hwi_checkStack                                        
00011b11  ti_sysbios_heaps_HeapMem_init__I                                     
00011b51  ti_sysbios_timers_rti_Timer_setPeriod__E                             
00011b8d  HwiP_delete                                                          
00011bc7  maxCheck                                                             
00011c01  CLI_MMWaveExtensionInit                                              
00011c39  UART_init                                                            
00011c71  logEnergy                                                            
00011ca7  rlAppendSubBlock                                                     
00011cdd  strncpy                                                              
00011d7d  SOC_setMMWaveDSSLinkState                                            
00011db1  SOC_setMMWaveMSSLinkState                                            
00011de5  UART_open                                                            
00011e19  ti_sysbios_knl_Semaphore_create                                      
00011eb3  SemaphoreP_delete                                                    
00011ec1  ti_sysbios_hal_Hwi_initStack                                         
00011ef3  MMWave_listRemoveNode                                                
00011f25  SOC_getDevicePartNumber                                              
00011f55  rlSensorStart                                                        
00011f85  ti_sysbios_BIOS_atExitFunc__I                                        
00011fb5  ti_sysbios_BIOS_startFunc__I                                         
00011ff1  ti_sysbios_family_arm_TaskSupport_start__E                           
00011ff1  ti_sysbios_knl_Task_SupportProxy_start__E                            
00012021  ti_sysbios_gates_GateHwi_Object__create__S                           
00012051  ti_sysbios_gates_GateMutex_Object__create__S                         
00012081  ti_sysbios_heaps_HeapMem_Object__create__S                           
000120b1  ti_sysbios_heaps_HeapMem_free__E                                     
000120e1  ti_sysbios_knl_Event_create                                          
00012111  ti_sysbios_knl_Semaphore_construct                                   
00012141  xdc_runtime_Text_printVisFxn__I                                      
00012171  ti_sysbios_knl_Event_pendTimeout__I                                  
000121a1  ti_sysbios_knl_Semaphore_pendTimeout__I                              
000121cf  malloc                                                               
00012255  MMWave_osalMutexCreate                                               
00012281  MMWave_osalSemCreate                                                 
000122ad  SOC_waitBSSPowerUp                                                   
000122d9  compute_innerprod                                                    
00012305  relu_activation                                                      
00012331  rlDeviceGetMssVersion                                                
0001235d  rlSensorStop                                                         
00012389  sqrt                                                                 
00012389  sqrtl                                                                
000123b5  remove                                                               
000123b5  unlink                                                               
000123e1  ti_sysbios_knl_Clock_doTick__I                                       
0001240d  ti_sysbios_knl_Queue_construct                                       
00012441  ti_sysbios_knl_Swi_Module_startup__E                                 
00012471  ti_sysbios_timers_rti_Timer_periodicStub__E                          
0001249d  SOC_SystemISR                                                        
000124c7  rlDeviceGetMmWaveLinkVersion                                         
000124f1  strspn                                                               
0001251d  Mailbox_Config_init                                                  
00012595  log2Approx                                                           
000125bd  rlDriverConstructInMsg                                               
000125e5  lseek                                                                
0001260d  write                                                                
00012641  ti_sysbios_knl_Idle_run__E                                           
00012671  xdc_runtime_SysStd_abort__E                                          
00012671  xdc_runtime_System_SupportProxy_abort__E                             
000126a1  xdc_runtime_System_aprintf_va__F                                     
000126c9  rlRfInitCalibConfig                                                  
000126ef  rlRfRunTimeCalibConfig                                               
00012715  rlRfSetDeviceCfg                                                     
0001273b  rlSetAdcOutConfig                                                    
00012761  rlSetBpmCommonConfig                                                 
00012787  rlSetChannelConfig                                                   
000127ad  rlSetContModeConfig                                                  
000127d3  memcmp                                                               
00012801  xdc_runtime_System_printf_va__F                                      
00012871  MmwDemo_notifySensorStart                                            
00012895  SOC_isMMWaveDSSOperational                                           
000128b9  SOC_isMMWaveMSSOperational                                           
000128dd  rlDeviceSetHsiClk                                                    
00012901  rlEnableContMode                                                     
00012925  rlRfSetCalMonTimeUnitConfig                                          
00012949  rlSetLowPowerModeConfig                                              
0001296d  ti_sysbios_BIOS_errorRaiseHook__I                                    
00012991  ti_sysbios_BIOS_registerRTSLock__I                                   
000129b5  ti_sysbios_BIOS_removeRTSLock__I                                     
000129d9  ti_sysbios_gates_GateMutex_Object__delete__S                         
00012a01  ti_sysbios_knl_Clock_Module_startup__E                               
00012a25  ti_sysbios_knl_Semaphore_Object__delete__S                           
00012a51  ti_sysbios_knl_Task_restoreHwi__E                                    
00012a97  UartSci_disableRxDMA                                                 
00012ab9  UartSci_enableRxDMA                                                  
00012adb  strcspn                                                              
00012afd  ESM_lowpriority_IRQ                                                  
00012b1d  MMWave_listCat                                                       
00012b3d  MmwDemo_mboxWrite                                                    
00012b7d  rlRfInit                                                             
00012b9d  memchr                                                               
00012bc1  ti_sysbios_family_arm_v7a_Pmu_Module_startup__E                      
00012be1  ti_sysbios_family_arm_v7r_vim_Hwi_Object__delete__S                  
00012c01  ti_sysbios_family_arm_v7r_vim_Hwi_disableInterrupt__E                
00012c01  ti_sysbios_hal_Hwi_HwiProxy_disableInterrupt__E                      
00012c01  ti_sysbios_hal_Hwi_disableInterrupt__E                               
00012c21  ti_sysbios_family_arm_v7r_vim_Hwi_enableInterrupt__E                 
00012c21  ti_sysbios_hal_Hwi_HwiProxy_enableInterrupt__E                       
00012c21  ti_sysbios_hal_Hwi_enableInterrupt__E                                
00012c41  ti_sysbios_gates_GateHwi_Object__delete__S                           
00012c61  ti_sysbios_heaps_HeapMem_Object__delete__S                           
00012c81  ti_sysbios_knl_Semaphore_destruct                                    
00012cbf  SOC_getOutAddr_LUTType                                               
00012da1  MMWave_listRemove                                                    
00012dbd  MmwDemo_mssMmwaveStartCallbackFxn                                    
00012dd9  MmwDemo_notifySensorStop                                             
00012df5  SOC_getInAddr_LUTType                                                
00012e10  ti_sysbios_family_arm_TaskSupport_glue                               
00012e2c  ti_sysbios_family_arm_TaskSupport_swap__E                            
00012e2c  ti_sysbios_knl_Task_SupportProxy_swap__E                             
00012e49  memccpy                                                              
00012e65  ti_sysbios_BIOS_rtsLock__I                                           
00012e81  ti_sysbios_family_arm_v7r_vim_Hwi_clearInterrupt__E                  
00012e81  ti_sysbios_hal_Hwi_HwiProxy_clearInterrupt__E                        
00012e81  ti_sysbios_hal_Hwi_clearInterrupt__E                                 
00012ea1  ti_sysbios_gates_GateMutex_Instance_init__E                          
00012ec1  ti_sysbios_gates_GateMutex_leave__E                                  
00012edd  ti_sysbios_knl_Queue_destruct                                        
00012ef9  MMWave_deviceSyncFxn                                                 
00012f13  MMWave_encodeError                                                   
00012f2d  MMWave_listAdd                                                       
00012f47  free                                                                 
00012f61  rlGetRfDieId                                                         
00012f7b  copysign                                                             
00012f7b  copysignl                                                            
00012f95  ti_sysbios_gates_GateHwi_Handle__label__S                            
00012f95  xdc_runtime_Main_Module_GateProxy_Handle__label__S                   
00012f95  xdc_runtime_System_Module_GateProxy_Handle__label__S                 
00012faf  ti_sysbios_BIOS_RtsGateProxy_Handle__label__S                        
00012faf  ti_sysbios_gates_GateMutex_Handle__label__S                          
00012faf  ti_sysbios_heaps_HeapMem_Module_GateProxy_Handle__label__S           
00012fc9  ti_sysbios_heaps_HeapMem_Handle__label__S                            
00012fc9  xdc_runtime_Memory_HeapProxy_Handle__label__S                        
00012fe3  xdc_runtime_System_aprintf__E                                        
00012ffd  xdc_runtime_System_printf__E                                         
00013019  CLI_getMMWaveExtensionOpenConfig                                     
00013031  MMWave_osalMutexLock                                                 
00013049  MMWave_osalSemWait                                                   
000130a9  rlDeviceGetRfVersion                                                 
000130c1  rlDriverCalCRC                                                       
000130d9  rlDriverFillPayload                                                  
000130f1  rlDriverIsDeviceMapValid                                             
00013109  _args_main                                                           
00013121  strcmp                                                               
00013139  ti_sysbios_BIOS_rtsUnlock__I                                         
00013150  ti_sysbios_family_arm_v7a_Pmu_initCounters__I                        
00013169  ti_sysbios_family_arm_v7r_vim_Hwi_Module__startupDone__F             
00013169  ti_sysbios_family_arm_v7r_vim_Hwi_Module__startupDone__S             
00013169  ti_sysbios_hal_Hwi_HwiProxy_Module__startupDone__S                   
00013181  ti_sysbios_family_arm_v7r_vim_Hwi_Params__init__S                    
00013181  ti_sysbios_hal_Hwi_HwiProxy_Params__init__S                          
00013199  ti_sysbios_knl_Semaphore_Params__init__S                             
000131b1  ti_sysbios_knl_Task_Params__init__S                                  
000131d1  ti_sysbios_knl_Task_enter__I                                         
000131e9  ti_sysbios_knl_Clock_TimerProxy_Module__startupDone__S               
000131e9  ti_sysbios_timers_rti_Timer_Module__startupDone__F                   
000131e9  ti_sysbios_timers_rti_Timer_Module__startupDone__S                   
00013201  xdc_runtime_Error_init__E                                            
00013219  strchr                                                               
0001322f  strlen                                                               
00013245  ti_sysbios_BIOS_exitFunc__I                                          
00013261  ti_sysbios_knl_Idle_loop__E                                          
00013281  ti_sysbios_knl_Task_sleepTimeout__I                                  
00013297  HwiP_Params_init                                                     
000132d3  MMWave_osalMutexDelete                                               
000132e7  MMWave_osalSemDelete                                                 
000132fd  MmwDemo_mssMmwaveConfigCallbackFxn                                   
00013311  MmwDemo_mssMmwaveStopCallbackFxn                                     
00013339  UartSci_disableTxDMA                                                 
0001334d  UartSci_enableTxDMA                                                  
00013361  _DebugP_assert                                                       
00013375  gestureInferenceCircle                                               
00013389  rlAppendDummy                                                        
0001339d  _register_unlock                                                     
000133a3  _register_lock                                                       
000133ab  _nop                                                                 
000133b1  strcpy                                                               
000133c5  ti_sysbios_heaps_HeapMem_Object__get__S                              
000133e1  ti_sysbios_knl_Event_Instance_init__E                                
000133f5  ti_sysbios_knl_Swi_Object__get__S                                    
00013409  CRC_initConfigParams                                                 
0001341b  MMWave_deviceGetDeviceInfo                                           
0001342d  MemoryP_ctrlAlloc                                                    
0001343f  SemaphoreP_pend                                                      
00013451  ti_sysbios_hal_Hwi_Module_startup__E                                 
00013463  xdc_runtime_Startup_exec__I                                          
000134a1  ti_sysbios_BIOS_setThreadType__E                                     
000134b1  ti_sysbios_BIOS_start__E                                             
000134c0  ti_sysbios_family_arm_v7a_Pmu_disableInterruptI__E                   
000134d0  ti_sysbios_family_arm_v7a_Pmu_enableInterruptI__E                    
000134e0  ti_sysbios_family_arm_v7a_Pmu_getNumCounters__E                      
000134f0  ti_sysbios_family_arm_v7a_Pmu_startCounterI__E                       
00013500  ti_sysbios_family_arm_v7a_Pmu_stopCounterI__E                        
00013511  ti_sysbios_gates_GateMutex_Instance_finalize__E                      
00013521  ti_sysbios_heaps_HeapBuf_Object__get__S                              
00013531  ti_sysbios_knl_Semaphore_Instance_finalize__E                        
00013541  ti_sysbios_knl_Swi_disable__E                                        
00013551  ti_sysbios_knl_Task_Object__get__S                                   
00013561  ti_sysbios_knl_Task_disable__E                                       
00013571  xdc_runtime_Memory_free__E                                           
00013581  xdc_runtime_Text_visitRope__I                                        
00013591  __TI_decompress_none                                                 
000135a1  ti_sysbios_knl_Queue_empty__E                                        
000135b1  ti_sysbios_family_arm_TaskSupport_checkStack__E                      
000135b1  ti_sysbios_knl_Task_SupportProxy_checkStack__E                       
000135c1  ti_sysbios_family_arm_TaskSupport_getStackAlignment__E               
000135c1  ti_sysbios_knl_Task_SupportProxy_getStackAlignment__E                
000135d1  ti_sysbios_family_arm_exc_Exception_Module_startup__E                
000135e1  ti_sysbios_family_arm_v7r_vim_Hwi_switchFromBootStack__E             
000135e1  ti_sysbios_hal_Hwi_HwiProxy_switchFromBootStack__E                   
000135e1  ti_sysbios_hal_Hwi_switchFromBootStack__E                            
000135f1  xdc_runtime_Startup_rtsDone__E                                       
00013601  xdc_runtime_SysStd_exit__E                                           
00013601  xdc_runtime_System_SupportProxy_exit__E                              
00013611  ti_sysbios_gates_GateHwi_enter__E                                    
00013621  ti_sysbios_family_arm_v7r_vim_Hwi_startup__E                         
00013621  ti_sysbios_hal_Hwi_HwiProxy_startup__E                               
00013621  ti_sysbios_hal_Hwi_startup__E                                        
00013631  ti_sysbios_gates_GateHwi_leave__E                                    
00013641  ti_sysbios_heaps_HeapMem_isBlocking__E                               
00013651  ti_sysbios_knl_Queue_Instance_init__E                                
00013661  xdc_runtime_System_Module_startup__E                                 
00013671  ti_sysbios_gates_GateHwi_query__E                                    
00013671  xdc_runtime_Main_Module_GateProxy_query__E                           
00013671  xdc_runtime_System_Module_GateProxy_query__E                         
00013681  ti_sysbios_BIOS_RtsGateProxy_query__E                                
00013681  ti_sysbios_gates_GateMutex_query__E                                  
00013681  ti_sysbios_heaps_HeapMem_Module_GateProxy_query__E                   
00013691  ti_sysbios_knl_Task_startup__E                                       
000136a1  ti_sysbios_timers_rti_Timer_getMaxTicks__E                           
000136b1  xdc_runtime_SysStd_putch__E                                          
000136b1  xdc_runtime_System_SupportProxy_putch__E                             
000136c1  xdc_runtime_SysStd_ready__E                                          
000136c1  xdc_runtime_System_SupportProxy_ready__E                             
000136d1  ti_sysbios_BIOS_linkedWithIncorrectBootLibrary__E                    
000136e1  ti_sysbios_gates_GateHwi_Instance_init__E                            
000136e8  xdc_runtime_Text_charTab__A                                          
000155a6  ti_sysbios_family_arm_exc_Exception_Module__id__C                    
00015a3e  _ctypes_                                                             
00015b40  xdc_runtime_Text_nodeTab__A                                          
00015d50  ti_sysbios_family_arm_v7r_vim_Hwi_channelMap__A                      
00015ea0  ti_sysbios_knl_Task_Object__PARAMS__C                                
00015ee4  UART_defaultParams                                                   
00015f50  ti_sysbios_family_arm_v7r_vim_Hwi_Object__PARAMS__C                  
00015f80  xdc_runtime_Startup_sfxnTab__A                                       
00015fac  ti_sysbios_heaps_HeapMem_Module__FXNS__C                             
00015fd4  Mailbox_defaultCfg                                                   
00015ff8  ti_sysbios_gates_GateHwi_Module__FXNS__C                             
0001601c  ti_sysbios_gates_GateMutex_Module__FXNS__C                           
00016040  ti_sysbios_heaps_HeapMem_Object__PARAMS__C                           
00016064  ti_sysbios_knl_Semaphore_Object__PARAMS__C                           
000160a8  ti_sysbios_family_arm_v7r_vim_Hwi_Object__DESC__C                    
000160c8  ti_sysbios_gates_GateHwi_Object__DESC__C                             
000160e8  ti_sysbios_gates_GateMutex_Object__DESC__C                           
00016108  ti_sysbios_heaps_HeapMem_Object__DESC__C                             
00016128  ti_sysbios_knl_Event_Object__DESC__C                                 
00016148  ti_sysbios_knl_Queue_Object__DESC__C                                 
00016168  ti_sysbios_knl_Semaphore_Object__DESC__C                             
00016188  ti_sysbios_knl_Task_Object__DESC__C                                  
000161c4  ti_sysbios_gates_GateHwi_Object__PARAMS__C                           
000161dc  ti_sysbios_gates_GateMutex_Object__PARAMS__C                         
000161f4  ti_sysbios_knl_Event_Object__PARAMS__C                               
0001620c  ti_sysbios_knl_Queue_Object__PARAMS__C                               
00016224  xdc_runtime_Startup_sfxnRts__A                                       
0001623a  ti_sysbios_family_arm_v7a_Pmu_Module__id__C                          
0001623c  ti_sysbios_family_arm_v7r_vim_Hwi_intReqEnaSet__A                    
0001624c  ti_sysbios_family_arm_v7r_vim_Hwi_wakeEnaSet__A                      
0001625c  ti_sysbios_knl_Idle_funcList__A                                      
00016264  ti_sysbios_knl_Idle_funcList__C                                      
0001626c  xdc_runtime_Startup_firstFxns__A                                     
00016274  xdc_runtime_Startup_firstFxns__C                                     
0001627c  xdc_runtime_Startup_lastFxns__C                                      
00016288  ti_sysbios_family_arm_TaskSupport_stackAlignment__C                  
0001628c  ti_sysbios_family_arm_exc_Exception_E_dataAbort__C                   
00016290  ti_sysbios_family_arm_exc_Exception_E_prefetchAbort__C               
00016294  ti_sysbios_family_arm_exc_Exception_E_swi__C                         
00016298  ti_sysbios_family_arm_exc_Exception_E_undefinedInstruction__C        
0001629c  ti_sysbios_family_arm_exc_Exception_excHookFuncs__A                  
000162a0  ti_sysbios_family_arm_exc_Exception_excHookFuncs__C                  
000162a4  ti_sysbios_family_arm_v7a_Pmu_A_invalidCounterId__C                  
000162a8  ti_sysbios_family_arm_v7a_Pmu_Module__diagsEnabled__C                
000162ac  ti_sysbios_family_arm_v7a_Pmu_Module__diagsIncluded__C               
000162b0  ti_sysbios_family_arm_v7a_Pmu_Module__diagsMask__C                   
000162b4  ti_sysbios_family_arm_v7r_tms570_Core_E_mismatchedIds__C             
000162b8  ti_sysbios_family_arm_v7r_tms570_Core_id__C                          
000162bc  ti_sysbios_family_arm_v7r_vim_Hwi_A_badChannelId__C                  
000162c0  ti_sysbios_family_arm_v7r_vim_Hwi_E_alreadyDefined__C                
000162c4  ti_sysbios_family_arm_v7r_vim_Hwi_E_badIntNum__C                     
000162c8  ti_sysbios_family_arm_v7r_vim_Hwi_E_phantomInterrupt__C              
000162cc  ti_sysbios_family_arm_v7r_vim_Hwi_E_undefined__C                     
000162d0  ti_sysbios_family_arm_v7r_vim_Hwi_E_unsupportedMaskingOption__C      
000162d4  ti_sysbios_family_arm_v7r_vim_Hwi_LD_end__C                          
000162d8  ti_sysbios_family_arm_v7r_vim_Hwi_LM_begin__C                        
000162dc  ti_sysbios_family_arm_v7r_vim_Hwi_Module__diagsEnabled__C            
000162e0  ti_sysbios_family_arm_v7r_vim_Hwi_Module__diagsIncluded__C           
000162e4  ti_sysbios_family_arm_v7r_vim_Hwi_Module__diagsMask__C               
000162e8  ti_sysbios_family_arm_v7r_vim_Hwi_Module__loggerFxn1__C              
000162ec  ti_sysbios_family_arm_v7r_vim_Hwi_Module__loggerFxn8__C              
000162f0  ti_sysbios_family_arm_v7r_vim_Hwi_Module__loggerObj__C               
000162f4  ti_sysbios_family_arm_v7r_vim_Hwi_NUM_INTERRUPTS__C                  
000162f8  ti_sysbios_family_arm_v7r_vim_Hwi_channelMap__C                      
000162fc  ti_sysbios_family_arm_v7r_vim_Hwi_intReqEnaSet__C                    
00016300  ti_sysbios_family_arm_v7r_vim_Hwi_phantomFunc__C                     
00016304  ti_sysbios_family_arm_v7r_vim_Hwi_swiDisable__C                      
00016308  ti_sysbios_family_arm_v7r_vim_Hwi_swiRestoreHwi__C                   
0001630c  ti_sysbios_family_arm_v7r_vim_Hwi_taskDisable__C                     
00016310  ti_sysbios_family_arm_v7r_vim_Hwi_taskRestoreHwi__C                  
00016314  ti_sysbios_family_arm_v7r_vim_Hwi_wakeEnaSet__C                      
00016318  ti_sysbios_gates_GateMutex_A_badContext__C                           
0001631c  ti_sysbios_gates_GateMutex_Instance_State_sem__O                     
00016320  ti_sysbios_gates_GateMutex_Module__diagsEnabled__C                   
00016324  ti_sysbios_gates_GateMutex_Module__diagsIncluded__C                  
00016328  ti_sysbios_gates_GateMutex_Module__diagsMask__C                      
0001632c  ti_sysbios_hal_Hwi_E_stackOverflow__C                                
00016330  ti_sysbios_heaps_HeapBuf_Instance_State_freeList__O                  
00016334  ti_sysbios_heaps_HeapBuf_Object__count__C                            
00016338  ti_sysbios_heaps_HeapBuf_numConstructedHeaps__C                      
0001633c  ti_sysbios_heaps_HeapMem_A_align__C                                  
00016340  ti_sysbios_heaps_HeapMem_A_heapSize__C                               
00016344  ti_sysbios_heaps_HeapMem_A_invalidFree__C                            
00016348  ti_sysbios_heaps_HeapMem_A_zeroBlock__C                              
0001634c  ti_sysbios_heaps_HeapMem_E_memory__C                                 
00016350  ti_sysbios_heaps_HeapMem_Module__diagsEnabled__C                     
00016354  ti_sysbios_heaps_HeapMem_Module__diagsIncluded__C                    
00016358  ti_sysbios_heaps_HeapMem_Module__diagsMask__C                        
0001635c  ti_sysbios_heaps_HeapMem_Module__gateObj__C                          
00016360  ti_sysbios_heaps_HeapMem_Object__count__C                            
00016364  ti_sysbios_heaps_HeapMem_reqAlign__C                                 
00016368  ti_sysbios_knl_Clock_LM_begin__C                                     
0001636c  ti_sysbios_knl_Clock_LM_tick__C                                      
00016370  ti_sysbios_knl_Clock_LW_delayed__C                                   
00016374  ti_sysbios_knl_Clock_Module_State_clockQ__O                          
00016378  ti_sysbios_knl_Clock_Module__diagsEnabled__C                         
0001637c  ti_sysbios_knl_Clock_Module__diagsIncluded__C                        
00016380  ti_sysbios_knl_Clock_Module__diagsMask__C                            
00016384  ti_sysbios_knl_Clock_Module__loggerFxn1__C                           
00016388  ti_sysbios_knl_Clock_Module__loggerFxn2__C                           
0001638c  ti_sysbios_knl_Clock_Module__loggerObj__C                            
00016390  ti_sysbios_knl_Event_A_badContext__C                                 
00016394  ti_sysbios_knl_Event_A_eventInUse__C                                 
00016398  ti_sysbios_knl_Event_A_nullEventId__C                                
0001639c  ti_sysbios_knl_Event_A_nullEventMasks__C                             
000163a0  ti_sysbios_knl_Event_A_pendTaskDisabled__C                           
000163a4  ti_sysbios_knl_Event_Instance_State_pendQ__O                         
000163a8  ti_sysbios_knl_Event_LM_pend__C                                      
000163ac  ti_sysbios_knl_Event_LM_post__C                                      
000163b0  ti_sysbios_knl_Event_Module__diagsEnabled__C                         
000163b4  ti_sysbios_knl_Event_Module__diagsIncluded__C                        
000163b8  ti_sysbios_knl_Event_Module__diagsMask__C                            
000163bc  ti_sysbios_knl_Event_Module__loggerFxn4__C                           
000163c0  ti_sysbios_knl_Event_Module__loggerFxn8__C                           
000163c4  ti_sysbios_knl_Event_Module__loggerObj__C                            
000163c8  ti_sysbios_knl_Semaphore_A_badContext__C                             
000163cc  ti_sysbios_knl_Semaphore_A_noEvents__C                               
000163d0  ti_sysbios_knl_Semaphore_A_overflow__C                               
000163d4  ti_sysbios_knl_Semaphore_A_pendTaskDisabled__C                       
000163d8  ti_sysbios_knl_Semaphore_Instance_State_pendQ__O                     
000163dc  ti_sysbios_knl_Semaphore_LM_pend__C                                  
000163e0  ti_sysbios_knl_Semaphore_LM_post__C                                  
000163e4  ti_sysbios_knl_Semaphore_Module__diagsEnabled__C                     
000163e8  ti_sysbios_knl_Semaphore_Module__diagsIncluded__C                    
000163ec  ti_sysbios_knl_Semaphore_Module__diagsMask__C                        
000163f0  ti_sysbios_knl_Semaphore_Module__loggerFxn2__C                       
000163f4  ti_sysbios_knl_Semaphore_Module__loggerFxn4__C                       
000163f8  ti_sysbios_knl_Semaphore_Module__loggerObj__C                        
000163fc  ti_sysbios_knl_Swi_LD_end__C                                         
00016400  ti_sysbios_knl_Swi_LM_begin__C                                       
00016404  ti_sysbios_knl_Swi_LM_post__C                                        
00016408  ti_sysbios_knl_Swi_Module__diagsEnabled__C                           
0001640c  ti_sysbios_knl_Swi_Module__diagsIncluded__C                          
00016410  ti_sysbios_knl_Swi_Module__diagsMask__C                              
00016414  ti_sysbios_knl_Swi_Module__loggerFxn1__C                             
00016418  ti_sysbios_knl_Swi_Module__loggerFxn4__C                             
0001641c  ti_sysbios_knl_Swi_Module__loggerObj__C                              
00016420  ti_sysbios_knl_Swi_Object__count__C                                  
00016424  ti_sysbios_knl_Task_A_badPriority__C                                 
00016428  ti_sysbios_knl_Task_A_badTaskState__C                                
0001642c  ti_sysbios_knl_Task_A_badThreadType__C                               
00016430  ti_sysbios_knl_Task_A_badTimeout__C                                  
00016434  ti_sysbios_knl_Task_A_noPendElem__C                                  
00016438  ti_sysbios_knl_Task_A_sleepTaskDisabled__C                           
0001643c  ti_sysbios_knl_Task_E_spOutOfBounds__C                               
00016440  ti_sysbios_knl_Task_E_stackOverflow__C                               
00016444  ti_sysbios_knl_Task_LD_block__C                                      
00016448  ti_sysbios_knl_Task_LD_exit__C                                       
0001644c  ti_sysbios_knl_Task_LD_ready__C                                      
00016450  ti_sysbios_knl_Task_LM_sleep__C                                      
00016454  ti_sysbios_knl_Task_LM_switch__C                                     
00016458  ti_sysbios_knl_Task_Module_State_inactiveQ__O                        
0001645c  ti_sysbios_knl_Task_Module__diagsEnabled__C                          
00016460  ti_sysbios_knl_Task_Module__diagsIncluded__C                         
00016464  ti_sysbios_knl_Task_Module__diagsMask__C                             
00016468  ti_sysbios_knl_Task_Module__loggerFxn2__C                            
0001646c  ti_sysbios_knl_Task_Module__loggerFxn4__C                            
00016470  ti_sysbios_knl_Task_Module__loggerObj__C                             
00016474  ti_sysbios_knl_Task_Object__count__C                                 
00016478  ti_sysbios_knl_Task_allBlockedFunc__C                                
0001647c  ti_sysbios_knl_Task_defaultStackHeap__C                              
00016480  ti_sysbios_knl_Task_defaultStackSize__C                              
00016484  ti_sysbios_knl_Task_numConstructedTasks__C                           
00016488  ti_sysbios_timers_rti_Timer_E_cannotSupport__C                       
0001648c  ti_sysbios_timers_rti_Timer_Module__diagsEnabled__C                  
00016490  ti_sysbios_timers_rti_Timer_Module__diagsIncluded__C                 
00016494  ti_sysbios_timers_rti_Timer_Module__diagsMask__C                     
00016498  ti_sysbios_timers_rti_Timer_numTimerDevices__C                       
0001649c  ti_sysbios_timers_rti_Timer_startupNeeded__C                         
000164a0  xdc_runtime_Assert_E_assertFailed__C                                 
000164a4  xdc_runtime_Core_A_initializedParams__C                              
000164a8  xdc_runtime_Core_Module__diagsEnabled__C                             
000164ac  xdc_runtime_Core_Module__diagsIncluded__C                            
000164b0  xdc_runtime_Core_Module__diagsMask__C                                
000164b4  xdc_runtime_Error_E_memory__C                                        
000164b8  xdc_runtime_Error_Module__diagsEnabled__C                            
000164bc  xdc_runtime_Error_Module__diagsIncluded__C                           
000164c0  xdc_runtime_Error_Module__diagsMask__C                               
000164c4  xdc_runtime_Error_Module__loggerFxn8__C                              
000164c8  xdc_runtime_Error_Module__loggerObj__C                               
000164cc  xdc_runtime_Error_policyFxn__C                                       
000164d0  xdc_runtime_Error_policy__C                                          
000164d4  xdc_runtime_Error_raiseHook__C                                       
000164d8  xdc_runtime_IGateProvider_Interface__BASE__C                         
000164dc  xdc_runtime_IHeap_Interface__BASE__C                                 
000164e0  xdc_runtime_IModule_Interface__BASE__C                               
000164e4  xdc_runtime_Log_L_error__C                                           
000164e8  xdc_runtime_Memory_defaultHeapInstance__C                            
000164ec  xdc_runtime_Startup_execImpl__C                                      
000164f0  xdc_runtime_Startup_maxPasses__C                                     
000164f4  xdc_runtime_Startup_sfxnRts__C                                       
000164f8  xdc_runtime_Startup_sfxnTab__C                                       
000164fc  xdc_runtime_System_Module__gateObj__C                                
00016500  xdc_runtime_System_abortFxn__C                                       
00016504  xdc_runtime_System_exitFxn__C                                        
00016508  xdc_runtime_System_extendFxn__C                                      
0001650c  xdc_runtime_System_maxAtexitHandlers__C                              
00016510  xdc_runtime_Text_charTab__C                                          
00016514  xdc_runtime_Text_nameEmpty__C                                        
00016518  xdc_runtime_Text_nameStatic__C                                       
0001651c  xdc_runtime_Text_nameUnknown__C                                      
00016520  xdc_runtime_Text_nodeTab__C                                          
00016524  xdc_runtime_Text_visitRopeFxn__C                                     
00016528  ti_sysbios_family_arm_v7r_tms570_Core_Module__id__C                  
0001652a  ti_sysbios_family_arm_v7r_vim_Hwi_Module__id__C                      
0001652c  ti_sysbios_family_arm_v7r_vim_Hwi_Module__loggerDefined__C           
0001652e  ti_sysbios_gates_GateMutex_Module__id__C                             
00016530  ti_sysbios_hal_Hwi_Module__id__C                                     
00016532  ti_sysbios_heaps_HeapMem_Module__id__C                               
00016534  ti_sysbios_knl_Clock_Module__id__C                                   
00016536  ti_sysbios_knl_Clock_Module__loggerDefined__C                        
00016538  ti_sysbios_knl_Event_Module__id__C                                   
0001653a  ti_sysbios_knl_Event_Module__loggerDefined__C                        
0001653c  ti_sysbios_knl_Semaphore_Module__id__C                               
0001653e  ti_sysbios_knl_Semaphore_Module__loggerDefined__C                    
00016540  ti_sysbios_knl_Swi_Module__id__C                                     
00016542  ti_sysbios_knl_Swi_Module__loggerDefined__C                          
00016544  ti_sysbios_knl_Task_Module__id__C                                    
00016546  ti_sysbios_knl_Task_Module__loggerDefined__C                         
00016548  ti_sysbios_timers_rti_Timer_Module__id__C                            
0001654a  ti_sysbios_timers_rti_Timer_continueOnSuspend__C                     
0001654c  xdc_runtime_Core_Module__id__C                                       
0001654e  xdc_runtime_Error_Module__loggerDefined__C                           
00016550  xdc_runtime_Error_maxDepth__C                                        
00016552  xdc_runtime_Main_Module__id__C                                       
00016554  xdc_runtime_Memory_Module__id__C                                     
00016556  xdc_runtime_Text_charCnt__C                                          
00016558  xdc_runtime_Text_isLoaded__C                                         
0001655a  xdc_runtime_Text_registryModsLastId__C                               
0001655c  xdc_runtime_Text_unnamedModsLastId__C                                
00016560  __TI_static_base__                                                   
0001945c  __TI_Handler_Table_Base                                              
00019468  __TI_Handler_Table_Limit                                             
00019480  __TI_CINIT_Base                                                      
000194a0  __TI_CINIT_Limit                                                     
08000000  ti_sysbios_heaps_HeapMem_Instance_State_0_buf__A                     
0800a000  circleCount                                                          
0800a004  peopleDetectorState                                                  
0800a008  peopleDetectorStateFlt                                               
0800a00c  peopleDetectorStatePrev                                              
0800a010  gestureTimeStamp                                                     
0800a018  gestureCnt                                                           
0800a020  gestureCntPrev                                                       
0800a028  fltGestureCnt                                                        
0800a030  numDetectionsPerBucket                                               
0800a040  circleData                                                           
0800a068  circleDataNew                                                        
0800a090  circleDataInt                                                        
0800a0b8  gestureProbabilityLog                                                
0800a130  featureVecPosLog                                                     
0800a218  energyLog                                                            
0800a418  gMmwMssMCB                                                           
0800a7a4  gANN_struct_t                                                        
0800ced8  rl_txMsg                                                             
0800cfd8  rl_rxMsg                                                             
0800d2bc  hardCodedConfigIndex                                                 
0800d2c0  hardCodedConfigCommands                                              
0800d334  gCLI                                                                 
0800d4d8  ti_sysbios_family_arm_v7r_vim_Hwi_Module_State_0_dispatchTable__A    
0800d6d8  gCLI_mmwave_freq_scale_factor                                        
0800d6e0  gCLIMMWaveOpenCfg                                                    
0800d704  partInfoStringArray                                                  
0800d744  gCLIMMWaveExtensionTable                                             
0800d7ec  gCLIMMWaveControlCfg                                                 
0800d8b8  _ftable                                                              
0800d9a8  ti_sysbios_knl_Swi_Module_State_0_readyQ__A                          
0800da28  ti_sysbios_knl_Task_Module_State_0_readyQ__A                         
0800daa8  _device                                                              
0800db20  ti_sysbios_knl_Task_Object__table__V                                 
0800db7c  gUartSciHwCfg                                                        
0800dbd4  _stream                                                              
0800dc24  gMailboxMCB                                                          
0800dc74  ti_sysbios_knl_Task_Module__state__V                                 
0800dcbc  SOC_TranslateAddr_LUT                                                
0800dcfc  ti_sysbios_gates_GateMutex_Object__table__V                          
0800dd3c  ti_sysbios_timers_rti_Timer_Object__table__V                         
0800dd78  ti_sysbios_family_arm_v7r_vim_Hwi_Module__state__V                   
0800ddac  ti_sysbios_knl_Swi_Object__table__V                                  
0800dddc  ti_sysbios_family_arm_v7r_vim_Hwi_Object__table__V                   
0800de08  ti_sysbios_knl_Clock_Module__state__V                                
0800de34  gUartSciFxnTable                                                     
0800de5c  UART_config                                                          
0800de80  ti_sysbios_BIOS_Module__state__V                                     
0800dea4  xdc_runtime_Error_IgnoreBlock                                        
0800dec4  xdc_runtime_System_Module_State_0_atexitHandlers__A                  
0800dee4  ti_sysbios_knl_Swi_Module__state__V                                  
0800df00  gMailboxMssBssHwCfg                                                  
0800df18  gMailboxMssDssHwCfg                                                  
0800df30  ti_sysbios_heaps_HeapMem_Object__table__V                            
0800df48  ti_sysbios_timers_rti_Timer_Module_State_0_device__A                 
0800df60  gSOCHwAttrib                                                         
0800df74  ti_sysbios_family_arm_exc_Exception_Module__state__V                 
0800df88  __TI_ft_end                                                          
0800df8c  __aeabi_stdin                                                        
0800df90  __aeabi_stdout                                                       
0800df94  __aeabi_stderr                                                       
0800df98  ti_sysbios_timers_rti_Timer_Module_State_0_intFreqs__A               
0800dfa8  ti_sysbios_timers_rti_Timer_Module__state__V                         
0800dfb8  __TI_cleanup_ptr                                                     
0800dfbc  __TI_dtors_ptr                                                       
0800dfc0  __TI_enable_exit_profile_output                                      
0800dfc4  gESMHwCfgAttrs                                                       
0800dfd0  ti_sysbios_family_arm_v7a_Pmu_Module__state__V                       
0800dfdc  _lock                                                                
0800dfe0  _unlock                                                              
0800dfe4  gGPIOHwAtrrib                                                        
0800dfec  ti_sysbios_family_arm_v7r_vim_Hwi_Module__root__V                    
0800dff4  ti_sysbios_gates_GateHwi_Module__root__V                             
0800dffc  ti_sysbios_gates_GateMutex_Module__root__V                           
0800e004  ti_sysbios_hal_Hwi_Object__table__V                                  
0800e00c  ti_sysbios_heaps_HeapMem_Module__root__V                             
0800e014  ti_sysbios_knl_Event_Module__root__V                                 
0800e01c  ti_sysbios_knl_Queue_Module__root__V                                 
0800e024  ti_sysbios_knl_Semaphore_Module__root__V                             
0800e02c  ti_sysbios_knl_Task_Module__root__V                                  
0800e034  ti_sysbios_timers_rti_Timer_Module_State_0_handles__A                
0800e03c  xdc_runtime_Registry_Module__state__V                                
0800e044  xdc_runtime_Startup_Module__state__V                                 
0800e04c  xdc_runtime_System_Module__state__V                                  
0800e054  gCRCRegister                                                         
0800e058  gPinmuxRegs                                                          
0800e060  errno                                                                
0800e06c  main_func_sp                                                         
0800e074  ti_sysbios_family_arm_exc_Exception_Module_State_0_excContext__A     
0800e078  ti_sysbios_family_arm_exc_Exception_Module_State_0_excStackBuffers__A
0800e07c  ti_sysbios_family_arm_exc_Exception_Module_State_0_excStack__A       
0800e080  ti_sysbios_gates_GateHwi_Object__table__V                            
0800e084  ti_sysbios_heaps_HeapBuf_Module__state__V                            
0800e088  ti_sysbios_knl_Task_Module_State_0_idleTask__A                       
0800e08c  xdc_runtime_Memory_Module__state__V                                  
0800e090  ti_sysbios_family_arm_exc_Exception_Module_State_0_excActive__A      
0800e092  xdc_runtime_Error_Module__state__V                                   
0800e098  ti_sysbios_family_arm_exc_Exception_Module_State_0_excStack_0__A     
0800f098  ti_sysbios_knl_Task_Instance_State_0_stack__A                        
0800f898  gGPIOMCB                                                             
0800fa2c  __CIOBUF_                                                            
0800fb4c  gMMWave_MCB                                                          
0800fc48  __TI_tmpnams                                                         
0800fce8  gEsmMCB                                                              
0800fd58  gMMWave_DualcoreMCB                                                  
0800fd60  parmbuf                                                              
0800fd68  __stack                                                              
08010d68  __STACK_END                                                          
08010d68  ti_sysbios_family_arm_v7r_vim_Hwi_Module_State_0_fiqStack__A         
fffffdec  ti_sysbios_family_arm_v7r_vim_Hwi_vim                                
ffffffff  __TI_pprof_out_hndl                                                  
ffffffff  __TI_prof_data_size                                                  
ffffffff  __TI_prof_data_start                                                 
ffffffff  __binit__                                                            
ffffffff  __c_args__                                                           
ffffffff  binit                                                                
UNDEFED   SHT$$INIT_ARRAY$$Base                                                
UNDEFED   SHT$$INIT_ARRAY$$Limit                                               

[958 symbols]
