******************************************************************************
                  TI ARM Linker PC v16.9.6                     
******************************************************************************
>> Linked Tue Jun 04 15:07:23 2019

OUTPUT FILE NAME:   <multi_gesture_68xx_mss.xer4f>
ENTRY POINT SYMBOL: "_c_int00"  address: 0000eec4


MEMORY CONFIGURATION

         name            origin    length      used     unused   attr    fill
----------------------  --------  ---------  --------  --------  ----  --------
PAGE 0:
  VECTORS               00000000   00000100  0000003c  000000c4     X
  PROG_RAM              00000100   0007ff00  00018fa0  00066f60  R  X
  DATA_RAM              08000000   00030000  000114e8  0001eb18  RW  
  L3_RAM                51000000   000c0000  00000000  000c0000  RW  
  HWA_RAM               52030000   00010000  00000000  00010000  RW  
  HS_RAM                52080000   00008000  00000000  00008000  RW  

PAGE 1:
  L3_RAM                51000000   000c0000  00000000  000c0000  RW  


SEGMENT ALLOCATION MAP

run origin  load origin   length   init length attrs members
----------  ----------- ---------- ----------- ----- -------
00000000    00000000    0000003c   0000003c    r--
  00000000    00000000    0000003c   0000003c    r-- .vecs
00000100    00000100    00018fa8   00018fa8    r-x
  00000100    00000100    000131e2   000131e2    r-x .text
  000132e8    000132e8    00002e76   00002e76    r-- .const
  00016160    00016160    00002f48   00002f48    r-- .cinit
08000000    08000000    000114e8   00000000    rw-
  08000000    08000000    0000a000   00000000    rw- systemHeap
  0800a000    0800a000    00004018   00000000    rw- .data
  0800e018    0800e018    00001cd0   00000000    rw- .bss
  0800fce8    0800fce8    00001000   00000000    rw- .stack
  08010ce8    08010ce8    00000800   00000000    rw- .myFiqStack


SECTION ALLOCATION MAP

 output                                  attributes/
section   page    origin      length       input sections
--------  ----  ----------  ----------   ----------------
.vecs      0    00000000    0000003c     
                  00000000    0000003c     mss_mmw_per4ft.oer4ft (.vecs)

.text      0    00000100    000131e2     
                  00000100    0000107a     rtsv7R4_T_le_v3D16_eabi.lib : _printfi.obj (.text)
                  0000117a    00000002     libmmwave_xwr68xx.aer4f : mmwave_link.oer4f (.text:MMWave_maskHostIRQ)
                  0000117c    0000064e     mss_cli.oer4f (.text:MmwDemo_CLIInit)
                  000017ca    00000006     libosal_xwr68xx.aer4f : HwiP_tirtos.oer4f (.text:HwiP_restore)
                  000017d0    000004e1     sysbios.aer4ft : BIOS.obj (.text:xdc_runtime_System_doPrint__I)
                  00001cb1    00000001     --HOLE-- [fill = 0]
                  00001cb2    00000002     mss_main.oer4f (.text:MmwDemo_mssMmwaveCloseCallbackFxn)
                  00001cb4    000004bc     mss_main.oer4f (.text:MmwDemo_mssInitTask)
                  00002170    000003d0     cli_mmwave.oer4f (.text:CLI_MMWaveVersion)
                  00002540    00000394     sysbios.aer4ft : BIOS.obj (.text:ti_sysbios_knl_Event_pend__E)
                  000028d4    0000000c     cli_mmwave.oer4f (.text:CLI_getMMWaveExtensionConfig)
                  000028e0    00000310     sysbios.aer4ft : BIOS.obj (.text:ti_sysbios_knl_Semaphore_pend__E)
                  00002bf0    00000300     libsoc_xwr68xx.aer4f : soc_xwr68xx_mss.oer4f (.text:SOC_deviceInit)
                  00002ef0    000002f0     mss_main.oer4f (.text:MmwDemo_mboxReadTask)
                  000031e0    000002b8     rtsv7R4_T_le_v3D16_eabi.lib : ull_div32.obj (.text)
                  00003498    00000008     libosal_xwr68xx.aer4f : HwiP_tirtos.oer4f (.text:HwiP_disable)
                  000034a0    000002a4     sysbios.aer4ft : BIOS.obj (.text:ti_sysbios_heaps_HeapMem_freeUnprotected__E)
                  00003744    00000284     libmmwave_xwr68xx.aer4f : mmwave_dualcore.oer4f (.text:MMWave_deviceExecuteFxn)
                  000039c8    00000008                             : mmwave.oer4f (.text:MMWave_decodeErrorLevel)
                  000039d0    00000280     sysbios.aer4ft : BIOS.obj (.text:ti_sysbios_family_arm_exc_Exception_excDumpContext__I)
                  00003c50    00000268                    : BIOS.obj (.text:ti_sysbios_knl_Task_Instance_finalize__E)
                  00003eb8    00000260     libmailbox_xwr68xx.aer4f : mailbox.oer4f (.text:Mailbox_open)
                  00004118    00000258     rtsv7R4_T_le_v3D16_eabi.lib : e_exp.obj (.text)
                  00004370    00000254     cli_mmwave.oer4f (.text:CLI_MMWaveProfileCfg)
                  000045c4    00000244     mss_main.oer4f (.text:MmwDemo_mssCtrlPathTask)
                  00004808    00000008     libmmwave_xwr68xx.aer4f : mmwave_link.oer4f (.text:MMWave_mboxCallbackFxn)
                  00004810    00000228     sysbios.aer4ft : BIOS.obj (.text:ti_sysbios_heaps_HeapMem_allocUnprotected__E)
                  00004a38    00000008     libosal_xwr68xx.aer4f : SemaphoreP_tirtos.oer4f (.text:SemaphoreP_Params_init)
                  00004a40    00000220     sysbios.aer4ft : BIOS.obj (.text:ti_sysbios_knl_Task_sleep__E)
                  00004c60    00000214     libuart_xwr68xx.aer4f : uartsci.oer4f (.text:UartSci_open)
                  00004e74    00000210     mss_main.oer4f (.text:MmwDemo_mssDataPathConfig)
                  00005084    00000204     cli_mmwave.oer4f (.text:CLI_MMWaveChirpCfg)
                  00005288    00000200     libcrc_xwr68xx.aer4f : crc.oer4f (.text:CRC_open)
                  00005488    000001f8     cli.oer4f (.text:CLI_task)
                  00005680    000001f0     libdma_xwr68xx.aer4f : dma.oer4f (.text:DMA_setChannelParams)
                  00005870    000001e4     rtsv7R4_T_le_v3D16_eabi.lib : strtod.obj (.text)
                  00005a54    0000000c     libmmwave_xwr68xx.aer4f : mmwave_dualcore.oer4f (.text:MMWave_deviceMailboxCallbackFxn)
                  00005a60    000001e4     sysbios.aer4ft : BIOS.obj (.text:ti_sysbios_family_arm_v7r_vim_Hwi_dispatchIRQC__I)
                  00005c44    0000000c     libmmwave_xwr68xx.aer4f : mmwave_osal.oer4f (.text:MMWave_osalMutexUnlock)
                  00005c50    000001dc     sysbios.aer4ft : BIOS.obj (.text:ti_sysbios_knl_Task_Module_startup__E)
                  00005e2c    000001c8     rtsv7R4_T_le_v3D16_eabi.lib : fopen.obj (.text)
                  00005ff4    0000000c     libmmwave_xwr68xx.aer4f : mmwave_osal.oer4f (.text:MMWave_osalSemSignal)
                  00006000    000001c8     sysbios.aer4ft : BIOS.obj (.text:ti_sysbios_knl_Task_Instance_init__E)
                  000061c8    000001b0     mss_main.oer4f (.text:MmwDemo_bpmConfig)
                  00006378    000001a8     cli_mmwave.oer4f (.text:CLI_MMWaveSubFrameCfg)
                  00006520    000001a4     libmmwave_xwr68xx.aer4f : mmwave_dualcore.oer4f (.text:MMWave_serializeCfg)
                  000066c4    0000000c     mss_main.oer4f (.text:MmwDemo_mboxCallback)
                  000066d0    0000019c     sysbios.aer4ft : BIOS.obj (.text:xdc_runtime_Error_policyDefault__E)
                  0000686c    00000184     libmmwavelink_xwr68xx.aer4f : rl_driver.oer4f (.text:rlDriverCmdInvoke)
                  000069f0    00000184     sysbios.aer4ft : BIOS.obj (.text:ti_sysbios_timers_rti_Timer_Module_startup__E)
                  00006b74    00000180     libmmwavelink_xwr68xx.aer4f : rl_driver.oer4f (.text:rlDriverRxHdrRead)
                  00006cf4    0000000c     libuart_xwr68xx.aer4f : UART.oer4f (.text:UART_Params_init)
                  00006d00    0000017c     sysbios.aer4ft : BIOS.obj (.text:ti_sysbios_family_arm_exc_Exception_excHandler__I)
                  00006e7c    00000004     libosal_xwr68xx.aer4f : HwiP_tirtos.oer4f (.text:HwiP_disableInterrupt)
                  00006e80    0000017c     sysbios.aer4ft : BIOS.obj (.text:ti_sysbios_knl_Semaphore_post__E)
                  00006ffc    00000004     libmmwave_xwr68xx.aer4f : mmwave_link.oer4f (.text:MMWave_disableDevice)
                  00007000    00000174     sysbios.aer4ft : BIOS.obj (.text:ti_sysbios_knl_Event_post__E)
                  00007174    00000170     libgpio_xwr68xx.aer4f : gpio.oer4f (.text:GPIO_setConfig)
                  000072e4    0000000c     libuart_xwr68xx.aer4f : uartsci_dma.oer4f (.text:UartSci_isDMAEnabled)
                  000072f0    00000160     sysbios.aer4ft : BIOS.obj (.text:ti_sysbios_family_arm_v7r_vim_Hwi_reconfig__E)
                  00007450    00000158     mss_main.oer4f (.text:main)
                  000075a8    00000150     mss_cli.oer4f (.text:MmwDemo_CLICalibDcRangeSig)
                  000076f8    0000014c     cli_mmwave.oer4f (.text:CLI_MMWaveFrameCfg)
                  00007844    0000014c     libmmwave_xwr68xx.aer4f : mmwave_link.oer4f (.text:MMWave_initMMWaveLink)
                  00007990    0000014a     libuart_xwr68xx.aer4f : uartsci.oer4f (.text:UartSci_ISR)
                  00007ada    00000006     libmmwavelink_xwr68xx.aer4f : rl_controller.oer4f (.text:rlGetSubBlockId)
                  00007ae0    00000140     sysbios.aer4ft : BIOS.obj (.text:ti_sysbios_heaps_HeapMem_Instance_init__E)
                  00007c20    00000140                    : BIOS.obj (.text:xdc_runtime_Core_createObject__I)
                  00007d60    0000013c                    : BIOS.obj (.text:ti_sysbios_knl_Clock_workFunc__E)
                  00007e9c    00000004     libmmwave_xwr68xx.aer4f : mmwave_link.oer4f (.text:MMWave_enableDevice)
                  00007ea0    00000134     sysbios.aer4ft : BIOS.obj (.text:xdc_runtime_Startup_startMods__I)
                  00007fd4    0000012c     mss_main.oer4f (.text:postProcessing)
                  00008100    00000128     libmmwave_xwr68xx.aer4f : mmwave_link.oer4f (.text:MMWave_openLink)
                  00008228    00000128     libmmwavelink_xwr68xx.aer4f : rl_driver.oer4f (.text:rlDriverMsgRead)
                  00008350    00000124     cli_mmwave.oer4f (.text:CLI_MMWaveAdvFrameCfg)
                  00008474    00000124     cli_mmwave.oer4f (.text:CLI_MMWaveContModeCfg)
                  00008598    00000120     mss_cli.oer4f (.text:MmwDemo_CLICompRangeBiasAndRxChanPhaseCfg)
                  000086b8    00000008     libmmwavelink_xwr68xx.aer4f : rl_driver.oer4f (.text:rlDriverConstructOutMsg)
                  000086c0    00000118     sysbios.aer4ft : BIOS.obj (.text:ti_sysbios_family_arm_v7r_vim_Hwi_Instance_init__E)
                  000087d8    00000008     libmmwavelink_xwr68xx.aer4f : rl_driver.oer4f (.text:rlDriverGetHandle)
                  000087e0    00000118     sysbios.aer4ft : BIOS.obj (.text:ti_sysbios_knl_Swi_run__I)
                  000088f8    00000114     libmmwavelink_xwr68xx.aer4f : rl_driver.oer4f (.text:rlDriverCmdSendRetry)
                  00008a0c    0000010c     libmmwave_xwr68xx.aer4f : mmwave_dualcore.oer4f (.text:MMWave_deviceInitFxn)
                  00008b18    00000008     sysbios.aer4ft : BIOS.obj (.text:ti_sysbios_family_arm_v7a_Pmu_getEnabled__E)
                  00008b20    0000010c                    : BIOS.obj (.text:xdc_runtime_Core_constructObject__I)
                  00008c2c    00000108     libmailbox_xwr68xx.aer4f : mailbox.oer4f (.text:Mailbox_write)
                  00008d34    00000108     mss_main.oer4f (.text:MmwDemo_mssMmwaveEventCallbackFxn)
                  00008e3c    00000004     libmmwave_xwr68xx.aer4f : mmwave_listlib.oer4f (.text:MMWave_listGetHead)
                  00008e40    00000104     sysbios.aer4ft : BIOS.obj (.text:ti_sysbios_timers_rti_Timer_getFreq__E)
                  00008f44    00000100     cli_mmwave.oer4f (.text:CLI_MMWaveBPMCfgAdvanced)
                  00009044    00000100     libmmwave_xwr68xx.aer4f : mmwave_link.oer4f (.text:MMWave_startLink)
                  00009144    000000fc     libcrc_xwr68xx.aer4f : crc.oer4f (.text:CRC_computeSignature)
                  00009240    000000fc     libdma_xwr68xx.aer4f : dma.oer4f (.text:DMA_disableInterrupt)
                  0000933c    000000fc     libmmwavelink_xwr68xx.aer4f : rl_driver.oer4f (.text:rlDriverInit)
                  00009438    000000f8                                 : rl_driver.oer4f (.text:rlDriverRdVerifyMsg)
                  00009530    000000f8     mss_mmw_per4ft.oer4ft (.text:xdc_runtime_System_printfExtend__I)
                  00009628    00000006     libmmwavelink_xwr68xx.aer4f : rl_controller.oer4f (.text:rlGetSubBlockLen)
                  0000962e    00000002     mss_main.oer4f (.text:MmwDemo_mssMmwaveOpenCallbackFxn)
                  00009630    000000f0     sysbios.aer4ft : BIOS.obj (.text:ti_sysbios_family_arm_v7r_vim_Hwi_Module_startup__E)
                  00009720    000000ec     rtsv7R4_T_le_v3D16_eabi.lib : s_scalbn.obj (.text)
                  0000980c    00000004     libmmwave_xwr68xx.aer4f : mmwave_listlib.oer4f (.text:MMWave_listGetNext)
                  00009810    000000ec     sysbios.aer4ft : BIOS.obj (.text:ti_sysbios_heaps_HeapBuf_Module_startup__E)
                  000098fc    000000e8     cli.oer4f (.text:CLI_open)
                  000099e4    000000e6     inference.oer4f (.text:Inference)
                  00009aca    00000002     libuart_xwr68xx.aer4f : uartsci.oer4f (.text:UartSci_init)
                  00009acc    000000e4     libdma_xwr68xx.aer4f : dma.oer4f (.text:DMA_clearChannelInterruptFlag)
                  00009bb0    000000e4     libmmwave_xwr68xx.aer4f : mmwave_link.oer4f (.text:MMWave_asyncEventHandler)
                  00009c94    000000dc     mss_cli.oer4f (.text:MmwDemo_CLIPeakGroupingCfg)
                  00009d70    000000dc     rtsv7R4_T_le_v3D16_eabi.lib : setvbuf.obj (.text)
                  00009e4c    000000d9     mss_main.oer4f (.text:correlation_function)
                  00009f25    00000001     --HOLE-- [fill = 0]
                  00009f26    00000002     rtsv7R4_T_le_v3D16_eabi.lib : i_div0.obj (.text)
                  00009f28    000000d8     libdma_xwr68xx.aer4f : dma.oer4f (.text:DMA_enableInterrupt)
                  0000a000    000000d8     libmmwave_xwr68xx.aer4f : mmwave.oer4f (.text:MMWave_init)
                  0000a0d8    000000d8     mss_cli.oer4f (.text:MmwDemo_CLIChirpQualityRxSatMonCfg)
                  0000a1b0    000000d4     libmailbox_xwr68xx.aer4f : mailbox.oer4f (.text:Mailbox_read)
                  0000a284    000000d4     mss_main.oer4f (.text:MmwDemo_mssDataPathStop)
                  0000a358    000000d4     libmmwavelink_xwr68xx.aer4f : rl_sensor.oer4f (.text:rlSetMultiBpmChirpConfig)
                  0000a42c    00000004     libmmwave_xwr68xx.aer4f : mmwave_link.oer4f (.text:MMWave_mboxClose)
                  0000a430    000000d4     sysbios.aer4ft : BIOS.obj (.text:ti_sysbios_knl_Task_exit__E)
                  0000a504    0000000c                    : arm_IntrinsicsSupport_asm.obj (.text:_ti_sysbios_family_arm_IntrinsicsSupport_maxbitA)
                  0000a510    000000d4                    : BIOS.obj (.text:ti_sysbios_knl_Task_schedule__I)
                  0000a5e4    000000d0     libsoc_xwr68xx.aer4f : soc_xwr68xx_mss.oer4f (.text:SOC_controlSecureFirewall)
                  0000a6b4    000000d0     sysbios.aer4ft : exc_Exception_asm.obj (.text:ti_sysbios_family_arm_exc_Exception_excHandlerAsm__I)
                  0000a784    000000cc     libmmwavelink_xwr68xx.aer4f : rl_sensor.oer4f (.text:rlRfCalibDataRestore)
                  0000a850    000000cc                                 : rl_sensor.oer4f (.text:rlSetChirpConfig)
                  0000a91c    000000cc     rtsv7R4_T_le_v3D16_eabi.lib : fflush.obj (.text)
                  0000a9e8    00000004     libmmwave_xwr68xx.aer4f : mmwave_link.oer4f (.text:MMWave_mboxRead)
                  0000a9ec    00000004                             : mmwave_link.oer4f (.text:MMWave_registerInterruptHandler)
                  0000a9f0    000000cc     sysbios.aer4ft : BIOS.obj (.text:ti_sysbios_knl_Task_checkStacks__E)
                  0000aabc    000000c8     libmmwave_xwr68xx.aer4f : mmwave_fullcfg.oer4f (.text:MMWave_addChirp)
                  0000ab84    000000c8                             : mmwave_link.oer4f (.text:MMWave_configBPM)
                  0000ac4c    000000c8                             : mmwave_fullcfg.oer4f (.text:MMWave_flushCfg)
                  0000ad14    000000c8                             : mmwave_fullcfg.oer4f (.text:MMWave_getChirpHandle)
                  0000addc    00000004                             : mmwave_link.oer4f (.text:MMWave_unmaskHostIRQ)
                  0000ade0    000000c8     sysbios.aer4ft : BIOS.obj (.text:ti_sysbios_knl_Task_postInit__I)
                  0000aea8    000000c4     cli.oer4f (.text:CLI_help)
                  0000af6c    000000c4     mss_cli.oer4f (.text:MmwDemo_CLILvdsStreamCfg)
                  0000b030    000000c4     sysbios.aer4ft : BIOS.obj (.text:ti_sysbios_family_arm_v7a_Pmu_configureCounter__E)
                  0000b0f4    000000c0     mss_cli.oer4f (.text:MmwDemo_CLIChirpQualitySigImgMonCfg)
                  0000b1b4    000000c0     libmmwavelink_xwr68xx.aer4f : rl_driver.oer4f (.text:rlDriverMsgWrite)
                  0000b274    000000c0                                 : rl_sensor.oer4f (.text:rlSetFrameConfig)
                  0000b334    0000000c     rtsv7R4_T_le_v3D16_eabi.lib : copy_zero_init.obj (.text:decompress:ZI)
                  0000b340    000000c0     sysbios.aer4ft : BIOS.obj (.text:ti_sysbios_timers_rti_Timer_startup__E)
                  0000b400    000000bc     libgpio_xwr68xx.aer4f : gpio.oer4f (.text:GPIO_write)
                  0000b4bc    000000bc     libmmwave_xwr68xx.aer4f : mmwave_link.oer4f (.text:MMWave_computeCRC)
                  0000b578    000000bc     mss_cli.oer4f (.text:MmwDemo_CLIBpmCfg)
                  0000b634    000000bc     mss_cli.oer4f (.text:MmwDemo_CLICfarCfg)
                  0000b6f0    000000bc     rtsv7R4_T_le_v3D16_eabi.lib : open.obj (.text)
                  0000b7ac    000000b8     mss_cli.oer4f (.text:MmwDemo_CLIMeasureRangeBiasAndRxChanPhaseCfg)
                  0000b864    000000b6     libsoc_xwr68xx.aer4f : soc_mpu.o (.text)
                  0000b91a    00000002     mss_mmw_per4ft.oer4ft (.text:ti_sysbios_BIOS_nullFunc__I)
                  0000b91c    000000b4     mss_main.oer4f (.text:MmwDemo_mssDataPathStart)
                  0000b9d0    000000b4     sysbios.aer4ft : BIOS.obj (.text:ti_sysbios_gates_GateMutex_enter__E)
                  0000ba84    0000000c     libmmwavelink_xwr68xx.aer4f : rl_driver.oer4f (.text:rlDriverGetPlatformId)
                  0000ba90    000000b4     sysbios.aer4ft : BIOS.obj (.text:ti_sysbios_knl_Task_startCore__E)
                  0000bb44    000000b2     libuart_xwr68xx.aer4f : uartsci_dma.oer4f (.text:UartSci_openDMA)
                  0000bbf6    00000002     mss_mmw_per4ft.oer4ft (.text:xdc_runtime_Startup_reset__I)
                  0000bbf8    000000b0     libmmwave_xwr68xx.aer4f : mmwave_fullcfg.oer4f (.text:MMWave_addProfile)
                  0000bca8    000000b0     libmmwavelink_xwr68xx.aer4f : rl_sensor.oer4f (.text:rlSetProfileConfig)
                  0000bd58    00000004     libmmwave_xwr68xx.aer4f : mmwave_link.oer4f (.text:MMWave_waitIRQStatus)
                  0000bd5c    00000004     mss_main.oer4f (.text:MmwDemo_sleep)
                  0000bd60    000000b0     sysbios.aer4ft : BIOS.obj (.text:xdc_runtime_Text_putMod__E)
                  0000be10    000000ae     rtsv7R4_T_le_v3D16_eabi.lib : _io_perm.obj (.text)
                  0000bebe    00000002     --HOLE-- [fill = 0]
                  0000bec0    000000ac     libesm_xwr68xx.aer4f : esm.oer4f (.text:ESM_processInterrupt)
                  0000bf6c    000000ac     mss_cli.oer4f (.text:MmwDemo_CLISetDataLogger)
                  0000c018    000000a8     cli_mmwave.oer4f (.text:CLI_MMWaveExtensionHelp)
                  0000c0c0    000000a8     libmmwave_xwr68xx.aer4f : mmwave_link.oer4f (.text:MMWave_configureProfileChirp)
                  0000c168    000000a8                             : mmwave_fullcfg.oer4f (.text:MMWave_getBpmChirpHandle)
                  0000c210    000000a8     mss_cli.oer4f (.text:MmwDemo_CLIGuiMonSel)
                  0000c2b8    000000a8     libpinmux_xwr68xx.aer4f : pinmux.oer4f (.text:Pinmux_Set_OverrideCtrl)
                  0000c360    000000a8     libmmwavelink_xwr68xx.aer4f : rl_sensor.oer4f (.text:rlSetAdvFrameConfig)
                  0000c408    000000a8     mss_main.oer4f (.text:runPeopleDetection)
                  0000c4b0    000000a8     sysbios.aer4ft : BIOS.obj (.text:ti_sysbios_knl_Swi_post__E)
                  0000c558    000000a4     libdma_xwr68xx.aer4f : dma.oer4f (.text:DMA_assignChannel)
                  0000c5fc    000000a4                          : dma.oer4f (.text:DMA_getChannelInterruptFlag)
                  0000c6a0    000000a4     libesm_xwr68xx.aer4f : esm.oer4f (.text:ESM_init)
                  0000c744    000000a4     libmmwave_xwr68xx.aer4f : mmwave_fullcfg.oer4f (.text:MMWave_addBpmChirp)
                  0000c7e8    000000a4                             : mmwave.oer4f (.text:MMWave_start)
                  0000c88c    000000a4     mss_main.oer4f (.text:MmwDemo_waitSensorStopComplete)
                  0000c930    000000a4     libsoc_xwr68xx.aer4f : soc_xwr68xx_mss.oer4f (.text:SOC_unhaltDSS)
                  0000c9d4    0000000c     sysbios.aer4ft : BIOS.obj (.text:ti_sysbios_family_arm_v7a_Pmu_configureCounterI__I)
                  0000c9e0    000000a2                    : BIOS.obj (.text:xdc_runtime_Text_putSite__E)
                  0000ca82    00000002     --HOLE-- [fill = 0]
                  0000ca84    000000a0     auto_init.aer4ft : auto_init.oer4ft (.text)
                  0000cb24    000000a0     libmmwavelink_xwr68xx.aer4f : rl_driver.oer4f (.text:rlDriverWaitForResponse)
                  0000cbc4    0000000c     mss_mmw_per4ft.oer4ft (.text:ti_sysbios_knl_Queue_Object__get__S)
                  0000cbd0    000000a0     sysbios.aer4ft : BIOS.obj (.text:ti_sysbios_knl_Task_blockI__E)
                  0000cc70    0000009c     libmmwave_xwr68xx.aer4f : mmwave_link.oer4f (.text:MMWave_configLink)
                  0000cd0c    0000009c                             : mmwave_fullcfg.oer4f (.text:MMWave_getProfileHandle)
                  0000cda8    0000009c     libuart_xwr68xx.aer4f : uartsci.oer4f (.text:UartSci_write)
                  0000ce44    0000009c     rtsv7R4_T_le_v3D16_eabi.lib : memcpy_t2.obj (.text)
                  0000cee0    0000009c     sysbios.aer4ft : BIOS.obj (.text:ti_sysbios_family_arm_v7r_vim_Hwi_initIntController__I)
                  0000cf7c    00000004     libsoc_xwr68xx.aer4f : soc_xwr68xx_mss.oer4f (.text:SOC_isSecureDevice)
                  0000cf80    0000009c     sysbios.aer4ft : BIOS.obj (.text:ti_sysbios_family_arm_v7r_vim_Hwi_mapChannel__I)
                  0000d01c    00000004     mss_mmw_per4ft.oer4ft (.text:ti_sysbios_BIOS_RtsGateProxy_enter__E)
                  0000d020    0000009c     sysbios.aer4ft : BIOS.obj (.text:ti_sysbios_knl_Semaphore_Instance_init__E)
                  0000d0bc    00000098     libmmwave_xwr68xx.aer4f : mmwave_fullcfg.oer4f (.text:MMWave_getChirpCfg)
                  0000d154    00000098     rtsv7R4_T_le_v3D16_eabi.lib : fclose.obj (.text)
                  0000d1ec    00000098                                 : fputc.obj (.text)
                  0000d284    00000098     sysbios.aer4ft : vim_Hwi_asm_switch.obj (.text)
                  0000d31c    00000096     libuart_xwr68xx.aer4f : uartsci.oer4f (.text:UartSci_readChar)
                  0000d3b2    00000002     --HOLE-- [fill = 0]
                  0000d3b4    00000094     libmmwavelink_xwr68xx.aer4f : rl_driver.oer4f (.text:rlDriverDeInit)
                  0000d448    00000094                                 : rl_driver.oer4f (.text:rlDriverMsgReadCmdCtx)
                  0000d4dc    00000094     sysbios.aer4ft : vim_Hwi_asm.obj (.text:ti_sysbios_family_arm_v7r_vim_Hwi_dispatchIRQ__I)
                  0000d570    00000090     libgpio_xwr68xx.aer4f : gpio.oer4f (.text:GPIO_init)
                  0000d600    00000090     libmailbox_xwr68xx.aer4f : mailbox.oer4f (.text:Mailbox_close)
                  0000d690    00000090     mss_cli.oer4f (.text:MmwDemo_CLIADCBufCfg)
                  0000d720    00000090     mss_main.oer4f (.text:MmwDemo_waitSensorStartComplete)
                  0000d7b0    00000090     libuart_xwr68xx.aer4f : uartsci_dma.oer4f (.text:UartSci_initiateTxDMA)
                  0000d840    00000090                           : uartsci.oer4f (.text:UartSci_read)
                  0000d8d0    00000090     utils.oer4f (.text:soft_max)
                  0000d960    00000090     sysbios.aer4ft : BIOS.obj (.text:ti_sysbios_family_arm_v7a_Pmu_startCounter__E)
                  0000d9f0    00000090                    : BIOS.obj (.text:ti_sysbios_knl_Task_unblockI__E)
                  0000da80    0000008c     cli_mmwave.oer4f (.text:CLI_MMWaveDataOutputMode)
                  0000db0c    0000008c     mss_cli.oer4f (.text:MmwDemo_CLIAnalogMonitorCfg)
                  0000db98    0000008c     libsoc_xwr68xx.aer4f : soc_xwr68xx.oer4f (.text:SOC_translateAddress)
                  0000dc24    0000008c     libuart_xwr68xx.aer4f : uartsci_dma.oer4f (.text:UartSci_initiateRxDMA)
                  0000dcb0    0000008c     libmmwavelink_xwr68xx.aer4f : rl_device.oer4f (.text:rlDevicePowerOn)
                  0000dd3c    0000008c                                 : rl_driver.oer4f (.text:rlDriverMsgCmdReply)
                  0000ddc8    00000004     mss_mmw_per4ft.oer4ft (.text:ti_sysbios_BIOS_RtsGateProxy_leave__E)
                  0000ddcc    00000004     mss_mmw_per4ft.oer4ft (.text:ti_sysbios_family_arm_TaskSupport_Module__startupDone__S)
                  0000ddd0    0000008c     sysbios.aer4ft : BIOS.obj (.text:ti_sysbios_family_arm_v7r_vim_Hwi_Instance_finalize__E)
                  0000de5c    00000004     mss_mmw_per4ft.oer4ft (.text:ti_sysbios_family_arm_v7r_vim_Hwi_delete)
                  0000de60    0000008c     sysbios.aer4ft : BIOS.obj (.text:xdc_runtime_Memory_alloc__E)
                  0000deec    00000088     libmmwave_xwr68xx.aer4f : mmwave_fullcfg.oer4f (.text:MMWave_getProfileCfg)
                  0000df74    00000088     mss_cli.oer4f (.text:MmwDemo_CLIMultiObjBeamForming)
                  0000dffc    00000088     mss_cli.oer4f (.text:MmwDemo_CLINearFieldCorrection)
                  0000e084    00000088     mss_main.oer4f (.text:MmwDemo_gpioSwitchTask)
                  0000e10c    00000088     libsoc_xwr68xx.aer4f : soc.oer4f (.text:SOC_init)
                  0000e194    00000088     rtsv7R4_T_le_v3D16_eabi.lib : vsnprintf.obj (.text)
                  0000e21c    00000084     libmmwave_xwr68xx.aer4f : mmwave_dualcore.oer4f (.text:MMWave_deviceCfgAsyncEvent)
                  0000e2a0    00000084                             : mmwave_dualcore.oer4f (.text:MMWave_deviceEventFxn)
                  0000e324    00000084                             : mmwave_fullcfg.oer4f (.text:MMWave_getNumBpmChirp)
                  0000e3a8    00000084                             : mmwave.oer4f (.text:MMWave_open)
                  0000e42c    00000080     cli_mmwave.oer4f (.text:CLI_MMWaveChannelCfg)
                  0000e4ac    00000080     libmmwave_xwr68xx.aer4f : mmwave_fullcfg.oer4f (.text:MMWave_getBpmChirpCfg)
                  0000e52c    00000080     libuart_xwr68xx.aer4f : uartsci.oer4f (.text:UartSci_writePolling)
                  0000e5ac    00000080     mss_main.oer4f (.text:findDelta)
                  0000e62c    00000080     libmmwavelink_xwr68xx.aer4f : rl_driver.oer4f (.text:rlDriverExecuteGetApi)
                  0000e6ac    00000004     mss_mmw_per4ft.oer4ft (.text:ti_sysbios_heaps_HeapMem_Module_GateProxy_enter__E)
                  0000e6b0    00000080     sysbios.aer4ft : BIOS.obj (.text:ti_sysbios_timers_rti_Timer_initDevice__I)
                  0000e730    0000007e     libosal_xwr68xx.aer4f : HwiP_tirtos.oer4f (.text:HwiP_create)
                  0000e7ae    00000002     --HOLE-- [fill = 0]
                  0000e7b0    0000007c     libmmwave_xwr68xx.aer4f : mmwave_dualcore.oer4f (.text:MMWave_deviceOpenFxn)
                  0000e82c    0000007c     libmailbox_xwr68xx.aer4f : mailbox.oer4f (.text:Mailbox_init)
                  0000e8a8    0000007c     libuart_xwr68xx.aer4f : uartsci.oer4f (.text:UartSci_readPolling)
                  0000e924    0000007c     sysbios.aer4ft : arm_TaskSupport_asm.obj (.text:_ti_sysbios_family_arm_TaskSupport_buildTaskStack)
                  0000e9a0    0000007c                    : BIOS.obj (.text:xdc_runtime_Core_deleteObject__I)
                  0000ea1c    0000007b     mss_cli.oer4f (.text:MmwDemo_CLIGetSubframe)
                  0000ea97    00000001     --HOLE-- [fill = 0]
                  0000ea98    0000007a     rtsv7R4_T_le_v3D16_eabi.lib : memset_t2.obj (.text)
                  0000eb12    00000002     --HOLE-- [fill = 0]
                  0000eb14    00000078     cli_mmwave.oer4f (.text:CLI_MMWaveADCCfg)
                  0000eb8c    00000078     libmmwave_xwr68xx.aer4f : mmwave_fullcfg.oer4f (.text:MMWave_getNumChirps)
                  0000ec04    00000078     mss_cli.oer4f (.text:MmwDemo_CLIExtendedMaxVelocity)
                  0000ec7c    00000078     mss_main.oer4f (.text:MmwDemo_Dss2MssISR)
                  0000ecf4    00000074     libmmwave_xwr68xx.aer4f : mmwave.oer4f (.text:MMWave_config)
                  0000ed68    00000074                             : mmwave_dualcore.oer4f (.text:MMWave_deviceStartFxn)
                  0000eddc    00000074     mss_cli.oer4f (.text:MmwDemo_CLIClutterRemoval)
                  0000ee50    00000074     libsoc_xwr68xx.aer4f : soc.oer4f (.text:SOC_getDeviceRFFreqScaleFactor)
                  0000eec4    00000074     boot.aer4ft : boot.oer4ft (.text)
                  0000ef38    00000074     libmmwavelink_xwr68xx.aer4f : rl_driver.oer4f (.text:rlDriverAsyncEventHandler)
                  0000efac    00000074                                 : rl_driver.oer4f (.text:rlDriverProcRdMsg)
                  0000f020    00000074     rtsv7R4_T_le_v3D16_eabi.lib : getdevice.obj (.text)
                  0000f094    00000074                                 : s_frexp.obj (.text)
                  0000f108    00000072     libmmwavelink_xwr68xx.aer4f : rl_driver.oer4f (.text:rlDriverClientCbCheck)
                  0000f17a    00000002     --HOLE-- [fill = 0]
                  0000f17c    00000070     libmmwave_xwr68xx.aer4f : mmwave_dualcore.oer4f (.text:MMWave_deviceCfgFxn)
                  0000f1ec    00000070     mss_main.oer4f (.text:gestureInferenceProcessing)
                  0000f25c    00000070     mss_main.oer4f (.text:logFeatures)
                  0000f2cc    00000004     mss_mmw_per4ft.oer4ft (.text:ti_sysbios_heaps_HeapMem_Module_GateProxy_leave__E)
                  0000f2d0    00000070     sysbios.aer4ft : BIOS.obj (.text:xdc_runtime_Error_print__E)
                  0000f340    00000070                    : BIOS.obj (.text:xdc_runtime_Text_visitRope2__I)
                  0000f3b0    0000006c     libdma_xwr68xx.aer4f : dma.oer4f (.text:DMA_disableChannel)
                  0000f41c    0000006c     libgpio_xwr68xx.aer4f : gpio.oer4f (.text:GPIO_enableInt)
                  0000f488    0000006c     libmmwave_xwr68xx.aer4f : mmwave_link.oer4f (.text:MMWave_spawn)
                  0000f4f4    0000006c                             : mmwave_link.oer4f (.text:MMWave_stopLink)
                  0000f560    0000006c     libpinmux_xwr68xx.aer4f : pinmux.oer4f (.text:Pinmux_Set_FuncSel)
                  0000f5cc    0000006c     mss_main.oer4f (.text:angleDelta)
                  0000f638    0000006c     rtsv7R4_T_le_v3D16_eabi.lib : copy_decompress_lzss.obj (.text:decompress:lzss)
                  0000f6a4    0000006c                                 : trgmsg.obj (.text)
                  0000f710    0000006a     libuart_xwr68xx.aer4f : uartsci.oer4f (.text:UartSci_control)
                  0000f77a    00000002     --HOLE-- [fill = 0]
                  0000f77c    00000068     libdma_xwr68xx.aer4f : dma.oer4f (.text:DMA_enableChannel)
                  0000f7e4    00000068     libmmwave_xwr68xx.aer4f : mmwave_dualcore.oer4f (.text:MMWave_deviceStopFxn)
                  0000f84c    00000068     libmailbox_xwr68xx.aer4f : mailbox.oer4f (.text:Mailbox_readFlush)
                  0000f8b4    00000068     libmmwavelink_xwr68xx.aer4f : rl_driver.oer4f (.text:rlDriverExecuteSetApi)
                  0000f91c    00000068                                 : rl_driver.oer4f (.text:rlDriverHostIrqHandler)
                  0000f984    00000068     rtsv7R4_T_le_v3D16_eabi.lib : hostlseek.obj (.text)
                  0000f9ec    00000068                                 : hostrename.obj (.text)
                  0000fa54    0000000a     libosal_xwr68xx.aer4f : MemoryP_tirtos.oer4f (.text:MemoryP_ctrlFree)
                  0000fa5e    00000002     --HOLE-- [fill = 0]
                  0000fa60    00000068     sysbios.aer4ft : BIOS.obj (.text:ti_sysbios_knl_Swi_schedule__I)
                  0000fac8    00000067     mss_main.oer4f (.text:MmwDemo_mssSetHsiClk)
                  0000fb2f    00000001     --HOLE-- [fill = 0]
                  0000fb30    00000066     libmmwavelink_xwr68xx.aer4f : rl_device.oer4f (.text:rlDevicePowerOff)
                  0000fb96    00000002     --HOLE-- [fill = 0]
                  0000fb98    00000064     cli_mmwave.oer4f (.text:CLI_MMWaveLowPowerCfg)
                  0000fbfc    00000064     libosal_xwr68xx.aer4f : SemaphoreP_tirtos.oer4f (.text:SemaphoreP_create)
                  0000fc60    00000064     rtsv7R4_T_le_v3D16_eabi.lib : fseek.obj (.text)
                  0000fcc4    00000064                                 : sprintf.obj (.text)
                  0000fd28    00000064     sysbios.aer4ft : exc_Exception_asm.obj (.text:ti_sysbios_family_arm_exc_Exception_initCore0__I)
                  0000fd8c    00000004     mss_mmw_per4ft.oer4ft (.text:ti_sysbios_knl_Clock_TimerProxy_getMaxTicks__E)
                  0000fd90    00000064     sysbios.aer4ft : BIOS.obj (.text:ti_sysbios_family_arm_v7r_vim_Hwi_phantomIntHandler__I)
                  0000fdf4    0000000a     libosal_xwr68xx.aer4f : SemaphoreP_tirtos.oer4f (.text:SemaphoreP_post)
                  0000fdfe    00000002     --HOLE-- [fill = 0]
                  0000fe00    00000064     sysbios.aer4ft : BIOS.obj (.text:ti_sysbios_knl_Clock_logTick__E)
                  0000fe64    0000000a     libuart_xwr68xx.aer4f : UART.oer4f (.text:UART_read)
                  0000fe6e    00000002     --HOLE-- [fill = 0]
                  0000fe70    00000064     sysbios.aer4ft : BIOS.obj (.text:xdc_runtime_Startup_exec__E)
                  0000fed4    00000060     cli_mmwave.oer4f (.text:CLI_MMWaveExtensionHandler)
                  0000ff34    00000060     libgpio_xwr68xx.aer4f : gpio.oer4f (.text:GPIO_setCallback)
                  0000ff94    0000000a     libuart_xwr68xx.aer4f : UART.oer4f (.text:UART_write)
                  0000ff9e    00000002     --HOLE-- [fill = 0]
                  0000ffa0    00000060     sysbios.aer4ft : BIOS.obj (.text:ti_sysbios_heaps_HeapMem_alloc__E)
                  00010000    00000060                    : BIOS.obj (.text:xdc_runtime_Assert_raise__I)
                  00010060    0000005f                    : BIOS.obj (.text:xdc_runtime_Text_putLab__E)
                  000100bf    00000001     --HOLE-- [fill = 0]
                  000100c0    0000005e     libuart_xwr68xx.aer4f : uartsci.oer4f (.text:UartSci_writeChar)
                  0001011e    00000002     --HOLE-- [fill = 0]
                  00010120    0000005c     libmmwave_xwr68xx.aer4f : mmwave_link.oer4f (.text:MMWave_mboxOpen)
                  0001017c    0000005c                             : mmwave.oer4f (.text:MMWave_stop)
                  000101d8    0000005c     rtsv7R4_T_le_v3D16_eabi.lib : hostopen.obj (.text)
                  00010234    0000005c                                 : hostread.obj (.text)
                  00010290    0000005a     libuart_xwr68xx.aer4f : uartsci.oer4f (.text:UartSci_readCancel)
                  000102ea    0000005a     libmmwavelink_xwr68xx.aer4f : rl_driver.oer4f (.text:rlDriverCalChkSum)
                  00010344    00000058     libesm_xwr68xx.aer4f : esm.oer4f (.text:ESM_highpriority_FIQ)
                  0001039c    00000058     libmmwave_xwr68xx.aer4f : mmwave.oer4f (.text:MMWave_execute)
                  000103f4    00000058                             : mmwave_link.oer4f (.text:MMWave_initCRC)
                  0001044c    00000058     mss_main.oer4f (.text:MmwDemo_mmWaveCtrlTask)
                  000104a4    00000058     libuart_xwr68xx.aer4f : uartsci_dma.oer4f (.text:UartSci_closeDMA)
                  000104fc    00000058     libmmwavelink_xwr68xx.aer4f : rl_driver.oer4f (.text:rlDriverMsgReadSpawnCtx)
                  00010554    00000058     rtsv7R4_T_le_v3D16_eabi.lib : close.obj (.text)
                  000105ac    00000058                                 : hostwrite.obj (.text)
                  00010604    0000000a     libuart_xwr68xx.aer4f : UART.oer4f (.text:UART_writePolling)
                  0001060e    00000002     --HOLE-- [fill = 0]
                  00010610    00000058     sysbios.aer4ft : BIOS.obj (.text:ti_sysbios_knl_Swi_restoreHwi__E)
                  00010668    00000056     libmmwavelink_xwr68xx.aer4f : rl_driver.oer4f (.text:rlDriverOsiCbCheck)
                  000106be    00000002     --HOLE-- [fill = 0]
                  000106c0    00000054     libcrc_xwr68xx.aer4f : crc.oer4f (.text:CRC_getTransactionId)
                  00010714    00000054     libdma_xwr68xx.aer4f : dma.oer4f (.text:DMA_freeChannel)
                  00010768    00000054     libmmwave_xwr68xx.aer4f : mmwave_link.oer4f (.text:MMWave_initLink)
                  000107bc    00000054     rtsv7R4_T_le_v3D16_eabi.lib : ltoa.obj (.text)
                  00010810    00000054     mss_mmw_per4ft.oer4ft (.text:ti_sysbios_family_arm_v7r_vim_Hwi_create)
                  00010864    0000000a     sysbios.aer4ft : tms570_Core_asm.obj (.text:ti_sysbios_family_arm_v7r_tms570_Core_getId__E)
                  0001086e    00000002     --HOLE-- [fill = 0]
                  00010870    00000054                    : BIOS.obj (.text:ti_sysbios_heaps_HeapMem_getStats__E)
                  000108c4    0000000a     mss_mmw_per4ft.oer4ft (.text:xdc_runtime_IHeap_alloc)
                  000108ce    00000002     --HOLE-- [fill = 0]
                  000108d0    00000054     sysbios.aer4ft : BIOS.obj (.text:ti_sysbios_knl_Swi_runLoop__I)
                  00010924    0000000a     mss_mmw_per4ft.oer4ft (.text:xdc_runtime_IHeap_free)
                  0001092e    00000002     --HOLE-- [fill = 0]
                  00010930    00000054     sysbios.aer4ft : BIOS.obj (.text:ti_sysbios_knl_Swi_startup__E)
                  00010984    00000004     mss_mmw_per4ft.oer4ft (.text:ti_sysbios_knl_Semaphore_delete)
                  00010988    00000004     mss_mmw_per4ft.oer4ft (.text:xdc_runtime_System_Module_GateProxy_enter__E)
                  0001098c    00000004     mss_mmw_per4ft.oer4ft (.text:xdc_runtime_System_Module_GateProxy_leave__E)
                  00010990    00000054     sysbios.aer4ft : BIOS.obj (.text:xdc_runtime_Core_assignLabel__I)
                  000109e4    00000050     cli.oer4f (.text:CLI_write)
                  00010a34    00000050     libcrc_xwr68xx.aer4f : crc.oer4f (.text:CRC_getSignature)
                  00010a84    00000050     libmmwave_xwr68xx.aer4f : mmwave.oer4f (.text:MMWave_sync)
                  00010ad4    00000050     libmmwavelink_xwr68xx.aer4f : rl_driver.oer4f (.text:rlDeviceIdentifyCmdDir)
                  00010b24    00000050                                 : rl_driver.oer4f (.text:rlDriverVerifyCRC)
                  00010b74    00000050     rtsv7R4_T_le_v3D16_eabi.lib : atoi.obj (.text)
                  00010bc4    00000050                                 : exit.obj (.text)
                  00010c14    00000050                                 : u_div32.obj (.text)
                  00010c64    0000000c     --HOLE-- [fill = 0]
                  00010c70    00000050     sysbios.aer4ft : BIOS.obj (.text:xdc_runtime_System_exit__E)
                  00010cc0    0000004c     libmailbox_xwr68xx.aer4f : mailbox.oer4f (.text:Mailbox_boxEmptyISRProcessing)
                  00010d0c    0000004c     libuart_xwr68xx.aer4f : uartsci.oer4f (.text:UartSci_writeCancel)
                  00010d58    0000004c     rtsv7R4_T_le_v3D16_eabi.lib : cpy_tbl.obj (.text)
                  00010da4    0000000c     --HOLE-- [fill = 0]
                  00010db0    0000004c     sysbios.aer4ft : BIOS.obj (.text:ti_sysbios_family_arm_v7r_vim_Hwi_getStackInfo__E)
                  00010dfc    0000004c     mss_mmw_per4ft.oer4ft (.text:ti_sysbios_knl_Task_create)
                  00010e48    0000004a     libmailbox_xwr68xx.aer4f : mailbox.oer4f (.text:Mailbox_boxFullISRProcessing)
                  00010e92    0000000e     mss_cli.oer4f (.text:MmwDemo_CLISensorStop)
                  00010ea0    0000004a     sysbios.aer4ft : BIOS.obj (.text:xdc_runtime_Core_assignParams__I)
                  00010eea    00000006     --HOLE-- [fill = 0]
                  00010ef0    0000004a                    : BIOS.obj (.text:xdc_runtime_Text_xprintf__I)
                  00010f3a    00000048     libmmwavelink_xwr68xx.aer4f : rl_device.oer4f (.text:rlDeviceGetVersion)
                  00010f82    00000002     --HOLE-- [fill = 0]
                  00010f84    00000048                                 : rl_driver.oer4f (.text:rlDriverOsiInit)
                  00010fcc    00000046     libmailbox_xwr68xx.aer4f : mailbox.oer4f (.text:CSL_FINSR)
                  00011012    00000044     libcrc_xwr68xx.aer4f : crc.oer4f (.text:CRC_resetSignature)
                  00011056    00000002     --HOLE-- [fill = 0]
                  00011058    00000044     libmailbox_xwr68xx.aer4f : mailbox.oer4f (.text:Mailbox_boxFullISRMssDss)
                  0001109c    00000044     mss_cli.oer4f (.text:MmwDemo_mssCfgUpdate)
                  000110e0    00000044     rtsv7R4_T_le_v3D16_eabi.lib : hostclose.obj (.text)
                  00011124    00000044                                 : hostunlink.obj (.text)
                  00011168    00000008     --HOLE-- [fill = 0]
                  00011170    00000044     sysbios.aer4ft : BIOS.obj (.text:ti_sysbios_family_arm_v7r_tms570_Core_Module_startup__E)
                  000111b4    0000000c     --HOLE-- [fill = 0]
                  000111c0    00000044                    : BIOS.obj (.text:ti_sysbios_knl_Task_allBlockedFunction__I)
                  00011204    0000000c     --HOLE-- [fill = 0]
                  00011210    00000044                    : BIOS.obj (.text:xdc_runtime_System_atexit__E)
                  00011254    00000042     libmmwave_xwr68xx.aer4f : mmwave_link.oer4f (.text:MMWave_executeLink)
                  00011296    00000040     libmmwavelink_xwr68xx.aer4f : rl_driver.oer4f (.text:rlDriverValidateHdr)
                  000112d6    00000002     --HOLE-- [fill = 0]
                  000112d8    00000040     rtsv7R4_T_le_v3D16_eabi.lib : strtok.obj (.text)
                  00011318    00000008     --HOLE-- [fill = 0]
                  00011320    00000040     sysbios.aer4ft : BIOS.obj (.text:ti_sysbios_timers_rti_Timer_stop__E)
                  00011360    0000003e     libcrc_xwr68xx.aer4f : crc.oer4f (.text:CSL_FINSR)
                  0001139e    0000003e     libdma_xwr68xx.aer4f : dma.oer4f (.text:CSL_FINSR)
                  000113dc    0000003e     libgpio_xwr68xx.aer4f : gpio.oer4f (.text:CSL_FINSR)
                  0001141a    0000003e     libpinmux_xwr68xx.aer4f : pinmux.oer4f (.text:CSL_FINSR)
                  00011458    0000003e     libsoc_xwr68xx.aer4f : soc.oer4f (.text:CSL_FINSR)
                  00011496    0000003e                          : soc_xwr68xx.oer4f (.text:CSL_FINSR)
                  000114d4    0000003e                          : soc_xwr68xx_mss.oer4f (.text:CSL_FINSR)
                  00011512    0000003e     libuart_xwr68xx.aer4f : uartsci.oer4f (.text:CSL_FINSR)
                  00011550    0000003e     libmmwave_xwr68xx.aer4f : mmwave.oer4f (.text:MMWave_decodeError)
                  0001158e    0000003e     libuart_xwr68xx.aer4f : uartsci.oer4f (.text:UartSci_close)
                  000115cc    0000003c     cli_mmwave.oer4f (.text:CLI_MMWaveFlushCfg)
                  00011608    0000003c     libmailbox_xwr68xx.aer4f : mailbox.oer4f (.text:Mailbox_writeReset)
                  00011644    0000003c     libsoc_xwr68xx.aer4f : soc.oer4f (.text:SOC_unhaltBSS)
                  00011680    0000003c     libmmwavelink_xwr68xx.aer4f : rl_controller.oer4f (.text:rlGetSubBlock)
                  000116bc    0000003c     sysbios.aer4ft : vim_Hwi_asm.obj (.text:ti_sysbios_family_arm_v7r_vim_Hwi_init__I)
                  000116f8    00000008     --HOLE-- [fill = 0]
                  00011700    0000003c                    : BIOS.obj (.text:ti_sysbios_hal_Hwi_checkStack)
                  0001173c    00000004     --HOLE-- [fill = 0]
                  00011740    0000003c                    : BIOS.obj (.text:ti_sysbios_heaps_HeapMem_init__I)
                  0001177c    00000004     --HOLE-- [fill = 0]
                  00011780    0000003c                    : BIOS.obj (.text:ti_sysbios_timers_rti_Timer_setPeriod__E)
                  000117bc    0000003a     libosal_xwr68xx.aer4f : HwiP_tirtos.oer4f (.text:HwiP_delete)
                  000117f6    0000003a     mss_main.oer4f (.text:maxCheck)
                  00011830    00000038     cli_mmwave.oer4f (.text:CLI_MMWaveExtensionInit)
                  00011868    00000038     libuart_xwr68xx.aer4f : UART.oer4f (.text:UART_init)
                  000118a0    00000036     mss_main.oer4f (.text:logEnergy)
                  000118d6    00000036     libmmwavelink_xwr68xx.aer4f : rl_controller.oer4f (.text:rlAppendSubBlock)
                  0001190c    00000036     rtsv7R4_T_le_v3D16_eabi.lib : strncpy.obj (.text)
                  00011942    00000002     --HOLE-- [fill = 0]
                  00011944    00000034     libmmwave_xwr68xx.aer4f : mmwave_link.oer4f (.text:MMWave_mboxWrite)
                  00011978    00000034     mss_main.oer4f (.text:MmwDemo_installDss2MssExceptionSignallingISR)
                  000119ac    00000034     libsoc_xwr68xx.aer4f : soc_xwr68xx.oer4f (.text:SOC_setMMWaveDSSLinkState)
                  000119e0    00000034                          : soc_xwr68xx.oer4f (.text:SOC_setMMWaveMSSLinkState)
                  00011a14    00000034     libuart_xwr68xx.aer4f : UART.oer4f (.text:UART_open)
                  00011a48    00000034     mss_mmw_per4ft.oer4ft (.text:ti_sysbios_knl_Semaphore_create)
                  00011a7c    00000032     libcrc_xwr68xx.aer4f : crc.oer4f (.text:CRC_getCRCDataSelectBitValue)
                  00011aae    00000002     --HOLE-- [fill = 0]
                  00011ab0    00000032                          : crc.oer4f (.text:CRC_getCRCTypeBitValue)
                  00011ae2    0000000e     libosal_xwr68xx.aer4f : SemaphoreP_tirtos.oer4f (.text:SemaphoreP_delete)
                  00011af0    00000032     sysbios.aer4ft : BIOS.obj (.text:ti_sysbios_hal_Hwi_initStack)
                  00011b22    00000030     libmmwave_xwr68xx.aer4f : mmwave_listlib.oer4f (.text:MMWave_listRemoveNode)
                  00011b52    00000002     --HOLE-- [fill = 0]
                  00011b54    00000030     libsoc_xwr68xx.aer4f : soc.oer4f (.text:SOC_getDevicePartNumber)
                  00011b84    00000030     libmmwavelink_xwr68xx.aer4f : rl_sensor.oer4f (.text:rlSensorStart)
                  00011bb4    00000030     mss_mmw_per4ft.oer4ft (.text:ti_sysbios_BIOS_atExitFunc__I)
                  00011be4    00000030     mss_mmw_per4ft.oer4ft (.text:ti_sysbios_BIOS_startFunc__I)
                  00011c14    0000000c     --HOLE-- [fill = 0]
                  00011c20    00000030     sysbios.aer4ft : BIOS.obj (.text:ti_sysbios_family_arm_TaskSupport_start__E)
                  00011c50    00000030     mss_mmw_per4ft.oer4ft (.text:ti_sysbios_gates_GateHwi_Object__create__S)
                  00011c80    00000030     mss_mmw_per4ft.oer4ft (.text:ti_sysbios_gates_GateMutex_Object__create__S)
                  00011cb0    00000030     mss_mmw_per4ft.oer4ft (.text:ti_sysbios_heaps_HeapMem_Object__create__S)
                  00011ce0    00000030     sysbios.aer4ft : BIOS.obj (.text:ti_sysbios_heaps_HeapMem_free__E)
                  00011d10    00000030     mss_mmw_per4ft.oer4ft (.text:ti_sysbios_knl_Event_create)
                  00011d40    00000030     mss_mmw_per4ft.oer4ft (.text:ti_sysbios_knl_Semaphore_construct)
                  00011d70    0000002f     sysbios.aer4ft : BIOS.obj (.text:xdc_runtime_Text_printVisFxn__I)
                  00011d9f    00000001     --HOLE-- [fill = 0]
                  00011da0    0000002e                    : BIOS.obj (.text:ti_sysbios_knl_Event_pendTimeout__I)
                  00011dce    00000002     --HOLE-- [fill = 0]
                  00011dd0    0000002e                    : BIOS.obj (.text:ti_sysbios_knl_Semaphore_pendTimeout__I)
                  00011dfe    0000002e     mss_mmw_per4ft.oer4ft (.text:ti_sysbios_rts_MemAlloc_alloc)
                  00011e2c    0000002c     libgpio_xwr68xx.aer4f : gpio.oer4f (.text:GPIO_HighPriorityISR)
                  00011e58    0000002c                           : gpio.oer4f (.text:GPIO_LowPriorityISR)
                  00011e84    0000002c     libmmwave_xwr68xx.aer4f : mmwave_osal.oer4f (.text:MMWave_osalMutexCreate)
                  00011eb0    0000002c                             : mmwave_osal.oer4f (.text:MMWave_osalSemCreate)
                  00011edc    0000002c     libsoc_xwr68xx.aer4f : soc_xwr68xx_mss.oer4f (.text:SOC_waitBSSPowerUp)
                  00011f08    0000002c     utils.oer4f (.text:compute_innerprod)
                  00011f34    0000002c     utils.oer4f (.text:relu_activation)
                  00011f60    0000002c     libmmwavelink_xwr68xx.aer4f : rl_device.oer4f (.text:rlDeviceGetMssVersion)
                  00011f8c    0000002c                                 : rl_sensor.oer4f (.text:rlSensorStop)
                  00011fb8    0000002c     rtsv7R4_T_le_v3D16_eabi.lib : e_sqrt.obj (.text)
                  00011fe4    0000002c                                 : unlink.obj (.text)
                  00012010    0000002c     mss_mmw_per4ft.oer4ft (.text:ti_sysbios_knl_Clock_doTick__I)
                  0001203c    0000002c     mss_mmw_per4ft.oer4ft (.text:ti_sysbios_knl_Queue_construct)
                  00012068    00000008     --HOLE-- [fill = 0]
                  00012070    0000002c     sysbios.aer4ft : BIOS.obj (.text:ti_sysbios_knl_Swi_Module_startup__E)
                  0001209c    00000004     --HOLE-- [fill = 0]
                  000120a0    0000002c                    : BIOS.obj (.text:ti_sysbios_timers_rti_Timer_periodicStub__E)
                  000120cc    0000002a     libsoc_xwr68xx.aer4f : soc.oer4f (.text:SOC_SystemISR)
                  000120f6    0000002a     libmmwavelink_xwr68xx.aer4f : rl_device.oer4f (.text:rlDeviceGetMmWaveLinkVersion)
                  00012120    0000002a     rtsv7R4_T_le_v3D16_eabi.lib : strspn.obj (.text)
                  0001214a    00000002     --HOLE-- [fill = 0]
                  0001214c    00000028     libmailbox_xwr68xx.aer4f : mailbox.oer4f (.text:Mailbox_Config_init)
                  00012174    00000028     libuart_xwr68xx.aer4f : uartsci_dma.oer4f (.text:UartSci_RxDMACallbackFxn)
                  0001219c    00000028                           : uartsci_dma.oer4f (.text:UartSci_TxDMACallbackFxn)
                  000121c4    00000028     mss_cli.oer4f (.text:log2Approx)
                  000121ec    00000028     libmmwavelink_xwr68xx.aer4f : rl_driver.oer4f (.text:rlDriverConstructInMsg)
                  00012214    00000028     rtsv7R4_T_le_v3D16_eabi.lib : lseek.obj (.text)
                  0001223c    00000028                                 : write.obj (.text)
                  00012264    0000000c     --HOLE-- [fill = 0]
                  00012270    00000028     sysbios.aer4ft : BIOS.obj (.text:ti_sysbios_knl_Idle_run__E)
                  00012298    00000008     --HOLE-- [fill = 0]
                  000122a0    00000028                    : BIOS.obj (.text:xdc_runtime_SysStd_abort__E)
                  000122c8    00000008     --HOLE-- [fill = 0]
                  000122d0    00000028                    : BIOS.obj (.text:xdc_runtime_System_aprintf_va__F)
                  000122f8    00000026     libmmwavelink_xwr68xx.aer4f : rl_sensor.oer4f (.text:rlRfInitCalibConfig)
                  0001231e    00000026                                 : rl_sensor.oer4f (.text:rlRfRunTimeCalibConfig)
                  00012344    00000026                                 : rl_sensor.oer4f (.text:rlRfSetDeviceCfg)
                  0001236a    00000026                                 : rl_sensor.oer4f (.text:rlSetAdcOutConfig)
                  00012390    00000026                                 : rl_sensor.oer4f (.text:rlSetBpmCommonConfig)
                  000123b6    00000026                                 : rl_sensor.oer4f (.text:rlSetChannelConfig)
                  000123dc    00000026                                 : rl_sensor.oer4f (.text:rlSetContModeConfig)
                  00012402    00000026     rtsv7R4_T_le_v3D16_eabi.lib : memcmp.obj (.text)
                  00012428    00000008     --HOLE-- [fill = 0]
                  00012430    00000026     sysbios.aer4ft : BIOS.obj (.text:xdc_runtime_System_printf_va__F)
                  00012456    00000024     libcrc_xwr68xx.aer4f : crc.oer4f (.text:CRC_isTransactionIdValid)
                  0001247a    00000002     --HOLE-- [fill = 0]
                  0001247c    00000024     libgpio_xwr68xx.aer4f : gpio.oer4f (.text:GPIO_processInterrupt)
                  000124a0    00000024     mss_main.oer4f (.text:MmwDemo_notifySensorStart)
                  000124c4    00000024     libsoc_xwr68xx.aer4f : soc_xwr68xx.oer4f (.text:SOC_isMMWaveDSSOperational)
                  000124e8    00000024                          : soc_xwr68xx.oer4f (.text:SOC_isMMWaveMSSOperational)
                  0001250c    00000024     libmmwavelink_xwr68xx.aer4f : rl_device.oer4f (.text:rlDeviceSetHsiClk)
                  00012530    00000024                                 : rl_sensor.oer4f (.text:rlEnableContMode)
                  00012554    00000024                                 : rl_sensor.oer4f (.text:rlRfSetCalMonTimeUnitConfig)
                  00012578    00000024                                 : rl_sensor.oer4f (.text:rlSetLowPowerModeConfig)
                  0001259c    00000024     mss_mmw_per4ft.oer4ft (.text:ti_sysbios_BIOS_errorRaiseHook__I)
                  000125c0    00000024     mss_mmw_per4ft.oer4ft (.text:ti_sysbios_BIOS_registerRTSLock__I)
                  000125e4    00000024     mss_mmw_per4ft.oer4ft (.text:ti_sysbios_BIOS_removeRTSLock__I)
                  00012608    00000024     mss_mmw_per4ft.oer4ft (.text:ti_sysbios_gates_GateMutex_Object__delete__S)
                  0001262c    00000004     --HOLE-- [fill = 0]
                  00012630    00000024     sysbios.aer4ft : BIOS.obj (.text:ti_sysbios_knl_Clock_Module_startup__E)
                  00012654    00000024     mss_mmw_per4ft.oer4ft (.text:ti_sysbios_knl_Semaphore_Object__delete__S)
                  00012678    00000008     --HOLE-- [fill = 0]
                  00012680    00000024     sysbios.aer4ft : BIOS.obj (.text:ti_sysbios_knl_Task_restoreHwi__E)
                  000126a4    00000022     mss_cli.oer4f (.text:MmwDemo_CLISensorStart)
                  000126c6    00000022     libuart_xwr68xx.aer4f : uartsci.oer4f (.text:UartSci_disableRxDMA)
                  000126e8    00000022                           : uartsci.oer4f (.text:UartSci_enableRxDMA)
                  0001270a    00000022     rtsv7R4_T_le_v3D16_eabi.lib : strcspn.obj (.text)
                  0001272c    00000020     libesm_xwr68xx.aer4f : esm.oer4f (.text:ESM_lowpriority_IRQ)
                  0001274c    00000020     libmmwave_xwr68xx.aer4f : mmwave_listlib.oer4f (.text:MMWave_listCat)
                  0001276c    00000020     mss_main.oer4f (.text:MmwDemo_mboxWrite)
                  0001278c    00000020     libpinmux_xwr68xx.aer4f : pinmux.oer4f (.text:Pinmux_Unlock)
                  000127ac    00000020     libmmwavelink_xwr68xx.aer4f : rl_sensor.oer4f (.text:rlRfInit)
                  000127cc    00000004     --HOLE-- [fill = 0]
                  000127d0    00000020     sysbios.aer4ft : BIOS.obj (.text:ti_sysbios_family_arm_v7a_Pmu_Module_startup__E)
                  000127f0    00000020     mss_mmw_per4ft.oer4ft (.text:ti_sysbios_family_arm_v7r_vim_Hwi_Object__delete__S)
                  00012810    00000020     sysbios.aer4ft : BIOS.obj (.text:ti_sysbios_family_arm_v7r_vim_Hwi_disableInterrupt__E)
                  00012830    00000020                    : BIOS.obj (.text:ti_sysbios_family_arm_v7r_vim_Hwi_enableInterrupt__E)
                  00012850    00000020     mss_mmw_per4ft.oer4ft (.text:ti_sysbios_gates_GateHwi_Object__delete__S)
                  00012870    00000020     mss_mmw_per4ft.oer4ft (.text:ti_sysbios_heaps_HeapMem_Object__delete__S)
                  00012890    00000020     mss_mmw_per4ft.oer4ft (.text:ti_sysbios_knl_Semaphore_destruct)
                  000128b0    0000001e     libmmwave_xwr68xx.aer4f : mmwave_fullcfg.oer4f (.text:MMWave_internalDelChirp)
                  000128ce    0000001e     libsoc_xwr68xx.aer4f : soc_xwr68xx_mss.oer4f (.text:SOC_getOutAddr_LUTType)
                  000128ec    0000001c     libcrc_xwr68xx.aer4f : crc.oer4f (.text:CRC_releaseTransactionId)
                  00012908    0000001c     libdma_xwr68xx.aer4f : dma.oer4f (.text:CSL_FEXTR)
                  00012924    0000001c     libmmwave_xwr68xx.aer4f : mmwave.oer4f (.text:CSL_FEXTR)
                  00012940    0000001c     libsoc_xwr68xx.aer4f : soc.oer4f (.text:CSL_FEXTR)
                  0001295c    0000001c                          : soc_xwr68xx.oer4f (.text:CSL_FEXTR)
                  00012978    0000001c                          : soc_xwr68xx_mss.oer4f (.text:CSL_FEXTR)
                  00012994    0000001c     libuart_xwr68xx.aer4f : uartsci.oer4f (.text:CSL_FEXTR)
                  000129b0    0000001c     libmmwave_xwr68xx.aer4f : mmwave_listlib.oer4f (.text:MMWave_listRemove)
                  000129cc    0000001c     mss_main.oer4f (.text:MmwDemo_mssMmwaveStartCallbackFxn)
                  000129e8    0000001c     mss_main.oer4f (.text:MmwDemo_notifySensorStop)
                  00012a04    0000001c     libsoc_xwr68xx.aer4f : soc_xwr68xx_mss.oer4f (.text:SOC_getInAddr_LUTType)
                  00012a20    0000001c     sysbios.aer4ft : arm_TaskSupport_asm.obj (.text:_ti_sysbios_family_arm_TaskSupport_glue)
                  00012a3c    0000001c                    : arm_TaskSupport_asm.obj (.text:_ti_sysbios_family_arm_TaskSupport_swap__E)
                  00012a58    0000001c     rtsv7R4_T_le_v3D16_eabi.lib : memccpy.obj (.text)
                  00012a74    0000001c     mss_mmw_per4ft.oer4ft (.text:ti_sysbios_BIOS_rtsLock__I)
                  00012a90    0000001c     sysbios.aer4ft : BIOS.obj (.text:ti_sysbios_family_arm_v7r_vim_Hwi_clearInterrupt__E)
                  00012aac    00000004     --HOLE-- [fill = 0]
                  00012ab0    0000001c                    : BIOS.obj (.text:ti_sysbios_gates_GateMutex_Instance_init__E)
                  00012acc    00000004     --HOLE-- [fill = 0]
                  00012ad0    0000001c                    : BIOS.obj (.text:ti_sysbios_gates_GateMutex_leave__E)
                  00012aec    0000001c     mss_mmw_per4ft.oer4ft (.text:ti_sysbios_knl_Queue_destruct)
                  00012b08    0000001a     libmmwave_xwr68xx.aer4f : mmwave_dualcore.oer4f (.text:MMWave_deviceSyncFxn)
                  00012b22    0000001a                             : mmwave.oer4f (.text:MMWave_encodeError)
                  00012b3c    0000001a                             : mmwave_listlib.oer4f (.text:MMWave_listAdd)
                  00012b56    0000001a     mss_mmw_per4ft.oer4ft (.text:free)
                  00012b70    0000001a     libmmwavelink_xwr68xx.aer4f : rl_sensor.oer4f (.text:rlGetRfDieId)
                  00012b8a    0000001a     rtsv7R4_T_le_v3D16_eabi.lib : s_copysign.obj (.text)
                  00012ba4    0000001a     mss_mmw_per4ft.oer4ft (.text:ti_sysbios_gates_GateHwi_Handle__label__S)
                  00012bbe    0000001a     mss_mmw_per4ft.oer4ft (.text:ti_sysbios_gates_GateMutex_Handle__label__S)
                  00012bd8    0000001a     mss_mmw_per4ft.oer4ft (.text:ti_sysbios_heaps_HeapMem_Handle__label__S)
                  00012bf2    0000001a     mss_mmw_per4ft.oer4ft (.text:xdc_runtime_System_aprintf__E)
                  00012c0c    0000001a     mss_mmw_per4ft.oer4ft (.text:xdc_runtime_System_printf__E)
                  00012c26    00000002     --HOLE-- [fill = 0]
                  00012c28    00000018     cli_mmwave.oer4f (.text:CLI_getMMWaveExtensionOpenConfig)
                  00012c40    00000018     libmmwave_xwr68xx.aer4f : mmwave_osal.oer4f (.text:MMWave_osalMutexLock)
                  00012c58    00000018                             : mmwave_osal.oer4f (.text:MMWave_osalSemWait)
                  00012c70    00000018     libmailbox_xwr68xx.aer4f : mailbox.oer4f (.text:Mailbox_boxEmptyISRBss)
                  00012c88    00000018                              : mailbox.oer4f (.text:Mailbox_boxEmptyISRMssDss)
                  00012ca0    00000018                              : mailbox.oer4f (.text:Mailbox_boxFullISRBss)
                  00012cb8    00000018     libmmwavelink_xwr68xx.aer4f : rl_device.oer4f (.text:rlDeviceGetRfVersion)
                  00012cd0    00000018                                 : rl_driver.oer4f (.text:rlDriverCalCRC)
                  00012ce8    00000018                                 : rl_driver.oer4f (.text:rlDriverFillPayload)
                  00012d00    00000018                                 : rl_driver.oer4f (.text:rlDriverIsDeviceMapValid)
                  00012d18    00000018     rtsv7R4_T_le_v3D16_eabi.lib : args_main.obj (.text)
                  00012d30    00000018                                 : strcmp.obj (.text)
                  00012d48    00000018     mss_mmw_per4ft.oer4ft (.text:ti_sysbios_BIOS_rtsUnlock__I)
                  00012d60    00000018     sysbios.aer4ft : BIOS.obj (.text:ti_sysbios_family_arm_v7a_Pmu_initCounters__I)
                  00012d78    00000018     mss_mmw_per4ft.oer4ft (.text:ti_sysbios_family_arm_v7r_vim_Hwi_Module__startupDone__F)
                  00012d90    00000018     mss_mmw_per4ft.oer4ft (.text:ti_sysbios_family_arm_v7r_vim_Hwi_Params__init__S)
                  00012da8    00000018     mss_mmw_per4ft.oer4ft (.text:ti_sysbios_knl_Semaphore_Params__init__S)
                  00012dc0    00000018     mss_mmw_per4ft.oer4ft (.text:ti_sysbios_knl_Task_Params__init__S)
                  00012dd8    00000008     --HOLE-- [fill = 0]
                  00012de0    00000018     sysbios.aer4ft : BIOS.obj (.text:ti_sysbios_knl_Task_enter__I)
                  00012df8    00000018     mss_mmw_per4ft.oer4ft (.text:ti_sysbios_timers_rti_Timer_Module__startupDone__F)
                  00012e10    00000018     sysbios.aer4ft : BIOS.obj (.text:xdc_runtime_Error_init__E)
                  00012e28    00000016     rtsv7R4_T_le_v3D16_eabi.lib : strchr.obj (.text)
                  00012e3e    00000016                                 : strlen.obj (.text)
                  00012e54    00000016     mss_mmw_per4ft.oer4ft (.text:ti_sysbios_BIOS_exitFunc__I)
                  00012e6a    00000006     --HOLE-- [fill = 0]
                  00012e70    00000016     sysbios.aer4ft : BIOS.obj (.text:ti_sysbios_knl_Idle_loop__E)
                  00012e86    0000000a     --HOLE-- [fill = 0]
                  00012e90    00000016                    : BIOS.obj (.text:ti_sysbios_knl_Task_sleepTimeout__I)
                  00012ea6    00000014     libosal_xwr68xx.aer4f : HwiP_tirtos.oer4f (.text:HwiP_Params_init)
                  00012eba    00000014     libmmwave_xwr68xx.aer4f : mmwave_fullcfg.oer4f (.text:MMWave_internalDelBpmChirp)
                  00012ece    00000014                             : mmwave_fullcfg.oer4f (.text:MMWave_internalDelProfile)
                  00012ee2    00000014                             : mmwave_osal.oer4f (.text:MMWave_osalMutexDelete)
                  00012ef6    00000014                             : mmwave_osal.oer4f (.text:MMWave_osalSemDelete)
                  00012f0a    00000002     --HOLE-- [fill = 0]
                  00012f0c    00000014     mss_main.oer4f (.text:MmwDemo_mssMmwaveConfigCallbackFxn)
                  00012f20    00000014     mss_main.oer4f (.text:MmwDemo_mssMmwaveStopCallbackFxn)
                  00012f34    00000014     libpinmux_xwr68xx.aer4f : pinmux.oer4f (.text:Pinmux_Lock)
                  00012f48    00000014     libuart_xwr68xx.aer4f : uartsci.oer4f (.text:UartSci_disableTxDMA)
                  00012f5c    00000014                           : uartsci.oer4f (.text:UartSci_enableTxDMA)
                  00012f70    00000014     libosal_xwr68xx.aer4f : DebugP_tirtos.oer4f (.text:_DebugP_assert)
                  00012f84    00000014     libmmwavelink_xwr68xx.aer4f : rl_controller.oer4f (.text:rlAppendDummy)
                  00012f98    00000014     rtsv7R4_T_le_v3D16_eabi.lib : _lock.obj (.text)
                  00012fac    00000014                                 : strcpy.obj (.text)
                  00012fc0    00000014     mss_mmw_per4ft.oer4ft (.text:ti_sysbios_heaps_HeapMem_Object__get__S)
                  00012fd4    0000000c     --HOLE-- [fill = 0]
                  00012fe0    00000014     sysbios.aer4ft : BIOS.obj (.text:ti_sysbios_knl_Event_Instance_init__E)
                  00012ff4    00000014     mss_mmw_per4ft.oer4ft (.text:ti_sysbios_knl_Swi_Object__get__S)
                  00013008    00000012     libcrc_xwr68xx.aer4f : crc.oer4f (.text:CRC_initConfigParams)
                  0001301a    00000012     libmmwave_xwr68xx.aer4f : mmwave_dualcore.oer4f (.text:MMWave_deviceGetDeviceInfo)
                  0001302c    00000012     libosal_xwr68xx.aer4f : MemoryP_tirtos.oer4f (.text:MemoryP_ctrlAlloc)
                  0001303e    00000012                           : SemaphoreP_tirtos.oer4f (.text:SemaphoreP_pend)
                  00013050    00000012     sysbios.aer4ft : BIOS.obj (.text:ti_sysbios_hal_Hwi_Module_startup__E)
                  00013062    00000012     mss_mmw_per4ft.oer4ft (.text:xdc_runtime_Startup_exec__I)
                  00013074    00000010     libcrc_xwr68xx.aer4f : crc.oer4f (.text:CRC_getSignatureRegister)
                  00013084    00000010     mss_main.oer4f (.text:MmwDemo_switchPressFxn)
                  00013094    0000000c     --HOLE-- [fill = 0]
                  000130a0    00000010     sysbios.aer4ft : BIOS.obj (.text:ti_sysbios_BIOS_setThreadType__E)
                  000130b0    00000010                    : BIOS.obj (.text:ti_sysbios_BIOS_start__E)
                  000130c0    00000010                    : BIOS.obj (.text:ti_sysbios_family_arm_v7a_Pmu_disableInterruptI__E)
                  000130d0    00000010                    : BIOS.obj (.text:ti_sysbios_family_arm_v7a_Pmu_enableInterruptI__E)
                  000130e0    00000010                    : BIOS.obj (.text:ti_sysbios_family_arm_v7a_Pmu_getNumCounters__E)
                  000130f0    00000010                    : BIOS.obj (.text:ti_sysbios_family_arm_v7a_Pmu_startCounterI__E)
                  00013100    00000010                    : BIOS.obj (.text:ti_sysbios_family_arm_v7a_Pmu_stopCounterI__E)
                  00013110    00000010                    : BIOS.obj (.text:ti_sysbios_gates_GateMutex_Instance_finalize__E)
                  00013120    00000010     mss_mmw_per4ft.oer4ft (.text:ti_sysbios_heaps_HeapBuf_Object__get__S)
                  00013130    00000010     sysbios.aer4ft : BIOS.obj (.text:ti_sysbios_knl_Semaphore_Instance_finalize__E)
                  00013140    00000010                    : BIOS.obj (.text:ti_sysbios_knl_Swi_disable__E)
                  00013150    00000010     mss_mmw_per4ft.oer4ft (.text:ti_sysbios_knl_Task_Object__get__S)
                  00013160    00000010     sysbios.aer4ft : BIOS.obj (.text:ti_sysbios_knl_Task_disable__E)
                  00013170    00000010                    : BIOS.obj (.text:xdc_runtime_Memory_free__E)
                  00013180    00000010     mss_mmw_per4ft.oer4ft (.text:xdc_runtime_Text_visitRope__I)
                  00013190    0000000e     rtsv7R4_T_le_v3D16_eabi.lib : copy_decompress_none.obj (.text:decompress:none)
                  0001319e    00000002     --HOLE-- [fill = 0]
                  000131a0    0000000e     sysbios.aer4ft : BIOS.obj (.text:ti_sysbios_knl_Queue_empty__E)
                  000131ae    00000002     --HOLE-- [fill = 0]
                  000131b0    0000000c                    : BIOS.obj (.text:ti_sysbios_family_arm_TaskSupport_checkStack__E)
                  000131bc    00000004     --HOLE-- [fill = 0]
                  000131c0    0000000c                    : BIOS.obj (.text:ti_sysbios_family_arm_TaskSupport_getStackAlignment__E)
                  000131cc    00000004     --HOLE-- [fill = 0]
                  000131d0    0000000c                    : BIOS.obj (.text:ti_sysbios_family_arm_exc_Exception_Module_startup__E)
                  000131dc    00000004     --HOLE-- [fill = 0]
                  000131e0    0000000c                    : BIOS.obj (.text:ti_sysbios_family_arm_v7r_vim_Hwi_switchFromBootStack__E)
                  000131ec    00000004     --HOLE-- [fill = 0]
                  000131f0    0000000c                    : BIOS.obj (.text:xdc_runtime_Startup_rtsDone__E)
                  000131fc    00000004     --HOLE-- [fill = 0]
                  00013200    0000000c                    : BIOS.obj (.text:xdc_runtime_SysStd_exit__E)
                  0001320c    00000004     --HOLE-- [fill = 0]
                  00013210    00000008                    : BIOS.obj (.text:ti_sysbios_gates_GateHwi_enter__E)
                  00013218    00000008     --HOLE-- [fill = 0]
                  00013220    00000006                    : BIOS.obj (.text:ti_sysbios_family_arm_v7r_vim_Hwi_startup__E)
                  00013226    0000000a     --HOLE-- [fill = 0]
                  00013230    00000006                    : BIOS.obj (.text:ti_sysbios_gates_GateHwi_leave__E)
                  00013236    0000000a     --HOLE-- [fill = 0]
                  00013240    00000006                    : BIOS.obj (.text:ti_sysbios_heaps_HeapMem_isBlocking__E)
                  00013246    0000000a     --HOLE-- [fill = 0]
                  00013250    00000006                    : BIOS.obj (.text:ti_sysbios_knl_Queue_Instance_init__E)
                  00013256    0000000a     --HOLE-- [fill = 0]
                  00013260    00000006                    : BIOS.obj (.text:xdc_runtime_System_Module_startup__E)
                  00013266    0000000a     --HOLE-- [fill = 0]
                  00013270    00000004                    : BIOS.obj (.text:ti_sysbios_gates_GateHwi_query__E)
                  00013274    0000000c     --HOLE-- [fill = 0]
                  00013280    00000004                    : BIOS.obj (.text:ti_sysbios_gates_GateMutex_query__E)
                  00013284    0000000c     --HOLE-- [fill = 0]
                  00013290    00000004                    : BIOS.obj (.text:ti_sysbios_knl_Task_startup__E)
                  00013294    0000000c     --HOLE-- [fill = 0]
                  000132a0    00000004                    : BIOS.obj (.text:ti_sysbios_timers_rti_Timer_getMaxTicks__E)
                  000132a4    0000000c     --HOLE-- [fill = 0]
                  000132b0    00000004                    : BIOS.obj (.text:xdc_runtime_SysStd_putch__E)
                  000132b4    0000000c     --HOLE-- [fill = 0]
                  000132c0    00000004                    : BIOS.obj (.text:xdc_runtime_SysStd_ready__E)
                  000132c4    0000000c     --HOLE-- [fill = 0]
                  000132d0    00000002                    : BIOS.obj (.text:ti_sysbios_BIOS_linkedWithIncorrectBootLibrary__E)
                  000132d2    0000000e     --HOLE-- [fill = 0]
                  000132e0    00000002                    : BIOS.obj (.text:ti_sysbios_gates_GateHwi_Instance_init__E)

.const     0    000132e8    00002e76     
                  000132e8    00001b6f     mss_mmw_per4ft.oer4ft (.const:xdc_runtime_Text_charTab__A)
                  00014e57    00000001     --HOLE-- [fill = 0]
                  00014e58    0000034e     cli.oer4f (.const:.string)
                  000151a6    00000002     mss_mmw_per4ft.oer4ft (.const:ti_sysbios_family_arm_exc_Exception_Module__id__C)
                  000151a8    000002b8     libmmwavelink_xwr68xx.aer4f : rl_sensor.oer4f (.const:$O1$$)
                  00015460    000001de     mss_cli.oer4f (.const:.string)
                  0001563e    00000101     rtsv7R4_T_le_v3D16_eabi.lib : ctype.obj (.const:.string:_ctypes_)
                  0001573f    00000001     --HOLE-- [fill = 0]
                  00015740    000000d8     mss_mmw_per4ft.oer4ft (.const:xdc_runtime_Text_nodeTab__A)
                  00015818    000000a0     cli_mmwave.oer4f (.const:.string)
                  000158b8    00000098     rtsv7R4_T_le_v3D16_eabi.lib : strtod.obj (.const:$O1$$)
                  00015950    00000080     mss_mmw_per4ft.oer4ft (.const:ti_sysbios_family_arm_v7r_vim_Hwi_channelMap__A)
                  000159d0    00000078     libmmwavelink_xwr68xx.aer4f : rl_driver.oer4f (.const:$O2$$)
                  00015a48    00000058     mss_mmw_per4ft.oer4ft (.const:.string)
                  00015aa0    00000044     mss_mmw_per4ft.oer4ft (.const:ti_sysbios_knl_Task_Object__PARAMS__C)
                  00015ae4    0000003c     libuart_xwr68xx.aer4f : UART.oer4f (.const:UART_defaultParams)
                  00015b20    00000030     rtsv7R4_T_le_v3D16_eabi.lib : e_exp.obj (.const:$O1$$)
                  00015b50    00000030     mss_mmw_per4ft.oer4ft (.const:ti_sysbios_family_arm_v7r_vim_Hwi_Object__PARAMS__C)
                  00015b80    0000002c     mss_mmw_per4ft.oer4ft (.const:xdc_runtime_Startup_sfxnTab__A)
                  00015bac    00000028     mss_mmw_per4ft.oer4ft (.const:ti_sysbios_heaps_HeapMem_Module__FXNS__C)
                  00015bd4    00000024     libmailbox_xwr68xx.aer4f : mailbox.oer4f (.const:Mailbox_defaultCfg)
                  00015bf8    00000024     mss_mmw_per4ft.oer4ft (.const:ti_sysbios_gates_GateHwi_Module__FXNS__C)
                  00015c1c    00000024     mss_mmw_per4ft.oer4ft (.const:ti_sysbios_gates_GateMutex_Module__FXNS__C)
                  00015c40    00000024     mss_mmw_per4ft.oer4ft (.const:ti_sysbios_heaps_HeapMem_Object__PARAMS__C)
                  00015c64    00000024     mss_mmw_per4ft.oer4ft (.const:ti_sysbios_knl_Semaphore_Object__PARAMS__C)
                  00015c88    00000020     cli_mmwave.oer4f (.const:$P$T0$1)
                  00015ca8    00000020     mss_mmw_per4ft.oer4ft (.const:ti_sysbios_family_arm_v7r_vim_Hwi_Object__DESC__C)
                  00015cc8    00000020     mss_mmw_per4ft.oer4ft (.const:ti_sysbios_gates_GateHwi_Object__DESC__C)
                  00015ce8    00000020     mss_mmw_per4ft.oer4ft (.const:ti_sysbios_gates_GateMutex_Object__DESC__C)
                  00015d08    00000020     mss_mmw_per4ft.oer4ft (.const:ti_sysbios_heaps_HeapMem_Object__DESC__C)
                  00015d28    00000020     mss_mmw_per4ft.oer4ft (.const:ti_sysbios_knl_Event_Object__DESC__C)
                  00015d48    00000020     mss_mmw_per4ft.oer4ft (.const:ti_sysbios_knl_Queue_Object__DESC__C)
                  00015d68    00000020     mss_mmw_per4ft.oer4ft (.const:ti_sysbios_knl_Semaphore_Object__DESC__C)
                  00015d88    00000020     mss_mmw_per4ft.oer4ft (.const:ti_sysbios_knl_Task_Object__DESC__C)
                  00015da8    0000001c     mss_main.oer4f (.const:$P$T0$1)
                  00015dc4    00000018     mss_mmw_per4ft.oer4ft (.const:ti_sysbios_gates_GateHwi_Object__PARAMS__C)
                  00015ddc    00000018     mss_mmw_per4ft.oer4ft (.const:ti_sysbios_gates_GateMutex_Object__PARAMS__C)
                  00015df4    00000018     mss_mmw_per4ft.oer4ft (.const:ti_sysbios_knl_Event_Object__PARAMS__C)
                  00015e0c    00000018     mss_mmw_per4ft.oer4ft (.const:ti_sysbios_knl_Queue_Object__PARAMS__C)
                  00015e24    00000016     mss_mmw_per4ft.oer4ft (.const:xdc_runtime_Startup_sfxnRts__A)
                  00015e3a    00000002     mss_mmw_per4ft.oer4ft (.const:ti_sysbios_family_arm_v7a_Pmu_Module__id__C)
                  00015e3c    00000010     mss_mmw_per4ft.oer4ft (.const:ti_sysbios_family_arm_v7r_vim_Hwi_intReqEnaSet__A)
                  00015e4c    00000010     mss_mmw_per4ft.oer4ft (.const:ti_sysbios_family_arm_v7r_vim_Hwi_wakeEnaSet__A)
                  00015e5c    00000008     mss_mmw_per4ft.oer4ft (.const:ti_sysbios_knl_Idle_funcList__A)
                  00015e64    00000008     mss_mmw_per4ft.oer4ft (.const:ti_sysbios_knl_Idle_funcList__C)
                  00015e6c    00000008     mss_mmw_per4ft.oer4ft (.const:xdc_runtime_Startup_firstFxns__A)
                  00015e74    00000008     mss_mmw_per4ft.oer4ft (.const:xdc_runtime_Startup_firstFxns__C)
                  00015e7c    00000008     mss_mmw_per4ft.oer4ft (.const:xdc_runtime_Startup_lastFxns__C)
                  00015e84    00000004     cli.oer4f (.const:.string:$P$T0$1)
                  00015e88    00000004     mss_mmw_per4ft.oer4ft (.const:ti_sysbios_family_arm_TaskSupport_stackAlignment__C)
                  00015e8c    00000004     mss_mmw_per4ft.oer4ft (.const:ti_sysbios_family_arm_exc_Exception_E_dataAbort__C)
                  00015e90    00000004     mss_mmw_per4ft.oer4ft (.const:ti_sysbios_family_arm_exc_Exception_E_prefetchAbort__C)
                  00015e94    00000004     mss_mmw_per4ft.oer4ft (.const:ti_sysbios_family_arm_exc_Exception_E_swi__C)
                  00015e98    00000004     mss_mmw_per4ft.oer4ft (.const:ti_sysbios_family_arm_exc_Exception_E_undefinedInstruction__C)
                  00015e9c    00000004     mss_mmw_per4ft.oer4ft (.const:ti_sysbios_family_arm_exc_Exception_excHookFuncs__A)
                  00015ea0    00000004     mss_mmw_per4ft.oer4ft (.const:ti_sysbios_family_arm_exc_Exception_excHookFuncs__C)
                  00015ea4    00000004     mss_mmw_per4ft.oer4ft (.const:ti_sysbios_family_arm_v7a_Pmu_A_invalidCounterId__C)
                  00015ea8    00000004     mss_mmw_per4ft.oer4ft (.const:ti_sysbios_family_arm_v7a_Pmu_Module__diagsEnabled__C)
                  00015eac    00000004     mss_mmw_per4ft.oer4ft (.const:ti_sysbios_family_arm_v7a_Pmu_Module__diagsIncluded__C)
                  00015eb0    00000004     mss_mmw_per4ft.oer4ft (.const:ti_sysbios_family_arm_v7a_Pmu_Module__diagsMask__C)
                  00015eb4    00000004     mss_mmw_per4ft.oer4ft (.const:ti_sysbios_family_arm_v7r_tms570_Core_E_mismatchedIds__C)
                  00015eb8    00000004     mss_mmw_per4ft.oer4ft (.const:ti_sysbios_family_arm_v7r_tms570_Core_id__C)
                  00015ebc    00000004     mss_mmw_per4ft.oer4ft (.const:ti_sysbios_family_arm_v7r_vim_Hwi_A_badChannelId__C)
                  00015ec0    00000004     mss_mmw_per4ft.oer4ft (.const:ti_sysbios_family_arm_v7r_vim_Hwi_E_alreadyDefined__C)
                  00015ec4    00000004     mss_mmw_per4ft.oer4ft (.const:ti_sysbios_family_arm_v7r_vim_Hwi_E_badIntNum__C)
                  00015ec8    00000004     mss_mmw_per4ft.oer4ft (.const:ti_sysbios_family_arm_v7r_vim_Hwi_E_phantomInterrupt__C)
                  00015ecc    00000004     mss_mmw_per4ft.oer4ft (.const:ti_sysbios_family_arm_v7r_vim_Hwi_E_undefined__C)
                  00015ed0    00000004     mss_mmw_per4ft.oer4ft (.const:ti_sysbios_family_arm_v7r_vim_Hwi_E_unsupportedMaskingOption__C)
                  00015ed4    00000004     mss_mmw_per4ft.oer4ft (.const:ti_sysbios_family_arm_v7r_vim_Hwi_LD_end__C)
                  00015ed8    00000004     mss_mmw_per4ft.oer4ft (.const:ti_sysbios_family_arm_v7r_vim_Hwi_LM_begin__C)
                  00015edc    00000004     mss_mmw_per4ft.oer4ft (.const:ti_sysbios_family_arm_v7r_vim_Hwi_Module__diagsEnabled__C)
                  00015ee0    00000004     mss_mmw_per4ft.oer4ft (.const:ti_sysbios_family_arm_v7r_vim_Hwi_Module__diagsIncluded__C)
                  00015ee4    00000004     mss_mmw_per4ft.oer4ft (.const:ti_sysbios_family_arm_v7r_vim_Hwi_Module__diagsMask__C)
                  00015ee8    00000004     mss_mmw_per4ft.oer4ft (.const:ti_sysbios_family_arm_v7r_vim_Hwi_Module__loggerFxn1__C)
                  00015eec    00000004     mss_mmw_per4ft.oer4ft (.const:ti_sysbios_family_arm_v7r_vim_Hwi_Module__loggerFxn8__C)
                  00015ef0    00000004     mss_mmw_per4ft.oer4ft (.const:ti_sysbios_family_arm_v7r_vim_Hwi_Module__loggerObj__C)
                  00015ef4    00000004     mss_mmw_per4ft.oer4ft (.const:ti_sysbios_family_arm_v7r_vim_Hwi_NUM_INTERRUPTS__C)
                  00015ef8    00000004     mss_mmw_per4ft.oer4ft (.const:ti_sysbios_family_arm_v7r_vim_Hwi_channelMap__C)
                  00015efc    00000004     mss_mmw_per4ft.oer4ft (.const:ti_sysbios_family_arm_v7r_vim_Hwi_intReqEnaSet__C)
                  00015f00    00000004     mss_mmw_per4ft.oer4ft (.const:ti_sysbios_family_arm_v7r_vim_Hwi_phantomFunc__C)
                  00015f04    00000004     mss_mmw_per4ft.oer4ft (.const:ti_sysbios_family_arm_v7r_vim_Hwi_swiDisable__C)
                  00015f08    00000004     mss_mmw_per4ft.oer4ft (.const:ti_sysbios_family_arm_v7r_vim_Hwi_swiRestoreHwi__C)
                  00015f0c    00000004     mss_mmw_per4ft.oer4ft (.const:ti_sysbios_family_arm_v7r_vim_Hwi_taskDisable__C)
                  00015f10    00000004     mss_mmw_per4ft.oer4ft (.const:ti_sysbios_family_arm_v7r_vim_Hwi_taskRestoreHwi__C)
                  00015f14    00000004     mss_mmw_per4ft.oer4ft (.const:ti_sysbios_family_arm_v7r_vim_Hwi_wakeEnaSet__C)
                  00015f18    00000004     mss_mmw_per4ft.oer4ft (.const:ti_sysbios_gates_GateMutex_A_badContext__C)
                  00015f1c    00000004     mss_mmw_per4ft.oer4ft (.const:ti_sysbios_gates_GateMutex_Instance_State_sem__O)
                  00015f20    00000004     mss_mmw_per4ft.oer4ft (.const:ti_sysbios_gates_GateMutex_Module__diagsEnabled__C)
                  00015f24    00000004     mss_mmw_per4ft.oer4ft (.const:ti_sysbios_gates_GateMutex_Module__diagsIncluded__C)
                  00015f28    00000004     mss_mmw_per4ft.oer4ft (.const:ti_sysbios_gates_GateMutex_Module__diagsMask__C)
                  00015f2c    00000004     mss_mmw_per4ft.oer4ft (.const:ti_sysbios_hal_Hwi_E_stackOverflow__C)
                  00015f30    00000004     mss_mmw_per4ft.oer4ft (.const:ti_sysbios_heaps_HeapBuf_Instance_State_freeList__O)
                  00015f34    00000004     mss_mmw_per4ft.oer4ft (.const:ti_sysbios_heaps_HeapBuf_Object__count__C)
                  00015f38    00000004     mss_mmw_per4ft.oer4ft (.const:ti_sysbios_heaps_HeapBuf_numConstructedHeaps__C)
                  00015f3c    00000004     mss_mmw_per4ft.oer4ft (.const:ti_sysbios_heaps_HeapMem_A_align__C)
                  00015f40    00000004     mss_mmw_per4ft.oer4ft (.const:ti_sysbios_heaps_HeapMem_A_heapSize__C)
                  00015f44    00000004     mss_mmw_per4ft.oer4ft (.const:ti_sysbios_heaps_HeapMem_A_invalidFree__C)
                  00015f48    00000004     mss_mmw_per4ft.oer4ft (.const:ti_sysbios_heaps_HeapMem_A_zeroBlock__C)
                  00015f4c    00000004     mss_mmw_per4ft.oer4ft (.const:ti_sysbios_heaps_HeapMem_E_memory__C)
                  00015f50    00000004     mss_mmw_per4ft.oer4ft (.const:ti_sysbios_heaps_HeapMem_Module__diagsEnabled__C)
                  00015f54    00000004     mss_mmw_per4ft.oer4ft (.const:ti_sysbios_heaps_HeapMem_Module__diagsIncluded__C)
                  00015f58    00000004     mss_mmw_per4ft.oer4ft (.const:ti_sysbios_heaps_HeapMem_Module__diagsMask__C)
                  00015f5c    00000004     mss_mmw_per4ft.oer4ft (.const:ti_sysbios_heaps_HeapMem_Module__gateObj__C)
                  00015f60    00000004     mss_mmw_per4ft.oer4ft (.const:ti_sysbios_heaps_HeapMem_Object__count__C)
                  00015f64    00000004     mss_mmw_per4ft.oer4ft (.const:ti_sysbios_heaps_HeapMem_reqAlign__C)
                  00015f68    00000004     mss_mmw_per4ft.oer4ft (.const:ti_sysbios_knl_Clock_LM_begin__C)
                  00015f6c    00000004     mss_mmw_per4ft.oer4ft (.const:ti_sysbios_knl_Clock_LM_tick__C)
                  00015f70    00000004     mss_mmw_per4ft.oer4ft (.const:ti_sysbios_knl_Clock_LW_delayed__C)
                  00015f74    00000004     mss_mmw_per4ft.oer4ft (.const:ti_sysbios_knl_Clock_Module_State_clockQ__O)
                  00015f78    00000004     mss_mmw_per4ft.oer4ft (.const:ti_sysbios_knl_Clock_Module__diagsEnabled__C)
                  00015f7c    00000004     mss_mmw_per4ft.oer4ft (.const:ti_sysbios_knl_Clock_Module__diagsIncluded__C)
                  00015f80    00000004     mss_mmw_per4ft.oer4ft (.const:ti_sysbios_knl_Clock_Module__diagsMask__C)
                  00015f84    00000004     mss_mmw_per4ft.oer4ft (.const:ti_sysbios_knl_Clock_Module__loggerFxn1__C)
                  00015f88    00000004     mss_mmw_per4ft.oer4ft (.const:ti_sysbios_knl_Clock_Module__loggerFxn2__C)
                  00015f8c    00000004     mss_mmw_per4ft.oer4ft (.const:ti_sysbios_knl_Clock_Module__loggerObj__C)
                  00015f90    00000004     mss_mmw_per4ft.oer4ft (.const:ti_sysbios_knl_Event_A_badContext__C)
                  00015f94    00000004     mss_mmw_per4ft.oer4ft (.const:ti_sysbios_knl_Event_A_eventInUse__C)
                  00015f98    00000004     mss_mmw_per4ft.oer4ft (.const:ti_sysbios_knl_Event_A_nullEventId__C)
                  00015f9c    00000004     mss_mmw_per4ft.oer4ft (.const:ti_sysbios_knl_Event_A_nullEventMasks__C)
                  00015fa0    00000004     mss_mmw_per4ft.oer4ft (.const:ti_sysbios_knl_Event_A_pendTaskDisabled__C)
                  00015fa4    00000004     mss_mmw_per4ft.oer4ft (.const:ti_sysbios_knl_Event_Instance_State_pendQ__O)
                  00015fa8    00000004     mss_mmw_per4ft.oer4ft (.const:ti_sysbios_knl_Event_LM_pend__C)
                  00015fac    00000004     mss_mmw_per4ft.oer4ft (.const:ti_sysbios_knl_Event_LM_post__C)
                  00015fb0    00000004     mss_mmw_per4ft.oer4ft (.const:ti_sysbios_knl_Event_Module__diagsEnabled__C)
                  00015fb4    00000004     mss_mmw_per4ft.oer4ft (.const:ti_sysbios_knl_Event_Module__diagsIncluded__C)
                  00015fb8    00000004     mss_mmw_per4ft.oer4ft (.const:ti_sysbios_knl_Event_Module__diagsMask__C)
                  00015fbc    00000004     mss_mmw_per4ft.oer4ft (.const:ti_sysbios_knl_Event_Module__loggerFxn4__C)
                  00015fc0    00000004     mss_mmw_per4ft.oer4ft (.const:ti_sysbios_knl_Event_Module__loggerFxn8__C)
                  00015fc4    00000004     mss_mmw_per4ft.oer4ft (.const:ti_sysbios_knl_Event_Module__loggerObj__C)
                  00015fc8    00000004     mss_mmw_per4ft.oer4ft (.const:ti_sysbios_knl_Semaphore_A_badContext__C)
                  00015fcc    00000004     mss_mmw_per4ft.oer4ft (.const:ti_sysbios_knl_Semaphore_A_noEvents__C)
                  00015fd0    00000004     mss_mmw_per4ft.oer4ft (.const:ti_sysbios_knl_Semaphore_A_overflow__C)
                  00015fd4    00000004     mss_mmw_per4ft.oer4ft (.const:ti_sysbios_knl_Semaphore_A_pendTaskDisabled__C)
                  00015fd8    00000004     mss_mmw_per4ft.oer4ft (.const:ti_sysbios_knl_Semaphore_Instance_State_pendQ__O)
                  00015fdc    00000004     mss_mmw_per4ft.oer4ft (.const:ti_sysbios_knl_Semaphore_LM_pend__C)
                  00015fe0    00000004     mss_mmw_per4ft.oer4ft (.const:ti_sysbios_knl_Semaphore_LM_post__C)
                  00015fe4    00000004     mss_mmw_per4ft.oer4ft (.const:ti_sysbios_knl_Semaphore_Module__diagsEnabled__C)
                  00015fe8    00000004     mss_mmw_per4ft.oer4ft (.const:ti_sysbios_knl_Semaphore_Module__diagsIncluded__C)
                  00015fec    00000004     mss_mmw_per4ft.oer4ft (.const:ti_sysbios_knl_Semaphore_Module__diagsMask__C)
                  00015ff0    00000004     mss_mmw_per4ft.oer4ft (.const:ti_sysbios_knl_Semaphore_Module__loggerFxn2__C)
                  00015ff4    00000004     mss_mmw_per4ft.oer4ft (.const:ti_sysbios_knl_Semaphore_Module__loggerFxn4__C)
                  00015ff8    00000004     mss_mmw_per4ft.oer4ft (.const:ti_sysbios_knl_Semaphore_Module__loggerObj__C)
                  00015ffc    00000004     mss_mmw_per4ft.oer4ft (.const:ti_sysbios_knl_Swi_LD_end__C)
                  00016000    00000004     mss_mmw_per4ft.oer4ft (.const:ti_sysbios_knl_Swi_LM_begin__C)
                  00016004    00000004     mss_mmw_per4ft.oer4ft (.const:ti_sysbios_knl_Swi_LM_post__C)
                  00016008    00000004     mss_mmw_per4ft.oer4ft (.const:ti_sysbios_knl_Swi_Module__diagsEnabled__C)
                  0001600c    00000004     mss_mmw_per4ft.oer4ft (.const:ti_sysbios_knl_Swi_Module__diagsIncluded__C)
                  00016010    00000004     mss_mmw_per4ft.oer4ft (.const:ti_sysbios_knl_Swi_Module__diagsMask__C)
                  00016014    00000004     mss_mmw_per4ft.oer4ft (.const:ti_sysbios_knl_Swi_Module__loggerFxn1__C)
                  00016018    00000004     mss_mmw_per4ft.oer4ft (.const:ti_sysbios_knl_Swi_Module__loggerFxn4__C)
                  0001601c    00000004     mss_mmw_per4ft.oer4ft (.const:ti_sysbios_knl_Swi_Module__loggerObj__C)
                  00016020    00000004     mss_mmw_per4ft.oer4ft (.const:ti_sysbios_knl_Swi_Object__count__C)
                  00016024    00000004     mss_mmw_per4ft.oer4ft (.const:ti_sysbios_knl_Task_A_badPriority__C)
                  00016028    00000004     mss_mmw_per4ft.oer4ft (.const:ti_sysbios_knl_Task_A_badTaskState__C)
                  0001602c    00000004     mss_mmw_per4ft.oer4ft (.const:ti_sysbios_knl_Task_A_badThreadType__C)
                  00016030    00000004     mss_mmw_per4ft.oer4ft (.const:ti_sysbios_knl_Task_A_badTimeout__C)
                  00016034    00000004     mss_mmw_per4ft.oer4ft (.const:ti_sysbios_knl_Task_A_noPendElem__C)
                  00016038    00000004     mss_mmw_per4ft.oer4ft (.const:ti_sysbios_knl_Task_A_sleepTaskDisabled__C)
                  0001603c    00000004     mss_mmw_per4ft.oer4ft (.const:ti_sysbios_knl_Task_E_spOutOfBounds__C)
                  00016040    00000004     mss_mmw_per4ft.oer4ft (.const:ti_sysbios_knl_Task_E_stackOverflow__C)
                  00016044    00000004     mss_mmw_per4ft.oer4ft (.const:ti_sysbios_knl_Task_LD_block__C)
                  00016048    00000004     mss_mmw_per4ft.oer4ft (.const:ti_sysbios_knl_Task_LD_exit__C)
                  0001604c    00000004     mss_mmw_per4ft.oer4ft (.const:ti_sysbios_knl_Task_LD_ready__C)
                  00016050    00000004     mss_mmw_per4ft.oer4ft (.const:ti_sysbios_knl_Task_LM_sleep__C)
                  00016054    00000004     mss_mmw_per4ft.oer4ft (.const:ti_sysbios_knl_Task_LM_switch__C)
                  00016058    00000004     mss_mmw_per4ft.oer4ft (.const:ti_sysbios_knl_Task_Module_State_inactiveQ__O)
                  0001605c    00000004     mss_mmw_per4ft.oer4ft (.const:ti_sysbios_knl_Task_Module__diagsEnabled__C)
                  00016060    00000004     mss_mmw_per4ft.oer4ft (.const:ti_sysbios_knl_Task_Module__diagsIncluded__C)
                  00016064    00000004     mss_mmw_per4ft.oer4ft (.const:ti_sysbios_knl_Task_Module__diagsMask__C)
                  00016068    00000004     mss_mmw_per4ft.oer4ft (.const:ti_sysbios_knl_Task_Module__loggerFxn2__C)
                  0001606c    00000004     mss_mmw_per4ft.oer4ft (.const:ti_sysbios_knl_Task_Module__loggerFxn4__C)
                  00016070    00000004     mss_mmw_per4ft.oer4ft (.const:ti_sysbios_knl_Task_Module__loggerObj__C)
                  00016074    00000004     mss_mmw_per4ft.oer4ft (.const:ti_sysbios_knl_Task_Object__count__C)
                  00016078    00000004     mss_mmw_per4ft.oer4ft (.const:ti_sysbios_knl_Task_allBlockedFunc__C)
                  0001607c    00000004     mss_mmw_per4ft.oer4ft (.const:ti_sysbios_knl_Task_defaultStackHeap__C)
                  00016080    00000004     mss_mmw_per4ft.oer4ft (.const:ti_sysbios_knl_Task_defaultStackSize__C)
                  00016084    00000004     mss_mmw_per4ft.oer4ft (.const:ti_sysbios_knl_Task_numConstructedTasks__C)
                  00016088    00000004     mss_mmw_per4ft.oer4ft (.const:ti_sysbios_timers_rti_Timer_E_cannotSupport__C)
                  0001608c    00000004     mss_mmw_per4ft.oer4ft (.const:ti_sysbios_timers_rti_Timer_Module__diagsEnabled__C)
                  00016090    00000004     mss_mmw_per4ft.oer4ft (.const:ti_sysbios_timers_rti_Timer_Module__diagsIncluded__C)
                  00016094    00000004     mss_mmw_per4ft.oer4ft (.const:ti_sysbios_timers_rti_Timer_Module__diagsMask__C)
                  00016098    00000004     mss_mmw_per4ft.oer4ft (.const:ti_sysbios_timers_rti_Timer_numTimerDevices__C)
                  0001609c    00000004     mss_mmw_per4ft.oer4ft (.const:ti_sysbios_timers_rti_Timer_startupNeeded__C)
                  000160a0    00000004     mss_mmw_per4ft.oer4ft (.const:xdc_runtime_Assert_E_assertFailed__C)
                  000160a4    00000004     mss_mmw_per4ft.oer4ft (.const:xdc_runtime_Core_A_initializedParams__C)
                  000160a8    00000004     mss_mmw_per4ft.oer4ft (.const:xdc_runtime_Core_Module__diagsEnabled__C)
                  000160ac    00000004     mss_mmw_per4ft.oer4ft (.const:xdc_runtime_Core_Module__diagsIncluded__C)
                  000160b0    00000004     mss_mmw_per4ft.oer4ft (.const:xdc_runtime_Core_Module__diagsMask__C)
                  000160b4    00000004     mss_mmw_per4ft.oer4ft (.const:xdc_runtime_Error_E_memory__C)
                  000160b8    00000004     mss_mmw_per4ft.oer4ft (.const:xdc_runtime_Error_Module__diagsEnabled__C)
                  000160bc    00000004     mss_mmw_per4ft.oer4ft (.const:xdc_runtime_Error_Module__diagsIncluded__C)
                  000160c0    00000004     mss_mmw_per4ft.oer4ft (.const:xdc_runtime_Error_Module__diagsMask__C)
                  000160c4    00000004     mss_mmw_per4ft.oer4ft (.const:xdc_runtime_Error_Module__loggerFxn8__C)
                  000160c8    00000004     mss_mmw_per4ft.oer4ft (.const:xdc_runtime_Error_Module__loggerObj__C)
                  000160cc    00000004     mss_mmw_per4ft.oer4ft (.const:xdc_runtime_Error_policyFxn__C)
                  000160d0    00000004     mss_mmw_per4ft.oer4ft (.const:xdc_runtime_Error_policy__C)
                  000160d4    00000004     mss_mmw_per4ft.oer4ft (.const:xdc_runtime_Error_raiseHook__C)
                  000160d8    00000004     mss_mmw_per4ft.oer4ft (.const:xdc_runtime_IGateProvider_Interface__BASE__C)
                  000160dc    00000004     mss_mmw_per4ft.oer4ft (.const:xdc_runtime_IHeap_Interface__BASE__C)
                  000160e0    00000004     mss_mmw_per4ft.oer4ft (.const:xdc_runtime_IModule_Interface__BASE__C)
                  000160e4    00000004     mss_mmw_per4ft.oer4ft (.const:xdc_runtime_Log_L_error__C)
                  000160e8    00000004     mss_mmw_per4ft.oer4ft (.const:xdc_runtime_Memory_defaultHeapInstance__C)
                  000160ec    00000004     mss_mmw_per4ft.oer4ft (.const:xdc_runtime_Startup_execImpl__C)
                  000160f0    00000004     mss_mmw_per4ft.oer4ft (.const:xdc_runtime_Startup_maxPasses__C)
                  000160f4    00000004     mss_mmw_per4ft.oer4ft (.const:xdc_runtime_Startup_sfxnRts__C)
                  000160f8    00000004     mss_mmw_per4ft.oer4ft (.const:xdc_runtime_Startup_sfxnTab__C)
                  000160fc    00000004     mss_mmw_per4ft.oer4ft (.const:xdc_runtime_System_Module__gateObj__C)
                  00016100    00000004     mss_mmw_per4ft.oer4ft (.const:xdc_runtime_System_abortFxn__C)
                  00016104    00000004     mss_mmw_per4ft.oer4ft (.const:xdc_runtime_System_exitFxn__C)
                  00016108    00000004     mss_mmw_per4ft.oer4ft (.const:xdc_runtime_System_extendFxn__C)
                  0001610c    00000004     mss_mmw_per4ft.oer4ft (.const:xdc_runtime_System_maxAtexitHandlers__C)
                  00016110    00000004     mss_mmw_per4ft.oer4ft (.const:xdc_runtime_Text_charTab__C)
                  00016114    00000004     mss_mmw_per4ft.oer4ft (.const:xdc_runtime_Text_nameEmpty__C)
                  00016118    00000004     mss_mmw_per4ft.oer4ft (.const:xdc_runtime_Text_nameStatic__C)
                  0001611c    00000004     mss_mmw_per4ft.oer4ft (.const:xdc_runtime_Text_nameUnknown__C)
                  00016120    00000004     mss_mmw_per4ft.oer4ft (.const:xdc_runtime_Text_nodeTab__C)
                  00016124    00000004     mss_mmw_per4ft.oer4ft (.const:xdc_runtime_Text_visitRopeFxn__C)
                  00016128    00000002     mss_mmw_per4ft.oer4ft (.const:ti_sysbios_family_arm_v7r_tms570_Core_Module__id__C)
                  0001612a    00000002     mss_mmw_per4ft.oer4ft (.const:ti_sysbios_family_arm_v7r_vim_Hwi_Module__id__C)
                  0001612c    00000002     mss_mmw_per4ft.oer4ft (.const:ti_sysbios_family_arm_v7r_vim_Hwi_Module__loggerDefined__C)
                  0001612e    00000002     mss_mmw_per4ft.oer4ft (.const:ti_sysbios_gates_GateMutex_Module__id__C)
                  00016130    00000002     mss_mmw_per4ft.oer4ft (.const:ti_sysbios_hal_Hwi_Module__id__C)
                  00016132    00000002     mss_mmw_per4ft.oer4ft (.const:ti_sysbios_heaps_HeapMem_Module__id__C)
                  00016134    00000002     mss_mmw_per4ft.oer4ft (.const:ti_sysbios_knl_Clock_Module__id__C)
                  00016136    00000002     mss_mmw_per4ft.oer4ft (.const:ti_sysbios_knl_Clock_Module__loggerDefined__C)
                  00016138    00000002     mss_mmw_per4ft.oer4ft (.const:ti_sysbios_knl_Event_Module__id__C)
                  0001613a    00000002     mss_mmw_per4ft.oer4ft (.const:ti_sysbios_knl_Event_Module__loggerDefined__C)
                  0001613c    00000002     mss_mmw_per4ft.oer4ft (.const:ti_sysbios_knl_Semaphore_Module__id__C)
                  0001613e    00000002     mss_mmw_per4ft.oer4ft (.const:ti_sysbios_knl_Semaphore_Module__loggerDefined__C)
                  00016140    00000002     mss_mmw_per4ft.oer4ft (.const:ti_sysbios_knl_Swi_Module__id__C)
                  00016142    00000002     mss_mmw_per4ft.oer4ft (.const:ti_sysbios_knl_Swi_Module__loggerDefined__C)
                  00016144    00000002     mss_mmw_per4ft.oer4ft (.const:ti_sysbios_knl_Task_Module__id__C)
                  00016146    00000002     mss_mmw_per4ft.oer4ft (.const:ti_sysbios_knl_Task_Module__loggerDefined__C)
                  00016148    00000002     mss_mmw_per4ft.oer4ft (.const:ti_sysbios_timers_rti_Timer_Module__id__C)
                  0001614a    00000002     mss_mmw_per4ft.oer4ft (.const:ti_sysbios_timers_rti_Timer_continueOnSuspend__C)
                  0001614c    00000002     mss_mmw_per4ft.oer4ft (.const:xdc_runtime_Core_Module__id__C)
                  0001614e    00000002     mss_mmw_per4ft.oer4ft (.const:xdc_runtime_Error_Module__loggerDefined__C)
                  00016150    00000002     mss_mmw_per4ft.oer4ft (.const:xdc_runtime_Error_maxDepth__C)
                  00016152    00000002     mss_mmw_per4ft.oer4ft (.const:xdc_runtime_Main_Module__id__C)
                  00016154    00000002     mss_mmw_per4ft.oer4ft (.const:xdc_runtime_Memory_Module__id__C)
                  00016156    00000002     mss_mmw_per4ft.oer4ft (.const:xdc_runtime_Text_charCnt__C)
                  00016158    00000002     mss_mmw_per4ft.oer4ft (.const:xdc_runtime_Text_isLoaded__C)
                  0001615a    00000002     mss_mmw_per4ft.oer4ft (.const:xdc_runtime_Text_registryModsLastId__C)
                  0001615c    00000002     mss_mmw_per4ft.oer4ft (.const:xdc_runtime_Text_unnamedModsLastId__C)

.cinit     0    00016160    00002f48     
                  00016160    00002efe     (.cinit..data.load) [load image, compression = lzss]
                  0001905e    00000002     --HOLE-- [fill = 0]
                  00019060    0000000c     (__TI_handler_table)
                  0001906c    00000004     --HOLE-- [fill = 0]
                  00019070    00000008     (.cinit..bss.load) [load image, compression = zero_init]
                  00019078    00000008     (.cinit..myFiqStack.load) [load image, compression = zero_init]
                  00019080    00000008     (.cinit.systemHeap.load) [load image, compression = zero_init]
                  00019088    00000020     (__TI_cinit_table)

systemHeap 
*          0    08000000    0000a000     UNINITIALIZED
                  08000000    0000a000     mss_mmw_per4ft.oer4ft (systemHeap)

.data      0    0800a000    00004018     UNINITIALIZED
                  0800a000    00002e5c     mss_main.oer4f (.data:$O1$$)
                  0800ce5c    000003e4     libmmwavelink_xwr68xx.aer4f : rl_driver.oer4f (.data:$O1$$)
                  0800d240    0000021c     cli.oer4f (.data:$O1$$)
                  0800d45c    00000200     mss_mmw_per4ft.oer4ft (.data:ti_sysbios_family_arm_v7r_vim_Hwi_Module_State_0_dispatchTable__A)
                  0800d65c    00000004     libcrc_xwr68xx.aer4f : crc_xwr68xx.oer4f (.data)
                  0800d660    000001e0     cli_mmwave.oer4f (.data:$O1$$)
                  0800d840    000000f0     rtsv7R4_T_le_v3D16_eabi.lib : defs.obj (.data:_ftable)
                  0800d930    00000080     mss_mmw_per4ft.oer4ft (.data:ti_sysbios_knl_Swi_Module_State_0_readyQ__A)
                  0800d9b0    00000080     mss_mmw_per4ft.oer4ft (.data:ti_sysbios_knl_Task_Module_State_0_readyQ__A)
                  0800da30    00000078     rtsv7R4_T_le_v3D16_eabi.lib : write.obj (.data:_device)
                  0800daa8    0000005c     mss_mmw_per4ft.oer4ft (.data:ti_sysbios_knl_Task_Object__table__V)
                  0800db04    00000058     libuart_xwr68xx.aer4f : uart_xwr68xx.oer4f (.data:gUartSciHwCfg)
                  0800db5c    00000050     rtsv7R4_T_le_v3D16_eabi.lib : write.obj (.data:_stream)
                  0800dbac    00000050     libmailbox_xwr68xx.aer4f : mailbox.oer4f (.data:gMailboxMCB)
                  0800dbfc    00000048     mss_mmw_per4ft.oer4ft (.data:ti_sysbios_knl_Task_Module__state__V)
                  0800dc44    00000040     libsoc_xwr68xx.aer4f : soc_xwr68xx.oer4f (.data:SOC_TranslateAddr_LUT)
                  0800dc84    00000040     mss_mmw_per4ft.oer4ft (.data:ti_sysbios_gates_GateMutex_Object__table__V)
                  0800dcc4    0000003c     mss_mmw_per4ft.oer4ft (.data:ti_sysbios_timers_rti_Timer_Object__table__V)
                  0800dd00    00000034     mss_mmw_per4ft.oer4ft (.data:ti_sysbios_family_arm_v7r_vim_Hwi_Module__state__V)
                  0800dd34    00000030     mss_mmw_per4ft.oer4ft (.data:ti_sysbios_knl_Swi_Object__table__V)
                  0800dd64    0000002c     mss_mmw_per4ft.oer4ft (.data:ti_sysbios_family_arm_v7r_vim_Hwi_Object__table__V)
                  0800dd90    0000002c     mss_mmw_per4ft.oer4ft (.data:ti_sysbios_knl_Clock_Module__state__V)
                  0800ddbc    00000028     libuart_xwr68xx.aer4f : uartsci.oer4f (.data:gUartSciFxnTable)
                  0800dde4    00000024                           : uart_xwr68xx.oer4f (.data:UART_config)
                  0800de08    00000024     mss_mmw_per4ft.oer4ft (.data:ti_sysbios_BIOS_Module__state__V)
                  0800de2c    00000020     mss_mmw_per4ft.oer4ft (.data:xdc_runtime_Error_IgnoreBlock)
                  0800de4c    00000020     mss_mmw_per4ft.oer4ft (.data:xdc_runtime_System_Module_State_0_atexitHandlers__A)
                  0800de6c    0000001c     mss_mmw_per4ft.oer4ft (.data:ti_sysbios_knl_Swi_Module__state__V)
                  0800de88    00000018     libmailbox_xwr68xx.aer4f : mailbox_xwr68xx.oer4f (.data:gMailboxMssBssHwCfg)
                  0800dea0    00000018                              : mailbox_xwr68xx.oer4f (.data:gMailboxMssDssHwCfg)
                  0800deb8    00000018     mss_mmw_per4ft.oer4ft (.data:ti_sysbios_heaps_HeapMem_Object__table__V)
                  0800ded0    00000018     mss_mmw_per4ft.oer4ft (.data:ti_sysbios_timers_rti_Timer_Module_State_0_device__A)
                  0800dee8    00000014     libsoc_xwr68xx.aer4f : soc_xwr68xx_mss.oer4f (.data:gSOCHwAttrib)
                  0800defc    00000014     mss_mmw_per4ft.oer4ft (.data:ti_sysbios_family_arm_exc_Exception_Module__state__V)
                  0800df10    00000010     rtsv7R4_T_le_v3D16_eabi.lib : defs.obj (.data)
                  0800df20    00000010     mss_mmw_per4ft.oer4ft (.data:ti_sysbios_timers_rti_Timer_Module_State_0_intFreqs__A)
                  0800df30    00000010     mss_mmw_per4ft.oer4ft (.data:ti_sysbios_timers_rti_Timer_Module__state__V)
                  0800df40    0000000c     rtsv7R4_T_le_v3D16_eabi.lib : exit.obj (.data:$O1$$)
                  0800df4c    0000000c     libesm_xwr68xx.aer4f : esm_xwr1xxx.oer4f (.data:gESMHwCfgAttrs)
                  0800df58    0000000c     mss_mmw_per4ft.oer4ft (.data:ti_sysbios_family_arm_v7a_Pmu_Module__state__V)
                  0800df64    00000008     rtsv7R4_T_le_v3D16_eabi.lib : _lock.obj (.data:$O1$$)
                  0800df6c    00000008     libgpio_xwr68xx.aer4f : gpio_xwr68xx.oer4f (.data:gGPIOHwAtrrib)
                  0800df74    00000008     mss_mmw_per4ft.oer4ft (.data:ti_sysbios_family_arm_v7r_vim_Hwi_Module__root__V)
                  0800df7c    00000008     mss_mmw_per4ft.oer4ft (.data:ti_sysbios_gates_GateHwi_Module__root__V)
                  0800df84    00000008     mss_mmw_per4ft.oer4ft (.data:ti_sysbios_gates_GateMutex_Module__root__V)
                  0800df8c    00000008     mss_mmw_per4ft.oer4ft (.data:ti_sysbios_hal_Hwi_Object__table__V)
                  0800df94    00000008     mss_mmw_per4ft.oer4ft (.data:ti_sysbios_heaps_HeapMem_Module__root__V)
                  0800df9c    00000008     mss_mmw_per4ft.oer4ft (.data:ti_sysbios_knl_Event_Module__root__V)
                  0800dfa4    00000008     mss_mmw_per4ft.oer4ft (.data:ti_sysbios_knl_Queue_Module__root__V)
                  0800dfac    00000008     mss_mmw_per4ft.oer4ft (.data:ti_sysbios_knl_Semaphore_Module__root__V)
                  0800dfb4    00000008     mss_mmw_per4ft.oer4ft (.data:ti_sysbios_knl_Task_Module__root__V)
                  0800dfbc    00000008     mss_mmw_per4ft.oer4ft (.data:ti_sysbios_timers_rti_Timer_Module_State_0_handles__A)
                  0800dfc4    00000008     mss_mmw_per4ft.oer4ft (.data:xdc_runtime_Registry_Module__state__V)
                  0800dfcc    00000008     mss_mmw_per4ft.oer4ft (.data:xdc_runtime_Startup_Module__state__V)
                  0800dfd4    00000008     mss_mmw_per4ft.oer4ft (.data:xdc_runtime_System_Module__state__V)
                  0800dfdc    00000004     libpinmux_xwr68xx.aer4f : pinmux_xwr1xxx.oer4f (.data)
                  0800dfe0    00000004     libuart_xwr68xx.aer4f : UART.oer4f (.data)
                  0800dfe4    00000004     rtsv7R4_T_le_v3D16_eabi.lib : errno.obj (.data)
                  0800dfe8    00000004                                 : fopen.obj (.data)
                  0800dfec    00000004                                 : open.obj (.data)
                  0800dff0    00000004                                 : stkdepth_vars.obj (.data)
                  0800dff4    00000004                                 : strtok.obj (.data)
                  0800dff8    00000004     mss_mmw_per4ft.oer4ft (.data:ti_sysbios_family_arm_exc_Exception_Module_State_0_excContext__A)
                  0800dffc    00000004     mss_mmw_per4ft.oer4ft (.data:ti_sysbios_family_arm_exc_Exception_Module_State_0_excStackBuffers__A)
                  0800e000    00000004     mss_mmw_per4ft.oer4ft (.data:ti_sysbios_family_arm_exc_Exception_Module_State_0_excStack__A)
                  0800e004    00000004     mss_mmw_per4ft.oer4ft (.data:ti_sysbios_gates_GateHwi_Object__table__V)
                  0800e008    00000004     mss_mmw_per4ft.oer4ft (.data:ti_sysbios_heaps_HeapBuf_Module__state__V)
                  0800e00c    00000004     mss_mmw_per4ft.oer4ft (.data:ti_sysbios_knl_Task_Module_State_0_idleTask__A)
                  0800e010    00000004     mss_mmw_per4ft.oer4ft (.data:xdc_runtime_Memory_Module__state__V)
                  0800e014    00000002     mss_mmw_per4ft.oer4ft (.data:ti_sysbios_family_arm_exc_Exception_Module_State_0_excActive__A)
                  0800e016    00000002     mss_mmw_per4ft.oer4ft (.data:xdc_runtime_Error_Module__state__V)

.bss       0    0800e018    00001cd0     UNINITIALIZED
                  0800e018    00001000     (.common:ti_sysbios_family_arm_exc_Exception_Module_State_0_excStack_0__A)
                  0800f018    00000800     mss_mmw_per4ft.oer4ft (.bss:taskStackSection)
                  0800f818    00000194     (.common:gGPIOMCB)
                  0800f9ac    00000120     rtsv7R4_T_le_v3D16_eabi.lib : trgmsg.obj (.bss:_CIOBUF_)
                  0800facc    000000fc     (.common:gMMWave_MCB)
                  0800fbc8    000000a0     (.common:__TI_tmpnams)
                  0800fc68    00000070     (.common:gEsmMCB)
                  0800fcd8    00000008     (.common:gMMWave_DualcoreMCB)
                  0800fce0    00000008     (.common:parmbuf)

.stack     0    0800fce8    00001000     UNINITIALIZED
                  0800fce8    00001000     --HOLE--

.myFiqStack 
*          0    08010ce8    00000800     UNINITIALIZED
                  08010ce8    00000800     mss_mmw_per4ft.oer4ft (.myFiqStack)

xdc.meta   0    00000000    0000012e     COPY SECTION
                  00000000    0000012e     mss_mmw_per4ft.oer4ft (xdc.meta)

MODULE SUMMARY

       Module                          code    ro data   rw data
       ------                          ----    -------   -------
    .\common\
       cli_mmwave.oer4f                4588    192       480    
       cli.oer4f                       1012    850       540    
    +--+-------------------------------+-------+---------+---------+
       Total:                          5600    1042      1020   
                                                                
    .\mss\
       mss_main.oer4f                  6768    28        11868  
       mss_cli.oer4f                   5033    478       0      
       utils.oer4f                     232     0         0      
       inference.oer4f                 230     0         0      
    +--+-------------------------------+-------+---------+---------+
       Total:                          12263   506       11868  
                                                                
    C:\Users\sonif\Documents\StudiumMaster\Semester3\Masterthesis\TI_modifiedFromTICommunity\multi_gesture_68xx_mss\Debug\configPkg\package\cfg\
       mss_mmw_per4ft.oer4ft           1798    9035      50772  
    +--+-------------------------------+-------+---------+---------+
       Total:                          1798    9035      50772  
                                                                
    C:/ti/mmwave_sdk_03_01_01_02/packages/ti/control/mmwave/lib/libmmwave_xwr68xx.aer4f
       mmwave_link.oer4f               2460    0         0      
       mmwave_dualcore.oer4f           2108    0         8      
       mmwave_fullcfg.oer4f            2002    0         0      
       mmwave.oer4f                    1012    0         252    
       mmwave_osal.oer4f               200     0         0      
       mmwave_listlib.oer4f            142     0         0      
    +--+-------------------------------+-------+---------+---------+
       Total:                          7924    0         260    
                                                                
    C:/ti/mmwave_sdk_03_01_01_02/packages/ti/control/mmwavelink/lib/libmmwavelink_xwr68xx.aer4f
       rl_driver.oer4f                 4014    120       996    
       rl_sensor.oer4f                 1680    696       0      
       rl_device.oer4f                 460     0         0      
       rl_controller.oer4f             146     0         0      
    +--+-------------------------------+-------+---------+---------+
       Total:                          6300    816       996    
                                                                
    C:/ti/mmwave_sdk_03_01_01_02/packages/ti/drivers/crc/lib/libcrc_xwr68xx.aer4f
       crc.oer4f                       1256    0         0      
       crc_xwr68xx.oer4f               0       0         4      
    +--+-------------------------------+-------+---------+---------+
       Total:                          1256    0         4      
                                                                
    C:/ti/mmwave_sdk_03_01_01_02/packages/ti/drivers/dma/lib/libdma_xwr68xx.aer4f
       dma.oer4f                       1906    0         0      
    +--+-------------------------------+-------+---------+---------+
       Total:                          1906    0         0      
                                                                
    C:/ti/mmwave_sdk_03_01_01_02/packages/ti/drivers/esm/lib/libesm_xwr68xx.aer4f
       esm.oer4f                       456     0         112    
       esm_xwr1xxx.oer4f               0       0         12     
    +--+-------------------------------+-------+---------+---------+
       Total:                          456     0         124    
                                                                
    C:/ti/mmwave_sdk_03_01_01_02/packages/ti/drivers/gpio/lib/libgpio_xwr68xx.aer4f
       gpio.oer4f                      1090    0         404    
       gpio_xwr68xx.oer4f              0       0         8      
    +--+-------------------------------+-------+---------+---------+
       Total:                          1090    0         412    
                                                                
    C:/ti/mmwave_sdk_03_01_01_02/packages/ti/drivers/mailbox/lib/libmailbox_xwr68xx.aer4f
       mailbox.oer4f                   1916    36        80     
       mailbox_xwr68xx.oer4f           0       0         48     
    +--+-------------------------------+-------+---------+---------+
       Total:                          1916    36        128    
                                                                
    C:/ti/mmwave_sdk_03_01_01_02/packages/ti/drivers/osal/lib/libosal_xwr68xx.aer4f
       HwiP_tirtos.oer4f               222     0         0      
       SemaphoreP_tirtos.oer4f         150     0         0      
       MemoryP_tirtos.oer4f            28      0         0      
       DebugP_tirtos.oer4f             20      0         0      
    +--+-------------------------------+-------+---------+---------+
       Total:                          420     0         0      
                                                                
    C:/ti/mmwave_sdk_03_01_01_02/packages/ti/drivers/pinmux/lib/libpinmux_xwr68xx.aer4f
       pinmux.oer4f                    390     0         0      
       pinmux_xwr1xxx.oer4f            0       0         4      
    +--+-------------------------------+-------+---------+---------+
       Total:                          390     0         4      
                                                                
    C:/ti/mmwave_sdk_03_01_01_02/packages/ti/drivers/soc/lib/libsoc_xwr68xx.aer4f
       soc_xwr68xx_mss.oer4f           1336    0         20     
       soc.oer4f                       492     0         0      
       soc_xwr68xx.oer4f               406     0         64     
       soc_mpu.o                       182     0         0      
    +--+-------------------------------+-------+---------+---------+
       Total:                          2416    0         84     
                                                                
    C:/ti/mmwave_sdk_03_01_01_02/packages/ti/drivers/uart/lib/libuart_xwr68xx.aer4f
       uartsci.oer4f                   2192    0         40     
       uartsci_dma.oer4f               642     0         0      
       UART.oer4f                      150     60        4      
       uart_xwr68xx.oer4f              0       0         124    
    +--+-------------------------------+-------+---------+---------+
       Total:                          2984    60        168    
                                                                
    C:/ti/ti-cgt-arm_16.9.6.LTS/lib/rtsv7R4_T_le_v3D16_eabi.lib
       _printfi.obj                    4218    0         0      
       ull_div32.obj                   696     0         0      
       e_exp.obj                       600     48        0      
       strtod.obj                      484     152       0      
       fopen.obj                       456     0         4      
       defs.obj                        0       0         416    
       trgmsg.obj                      108     0         288    
       ctype.obj                       0       257       0      
       write.obj                       40      0         200    
       s_scalbn.obj                    236     0         0      
       setvbuf.obj                     220     0         0      
       fflush.obj                      204     0         0      
       open.obj                        188     0         4      
       _io_perm.obj                    174     0         0      
       memcpy_t2.obj                   156     0         0      
       fclose.obj                      152     0         0      
       fputc.obj                       152     0         0      
       vsnprintf.obj                   136     0         0      
       memset_t2.obj                   122     0         0      
       getdevice.obj                   116     0         0      
       s_frexp.obj                     116     0         0      
       copy_decompress_lzss.obj        108     0         0      
       hostlseek.obj                   104     0         0      
       hostrename.obj                  104     0         0      
       fseek.obj                       100     0         0      
       hostopen.obj                    92      0         8      
       sprintf.obj                     100     0         0      
       exit.obj                        80      0         12     
       hostread.obj                    92      0         0      
       close.obj                       88      0         0      
       hostwrite.obj                   88      0         0      
       ltoa.obj                        84      0         0      
       atoi.obj                        80      0         0      
       u_div32.obj                     80      0         0      
       cpy_tbl.obj                     76      0         0      
       hostclose.obj                   68      0         0      
       hostunlink.obj                  68      0         0      
       strtok.obj                      64      0         4      
       strncpy.obj                     54      0         0      
       e_sqrt.obj                      44      0         0      
       unlink.obj                      44      0         0      
       strspn.obj                      42      0         0      
       lseek.obj                       40      0         0      
       memcmp.obj                      38      0         0      
       strcspn.obj                     34      0         0      
       _lock.obj                       20      0         8      
       memccpy.obj                     28      0         0      
       s_copysign.obj                  26      0         0      
       args_main.obj                   24      0         0      
       strcmp.obj                      24      0         0      
       strchr.obj                      22      0         0      
       strlen.obj                      22      0         0      
       strcpy.obj                      20      0         0      
       copy_decompress_none.obj        14      0         0      
       copy_zero_init.obj              12      0         0      
       errno.obj                       0       0         4      
       stkdepth_vars.obj               0       0         4      
       i_div0.obj                      2       0         0      
    +--+-------------------------------+-------+---------+---------+
       Total:                          10560   457       952    
                                                                
    C:\Users\sonif\Documents\StudiumMaster\Semester3\Masterthesis\TI_modifiedFromTICommunity\multi_gesture_68xx_mss\mss\src\sysbios\sysbios.aer4ft
       BIOS.obj                        19427   0         0      
       exc_Exception_asm.obj           308     0         0      
       vim_Hwi_asm.obj                 208     0         0      
       arm_TaskSupport_asm.obj         180     0         0      
       vim_Hwi_asm_switch.obj          152     0         0      
       arm_IntrinsicsSupport_asm.obj   12      0         0      
       tms570_Core_asm.obj             10      0         0      
    +--+-------------------------------+-------+---------+---------+
       Total:                          20297   0         0      
                                                                
    C:\ti\bios_6_73_01_01\packages\ti\targets\arm\rtsarm\lib\auto_init.aer4ft
       auto_init.oer4ft                160     0         0      
    +--+-------------------------------+-------+---------+---------+
       Total:                          160     0         0      
                                                                
    C:\ti\bios_6_73_01_01\packages\ti\targets\arm\rtsarm\lib\boot.aer4ft
       boot.oer4ft                     116     0         0      
    +--+-------------------------------+-------+---------+---------+
       Total:                          116     0         0      
                                                                
       Stack:                          0       0         4096   
       Linker Generated:               0       12098     0      
    +--+-------------------------------+-------+---------+---------+
       Grand Total:                    77852   24050     70888  


LINKER GENERATED COPY TABLES

__TI_cinit_table @ 00019088 records: 4, size/record: 8, table size: 32
	.data: load addr=00016160, load size=00002efe bytes, run addr=0800a000, run size=00004018 bytes, compression=lzss
	.bss: load addr=00019070, load size=00000008 bytes, run addr=0800e018, run size=00001cd0 bytes, compression=zero_init
	.myFiqStack: load addr=00019078, load size=00000008 bytes, run addr=08010ce8, run size=00000800 bytes, compression=zero_init
	systemHeap: load addr=00019080, load size=00000008 bytes, run addr=08000000, run size=0000a000 bytes, compression=zero_init


LINKER GENERATED HANDLER TABLE

__TI_handler_table @ 00019060 records: 3, size/record: 4, table size: 12
	index: 0, handler: __TI_zero_init
	index: 1, handler: __TI_decompress_lzss
	index: 2, handler: __TI_decompress_none


GLOBAL SYMBOLS: SORTED ALPHABETICALLY BY Name 

address   name                                                                 
-------   ----                                                                 
00010bc5  C$$EXIT                                                              
0000f6d7  C$$IO$$                                                              
0000fed5  CLI_MMWaveExtensionHandler                                           
0000c019  CLI_MMWaveExtensionHelp                                              
00011831  CLI_MMWaveExtensionInit                                              
000028d5  CLI_getMMWaveExtensionConfig                                         
00012c29  CLI_getMMWaveExtensionOpenConfig                                     
000098fd  CLI_open                                                             
000109e5  CLI_write                                                            
00009145  CRC_computeSignature                                                 
00010a35  CRC_getSignature                                                     
000106c1  CRC_getTransactionId                                                 
00013009  CRC_initConfigParams                                                 
00005289  CRC_open                                                             
0000c559  DMA_assignChannel                                                    
00009acd  DMA_clearChannelInterruptFlag                                        
0000f3b1  DMA_disableChannel                                                   
00009241  DMA_disableInterrupt                                                 
0000f77d  DMA_enableChannel                                                    
00009f29  DMA_enableInterrupt                                                  
00010715  DMA_freeChannel                                                      
0000c5fd  DMA_getChannelInterruptFlag                                          
00005681  DMA_setChannelParams                                                 
00010345  ESM_highpriority_FIQ                                                 
0000c6a1  ESM_init                                                             
0001272d  ESM_lowpriority_IRQ                                                  
0000bec1  ESM_processInterrupt                                                 
0000f41d  GPIO_enableInt                                                       
0000d571  GPIO_init                                                            
0000ff35  GPIO_setCallback                                                     
00007175  GPIO_setConfig                                                       
0000b401  GPIO_write                                                           
000110e1  HOSTclose                                                            
0000f985  HOSTlseek                                                            
000101d9  HOSTopen                                                             
00010235  HOSTread                                                             
0000f9ed  HOSTrename                                                           
00011125  HOSTunlink                                                           
000105ad  HOSTwrite                                                            
00012ea7  HwiP_Params_init                                                     
0000e731  HwiP_create                                                          
000117bd  HwiP_delete                                                          
00003499  HwiP_disable                                                         
00006e7d  HwiP_disableInterrupt                                                
000017cb  HwiP_restore                                                         
000099e5  Inference                                                            
0000c745  MMWave_addBpmChirp                                                   
0000aabd  MMWave_addChirp                                                      
0000bbf9  MMWave_addProfile                                                    
0000ecf5  MMWave_config                                                        
0000ab85  MMWave_configBPM                                                     
0000cc71  MMWave_configLink                                                    
00011551  MMWave_decodeError                                                   
000039c9  MMWave_decodeErrorLevel                                              
0000e21d  MMWave_deviceCfgAsyncEvent                                           
0000f17d  MMWave_deviceCfgFxn                                                  
0000e2a1  MMWave_deviceEventFxn                                                
00003745  MMWave_deviceExecuteFxn                                              
0001301b  MMWave_deviceGetDeviceInfo                                           
00008a0d  MMWave_deviceInitFxn                                                 
0000e7b1  MMWave_deviceOpenFxn                                                 
0000ed69  MMWave_deviceStartFxn                                                
0000f7e5  MMWave_deviceStopFxn                                                 
00012b09  MMWave_deviceSyncFxn                                                 
00012b23  MMWave_encodeError                                                   
0001039d  MMWave_execute                                                       
00011255  MMWave_executeLink                                                   
0000ac4d  MMWave_flushCfg                                                      
0000e4ad  MMWave_getBpmChirpCfg                                                
0000c169  MMWave_getBpmChirpHandle                                             
0000d0bd  MMWave_getChirpCfg                                                   
0000ad15  MMWave_getChirpHandle                                                
0000e325  MMWave_getNumBpmChirp                                                
0000eb8d  MMWave_getNumChirps                                                  
0000deed  MMWave_getProfileCfg                                                 
0000cd0d  MMWave_getProfileHandle                                              
0000a001  MMWave_init                                                          
00010769  MMWave_initLink                                                      
00012b3d  MMWave_listAdd                                                       
0001274d  MMWave_listCat                                                       
00008e3d  MMWave_listGetHead                                                   
0000980d  MMWave_listGetNext                                                   
000129b1  MMWave_listRemove                                                    
00011b23  MMWave_listRemoveNode                                                
0000e3a9  MMWave_open                                                          
00008101  MMWave_openLink                                                      
00011e85  MMWave_osalMutexCreate                                               
00012ee3  MMWave_osalMutexDelete                                               
00012c41  MMWave_osalMutexLock                                                 
00005c45  MMWave_osalMutexUnlock                                               
00011eb1  MMWave_osalSemCreate                                                 
00012ef7  MMWave_osalSemDelete                                                 
00005ff5  MMWave_osalSemSignal                                                 
00012c59  MMWave_osalSemWait                                                   
0000c7e9  MMWave_start                                                         
00009045  MMWave_startLink                                                     
0001017d  MMWave_stop                                                          
0000f4f5  MMWave_stopLink                                                      
00010a85  MMWave_sync                                                          
0001214d  Mailbox_Config_init                                                  
0000d601  Mailbox_close                                                        
00015bd4  Mailbox_defaultCfg                                                   
0000e82d  Mailbox_init                                                         
00003eb9  Mailbox_open                                                         
0000a1b1  Mailbox_read                                                         
0000f84d  Mailbox_readFlush                                                    
00008c2d  Mailbox_write                                                        
00011609  Mailbox_writeReset                                                   
0001302d  MemoryP_ctrlAlloc                                                    
0000fa55  MemoryP_ctrlFree                                                     
0000117d  MmwDemo_CLIInit                                                      
0000ec7d  MmwDemo_Dss2MssISR                                                   
000061c9  MmwDemo_bpmConfig                                                    
0000e085  MmwDemo_gpioSwitchTask                                               
000066c5  MmwDemo_mboxCallback                                                 
0001276d  MmwDemo_mboxWrite                                                    
0001044d  MmwDemo_mmWaveCtrlTask                                               
000045c5  MmwDemo_mssCtrlPathTask                                              
00004e75  MmwDemo_mssDataPathConfig                                            
0000b91d  MmwDemo_mssDataPathStart                                             
0000a285  MmwDemo_mssDataPathStop                                              
00001cb5  MmwDemo_mssInitTask                                                  
00012f0d  MmwDemo_mssMmwaveConfigCallbackFxn                                   
00008d35  MmwDemo_mssMmwaveEventCallbackFxn                                    
000129cd  MmwDemo_mssMmwaveStartCallbackFxn                                    
00012f21  MmwDemo_mssMmwaveStopCallbackFxn                                     
0000fac9  MmwDemo_mssSetHsiClk                                                 
000124a1  MmwDemo_notifySensorStart                                            
000129e9  MmwDemo_notifySensorStop                                             
0000bd5d  MmwDemo_sleep                                                        
0000d721  MmwDemo_waitSensorStartComplete                                      
0000c88d  MmwDemo_waitSensorStopComplete                                       
0000f561  Pinmux_Set_FuncSel                                                   
0000c2b9  Pinmux_Set_OverrideCtrl                                              
UNDEFED   SHT$$INIT_ARRAY$$Base                                                
UNDEFED   SHT$$INIT_ARRAY$$Limit                                               
0000b8d7  SOC_MPUAreRegionsSeparate                                            
0000b883  SOC_MPUDisable                                                       
0000b8b7  SOC_MPUDisableBackgroundRegion                                       
0000b865  SOC_MPUEnable                                                        
0000b8a1  SOC_MPUEnableBackgroundRegion                                        
0000b8cd  SOC_MPUGetNumberOfRegions                                            
0000b8e5  SOC_MPUGetRegion                                                     
0000b8f1  SOC_MPUGetRegionBaseAddress                                          
0000b90b  SOC_MPUGetRegionPermission                                           
0000b901  SOC_MPUGetRegionType                                                 
0000b8df  SOC_MPUSetRegion                                                     
0000b8eb  SOC_MPUSetRegionBaseAddress                                          
0000b915  SOC_MPUSetRegionSizeRegister                                         
0000b8f7  SOC_MPUSetRegionTypeAndPermission                                    
000120cd  SOC_SystemISR                                                        
0800dc44  SOC_TranslateAddr_LUT                                                
0000a5e5  SOC_controlSecureFirewall                                            
00002bf1  SOC_deviceInit                                                       
00011b55  SOC_getDevicePartNumber                                              
0000ee51  SOC_getDeviceRFFreqScaleFactor                                       
00012a05  SOC_getInAddr_LUTType                                                
000128cf  SOC_getOutAddr_LUTType                                               
0000e10d  SOC_init                                                             
000124c5  SOC_isMMWaveDSSOperational                                           
000124e9  SOC_isMMWaveMSSOperational                                           
0000cf7d  SOC_isSecureDevice                                                   
000119ad  SOC_setMMWaveDSSLinkState                                            
000119e1  SOC_setMMWaveMSSLinkState                                            
0000db99  SOC_translateAddress                                                 
00011645  SOC_unhaltBSS                                                        
00011edd  SOC_waitBSSPowerUp                                                   
00004a39  SemaphoreP_Params_init                                               
0000fbfd  SemaphoreP_create                                                    
00011ae3  SemaphoreP_delete                                                    
0001303f  SemaphoreP_pend                                                      
0000fdf5  SemaphoreP_post                                                      
0000fdf5  SemaphoreP_postFromClock                                             
0000fdf5  SemaphoreP_postFromISR                                               
00006cf5  UART_Params_init                                                     
0800dde4  UART_config                                                          
00015ae4  UART_defaultParams                                                   
00011869  UART_init                                                            
00011a15  UART_open                                                            
0000fe65  UART_read                                                            
0000ff95  UART_write                                                           
00010605  UART_writePolling                                                    
000104a5  UartSci_closeDMA                                                     
000126c7  UartSci_disableRxDMA                                                 
00012f49  UartSci_disableTxDMA                                                 
000126e9  UartSci_enableRxDMA                                                  
00012f5d  UartSci_enableTxDMA                                                  
0000dc25  UartSci_initiateRxDMA                                                
0000d7b1  UartSci_initiateTxDMA                                                
000072e5  UartSci_isDMAEnabled                                                 
0000bb45  UartSci_openDMA                                                      
00012f71  _DebugP_assert                                                       
00000000  __ASM__                                                              
0800f9ac  __CIOBUF_                                                            
000000a9  __ISA__                                                              
000000bb  __PLAT__                                                             
08010ce8  __STACK_END                                                          
00001000  __STACK_SIZE                                                         
000000df  __TARG__                                                             
00019088  __TI_CINIT_Base                                                      
000190a8  __TI_CINIT_Limit                                                     
00019060  __TI_Handler_Table_Base                                              
0001906c  __TI_Handler_Table_Limit                                             
0000ca85  __TI_auto_init                                                       
00005ef7  __TI_cleanup                                                         
0800df40  __TI_cleanup_ptr                                                     
0000d155  __TI_closefile                                                       
0000f639  __TI_decompress_lzss                                                 
00013191  __TI_decompress_none                                                 
0000a91d  __TI_doflush                                                         
0800df44  __TI_dtors_ptr                                                       
0800df48  __TI_enable_exit_profile_output                                      
0800df10  __TI_ft_end                                                          
ffffffff  __TI_pprof_out_hndl                                                  
000008c5  __TI_printfi                                                         
ffffffff  __TI_prof_data_size                                                  
ffffffff  __TI_prof_data_start                                                 
0000be75  __TI_rd_ok                                                           
0000f6db  __TI_readmsg                                                         
00016160  __TI_static_base__                                                   
0800fbc8  __TI_tmpnams                                                         
0000f6a5  __TI_writemsg                                                        
0000be11  __TI_wrt_ok                                                          
0000b335  __TI_zero_init                                                       
00000106  __TRDR__                                                             
00009f27  __aeabi_idiv0                                                        
0000ea99  __aeabi_memclr                                                       
0000ea99  __aeabi_memclr4                                                      
0000ea99  __aeabi_memclr8                                                      
0000ce45  __aeabi_memcpy                                                       
0000ce45  __aeabi_memcpy4                                                      
0000ce45  __aeabi_memcpy8                                                      
0000ea9b  __aeabi_memset                                                       
0000ea9b  __aeabi_memset4                                                      
0000ea9b  __aeabi_memset8                                                      
0800df1c  __aeabi_stderr                                                       
0800df14  __aeabi_stdin                                                        
0800df18  __aeabi_stdout                                                       
00010c14  __aeabi_uidiv                                                        
00010c14  __aeabi_uidivmod                                                     
000031e0  __aeabi_uldivmod                                                     
ffffffff  __binit__                                                            
ffffffff  __c_args__                                                           
0800fce8  __stack                                                              
00012d19  _args_main                                                           
0000eec4  _c_int00                                                             
0001563e  _ctypes_                                                             
0800da30  _device                                                              
0800d840  _ftable                                                              
0800df64  _lock                                                                
00012fa7  _nop                                                                 
00012f9f  _register_lock                                                       
00012f99  _register_unlock                                                     
0800db5c  _stream                                                              
0800df68  _unlock                                                              
00010bc9  abort                                                                
0000f5cd  angleDelta                                                           
00010b75  atoi                                                                 
ffffffff  binit                                                                
00010555  close                                                                
00011f09  compute_innerprod                                                    
00010d59  copy_in                                                              
00012b8b  copysign                                                             
00012b8b  copysignl                                                            
00009e4d  correlation_function                                                 
0800a19c  energyLog                                                            
0800dfe4  errno                                                                
00010bd1  exit                                                                 
00004119  exp                                                                  
00004119  expl                                                                 
0000d1bb  fclose                                                               
0800a0b4  featureVecPosLog                                                     
0000a969  fflush                                                               
0000e5ad  findDelta                                                            
0000f021  finddevice                                                           
0800a024  fltGestureCnt                                                        
00005f4d  fopen                                                                
0000d1ed  fputc                                                                
00012b57  free                                                                 
00005f23  freopen                                                              
0000f095  frexp                                                                
0000f095  frexpl                                                               
0000fc61  fseek                                                                
0800a728  gANN_struct_t                                                        
0800d2b8  gCLI                                                                 
0800d774  gCLIMMWaveControlCfg                                                 
0800d6cc  gCLIMMWaveExtensionTable                                             
0800d668  gCLIMMWaveOpenCfg                                                    
0800d660  gCLI_mmwave_freq_scale_factor                                        
0800d65c  gCRCRegister                                                         
0800df4c  gESMHwCfgAttrs                                                       
0800fc68  gEsmMCB                                                              
0800df6c  gGPIOHwAtrrib                                                        
0800f818  gGPIOMCB                                                             
0800fcd8  gMMWave_DualcoreMCB                                                  
0800facc  gMMWave_MCB                                                          
0800dbac  gMailboxMCB                                                          
0800de88  gMailboxMssBssHwCfg                                                  
0800dea0  gMailboxMssDssHwCfg                                                  
0800a39c  gMmwMssMCB                                                           
0800dfdc  gPinmuxRegs                                                          
0800dee8  gSOCHwAttrib                                                         
0800ddbc  gUartSciFxnTable                                                     
0800db04  gUartSciHwCfg                                                        
0800a014  gestureCnt                                                           
0800a01c  gestureCntPrev                                                       
0000f1ed  gestureInferenceProcessing                                           
0800a03c  gestureProbabilityLog                                                
0800a00c  gestureTimeStamp                                                     
0000f04f  getdevice                                                            
0800d244  hardCodedConfigCommands                                              
0800d240  hardCodedConfigIndex                                                 
00009721  ldexp                                                                
00009721  ldexpl                                                               
000121c5  log2Approx                                                           
000118a1  logEnergy                                                            
0000f25d  logFeatures                                                          
00012215  lseek                                                                
000107bd  ltoa                                                                 
00007451  main                                                                 
0800dff0  main_func_sp                                                         
00011dff  malloc                                                               
000117f7  maxCheck                                                             
00012a59  memccpy                                                              
00012403  memcmp                                                               
0000ce45  memcpy                                                               
0000eaa1  memset                                                               
0800a02c  numDetectionsPerBucket                                               
0000b6f1  open                                                                 
0800fce0  parmbuf                                                              
0800d68c  partInfoStringArray                                                  
0800a000  peopleDetectorState                                                  
0800a004  peopleDetectorStateFlt                                               
0800a008  peopleDetectorStatePrev                                              
00007fd5  postProcessing                                                       
0000d1ed  putc                                                                 
0000d273  putchar                                                              
00011f35  relu_activation                                                      
00011fe5  remove                                                               
00012f85  rlAppendDummy                                                        
000118d7  rlAppendSubBlock                                                     
000120f7  rlDeviceGetMmWaveLinkVersion                                         
00011f61  rlDeviceGetMssVersion                                                
00012cb9  rlDeviceGetRfVersion                                                 
00010f3b  rlDeviceGetVersion                                                   
00010ad5  rlDeviceIdentifyCmdDir                                               
0000fb31  rlDevicePowerOff                                                     
0000dcb1  rlDevicePowerOn                                                      
0001250d  rlDeviceSetHsiClk                                                    
0000ef39  rlDriverAsyncEventHandler                                            
00012cd1  rlDriverCalCRC                                                       
000102eb  rlDriverCalChkSum                                                    
0000686d  rlDriverCmdInvoke                                                    
000088f9  rlDriverCmdSendRetry                                                 
000121ed  rlDriverConstructInMsg                                               
000086b9  rlDriverConstructOutMsg                                              
0000d3b5  rlDriverDeInit                                                       
0000e62d  rlDriverExecuteGetApi                                                
0000f8b5  rlDriverExecuteSetApi                                                
00012ce9  rlDriverFillPayload                                                  
000087d9  rlDriverGetHandle                                                    
0000ba85  rlDriverGetPlatformId                                                
0000f91d  rlDriverHostIrqHandler                                               
0000933d  rlDriverInit                                                         
00012d01  rlDriverIsDeviceMapValid                                             
0000dd3d  rlDriverMsgCmdReply                                                  
00008229  rlDriverMsgRead                                                      
0000d449  rlDriverMsgReadCmdCtx                                                
000104fd  rlDriverMsgReadSpawnCtx                                              
0000b1b5  rlDriverMsgWrite                                                     
00010f85  rlDriverOsiInit                                                      
0000efad  rlDriverProcRdMsg                                                    
00009439  rlDriverRdVerifyMsg                                                  
00006b75  rlDriverRxHdrRead                                                    
00011297  rlDriverValidateHdr                                                  
00010b25  rlDriverVerifyCRC                                                    
0000cb25  rlDriverWaitForResponse                                              
00012531  rlEnableContMode                                                     
00012b71  rlGetRfDieId                                                         
00011681  rlGetSubBlock                                                        
00007adb  rlGetSubBlockId                                                      
00009629  rlGetSubBlockLen                                                     
0000a785  rlRfCalibDataRestore                                                 
000127ad  rlRfInit                                                             
000122f9  rlRfInitCalibConfig                                                  
0001231f  rlRfRunTimeCalibConfig                                               
00012555  rlRfSetCalMonTimeUnitConfig                                          
00012345  rlRfSetDeviceCfg                                                     
00011b85  rlSensorStart                                                        
00011f8d  rlSensorStop                                                         
0001236b  rlSetAdcOutConfig                                                    
0000c361  rlSetAdvFrameConfig                                                  
00012391  rlSetBpmCommonConfig                                                 
000123b7  rlSetChannelConfig                                                   
0000a851  rlSetChirpConfig                                                     
000123dd  rlSetContModeConfig                                                  
0000b275  rlSetFrameConfig                                                     
00012579  rlSetLowPowerModeConfig                                              
0000a359  rlSetMultiBpmChirpConfig                                             
0000bca9  rlSetProfileConfig                                                   
0800cf5c  rl_rxMsg                                                             
0800ce5c  rl_txMsg                                                             
0000c409  runPeopleDetection                                                   
00009721  scalbn                                                               
00009721  scalbnl                                                              
00009d71  setvbuf                                                              
0000d8d1  soft_max                                                             
0000fcc5  sprintf                                                              
00011fb9  sqrt                                                                 
00011fb9  sqrtl                                                                
00012e29  strchr                                                               
00012d31  strcmp                                                               
00012fad  strcpy                                                               
0001270b  strcspn                                                              
00012e3f  strlen                                                               
0001190d  strncpy                                                              
00012121  strspn                                                               
00005871  strtod                                                               
000112d9  strtok                                                               
00005871  strtold                                                              
0800de08  ti_sysbios_BIOS_Module__state__V                                     
00012bbf  ti_sysbios_BIOS_RtsGateProxy_Handle__label__S                        
0000d01d  ti_sysbios_BIOS_RtsGateProxy_enter__E                                
0000ddc9  ti_sysbios_BIOS_RtsGateProxy_leave__E                                
00013281  ti_sysbios_BIOS_RtsGateProxy_query__E                                
00011bb5  ti_sysbios_BIOS_atExitFunc__I                                        
0001259d  ti_sysbios_BIOS_errorRaiseHook__I                                    
00012e55  ti_sysbios_BIOS_exitFunc__I                                          
000132d1  ti_sysbios_BIOS_linkedWithIncorrectBootLibrary__E                    
0000b91b  ti_sysbios_BIOS_nullFunc__I                                          
000125c1  ti_sysbios_BIOS_registerRTSLock__I                                   
000125e5  ti_sysbios_BIOS_removeRTSLock__I                                     
00012a75  ti_sysbios_BIOS_rtsLock__I                                           
00012d49  ti_sysbios_BIOS_rtsUnlock__I                                         
000130a1  ti_sysbios_BIOS_setThreadType__E                                     
00011be5  ti_sysbios_BIOS_startFunc__I                                         
000130b1  ti_sysbios_BIOS_start__E                                             
0000a504  ti_sysbios_family_arm_IntrinsicsSupport_maxbitA__I                   
0000a504  ti_sysbios_family_arm_IntrinsicsSupport_maxbit__E                    
0000ddcd  ti_sysbios_family_arm_TaskSupport_Module__startupDone__S             
0000e924  ti_sysbios_family_arm_TaskSupport_buildTaskStack                     
000131b1  ti_sysbios_family_arm_TaskSupport_checkStack__E                      
000131c1  ti_sysbios_family_arm_TaskSupport_getStackAlignment__E               
00012a20  ti_sysbios_family_arm_TaskSupport_glue                               
00015e88  ti_sysbios_family_arm_TaskSupport_stackAlignment__C                  
00011c21  ti_sysbios_family_arm_TaskSupport_start__E                           
00012a3c  ti_sysbios_family_arm_TaskSupport_swap__E                            
00015e8c  ti_sysbios_family_arm_exc_Exception_E_dataAbort__C                   
00015e90  ti_sysbios_family_arm_exc_Exception_E_prefetchAbort__C               
00015e94  ti_sysbios_family_arm_exc_Exception_E_swi__C                         
00015e98  ti_sysbios_family_arm_exc_Exception_E_undefinedInstruction__C        
0800e014  ti_sysbios_family_arm_exc_Exception_Module_State_0_excActive__A      
0800dff8  ti_sysbios_family_arm_exc_Exception_Module_State_0_excContext__A     
0800dffc  ti_sysbios_family_arm_exc_Exception_Module_State_0_excStackBuffers__A
0800e018  ti_sysbios_family_arm_exc_Exception_Module_State_0_excStack_0__A     
0800e000  ti_sysbios_family_arm_exc_Exception_Module_State_0_excStack__A       
000151a6  ti_sysbios_family_arm_exc_Exception_Module__id__C                    
0800defc  ti_sysbios_family_arm_exc_Exception_Module__state__V                 
000131d1  ti_sysbios_family_arm_exc_Exception_Module_startup__E                
000039d1  ti_sysbios_family_arm_exc_Exception_excDumpContext__I                
0000a6b4  ti_sysbios_family_arm_exc_Exception_excHandlerAsm__I                 
0000a71c  ti_sysbios_family_arm_exc_Exception_excHandlerDataAsm__I             
00006d01  ti_sysbios_family_arm_exc_Exception_excHandler__I                    
00015e9c  ti_sysbios_family_arm_exc_Exception_excHookFuncs__A                  
00015ea0  ti_sysbios_family_arm_exc_Exception_excHookFuncs__C                  
0000fd28  ti_sysbios_family_arm_exc_Exception_initCore0__I                     
00015ea4  ti_sysbios_family_arm_v7a_Pmu_A_invalidCounterId__C                  
00015ea8  ti_sysbios_family_arm_v7a_Pmu_Module__diagsEnabled__C                
00015eac  ti_sysbios_family_arm_v7a_Pmu_Module__diagsIncluded__C               
00015eb0  ti_sysbios_family_arm_v7a_Pmu_Module__diagsMask__C                   
00015e3a  ti_sysbios_family_arm_v7a_Pmu_Module__id__C                          
0800df58  ti_sysbios_family_arm_v7a_Pmu_Module__state__V                       
000127d1  ti_sysbios_family_arm_v7a_Pmu_Module_startup__E                      
0000c9d4  ti_sysbios_family_arm_v7a_Pmu_configureCounterI__I                   
0000b031  ti_sysbios_family_arm_v7a_Pmu_configureCounter__E                    
000130c0  ti_sysbios_family_arm_v7a_Pmu_disableInterruptI__E                   
000130d0  ti_sysbios_family_arm_v7a_Pmu_enableInterruptI__E                    
00008b18  ti_sysbios_family_arm_v7a_Pmu_getEnabled__E                          
000130e0  ti_sysbios_family_arm_v7a_Pmu_getNumCounters__E                      
00012d60  ti_sysbios_family_arm_v7a_Pmu_initCounters__I                        
000130f0  ti_sysbios_family_arm_v7a_Pmu_startCounterI__E                       
0000d961  ti_sysbios_family_arm_v7a_Pmu_startCounter__E                        
00013100  ti_sysbios_family_arm_v7a_Pmu_stopCounterI__E                        
00015eb4  ti_sysbios_family_arm_v7r_tms570_Core_E_mismatchedIds__C             
00016128  ti_sysbios_family_arm_v7r_tms570_Core_Module__id__C                  
00011171  ti_sysbios_family_arm_v7r_tms570_Core_Module_startup__E              
00010865  ti_sysbios_family_arm_v7r_tms570_Core_getId__E                       
00015eb8  ti_sysbios_family_arm_v7r_tms570_Core_id__C                          
00015ebc  ti_sysbios_family_arm_v7r_vim_Hwi_A_badChannelId__C                  
00015ec0  ti_sysbios_family_arm_v7r_vim_Hwi_E_alreadyDefined__C                
00015ec4  ti_sysbios_family_arm_v7r_vim_Hwi_E_badIntNum__C                     
00015ec8  ti_sysbios_family_arm_v7r_vim_Hwi_E_phantomInterrupt__C              
00015ecc  ti_sysbios_family_arm_v7r_vim_Hwi_E_undefined__C                     
00015ed0  ti_sysbios_family_arm_v7r_vim_Hwi_E_unsupportedMaskingOption__C      
0000ddd1  ti_sysbios_family_arm_v7r_vim_Hwi_Instance_finalize__E               
000086c1  ti_sysbios_family_arm_v7r_vim_Hwi_Instance_init__E                   
00015ed4  ti_sysbios_family_arm_v7r_vim_Hwi_LD_end__C                          
00015ed8  ti_sysbios_family_arm_v7r_vim_Hwi_LM_begin__C                        
0800d45c  ti_sysbios_family_arm_v7r_vim_Hwi_Module_State_0_dispatchTable__A    
08010ce8  ti_sysbios_family_arm_v7r_vim_Hwi_Module_State_0_fiqStack__A         
00015edc  ti_sysbios_family_arm_v7r_vim_Hwi_Module__diagsEnabled__C            
00015ee0  ti_sysbios_family_arm_v7r_vim_Hwi_Module__diagsIncluded__C           
00015ee4  ti_sysbios_family_arm_v7r_vim_Hwi_Module__diagsMask__C               
0001612a  ti_sysbios_family_arm_v7r_vim_Hwi_Module__id__C                      
0001612c  ti_sysbios_family_arm_v7r_vim_Hwi_Module__loggerDefined__C           
00015ee8  ti_sysbios_family_arm_v7r_vim_Hwi_Module__loggerFxn1__C              
00015eec  ti_sysbios_family_arm_v7r_vim_Hwi_Module__loggerFxn8__C              
00015ef0  ti_sysbios_family_arm_v7r_vim_Hwi_Module__loggerObj__C               
0800df74  ti_sysbios_family_arm_v7r_vim_Hwi_Module__root__V                    
00012d79  ti_sysbios_family_arm_v7r_vim_Hwi_Module__startupDone__F             
00012d79  ti_sysbios_family_arm_v7r_vim_Hwi_Module__startupDone__S             
0800dd00  ti_sysbios_family_arm_v7r_vim_Hwi_Module__state__V                   
00009631  ti_sysbios_family_arm_v7r_vim_Hwi_Module_startup__E                  
00015ef4  ti_sysbios_family_arm_v7r_vim_Hwi_NUM_INTERRUPTS__C                  
00015ca8  ti_sysbios_family_arm_v7r_vim_Hwi_Object__DESC__C                    
00015b50  ti_sysbios_family_arm_v7r_vim_Hwi_Object__PARAMS__C                  
000127f1  ti_sysbios_family_arm_v7r_vim_Hwi_Object__delete__S                  
0800dd64  ti_sysbios_family_arm_v7r_vim_Hwi_Object__table__V                   
00012d91  ti_sysbios_family_arm_v7r_vim_Hwi_Params__init__S                    
00015950  ti_sysbios_family_arm_v7r_vim_Hwi_channelMap__A                      
00015ef8  ti_sysbios_family_arm_v7r_vim_Hwi_channelMap__C                      
00012a91  ti_sysbios_family_arm_v7r_vim_Hwi_clearInterrupt__E                  
00010811  ti_sysbios_family_arm_v7r_vim_Hwi_create                             
0000de5d  ti_sysbios_family_arm_v7r_vim_Hwi_delete                             
00012811  ti_sysbios_family_arm_v7r_vim_Hwi_disableInterrupt__E                
00005a61  ti_sysbios_family_arm_v7r_vim_Hwi_dispatchIRQC__I                    
0000d4dc  ti_sysbios_family_arm_v7r_vim_Hwi_dispatchIRQ__I                     
00012831  ti_sysbios_family_arm_v7r_vim_Hwi_enableInterrupt__E                 
00010db1  ti_sysbios_family_arm_v7r_vim_Hwi_getStackInfo__E                    
0000cee1  ti_sysbios_family_arm_v7r_vim_Hwi_initIntController__I               
000116bc  ti_sysbios_family_arm_v7r_vim_Hwi_init__I                            
00015e3c  ti_sysbios_family_arm_v7r_vim_Hwi_intReqEnaSet__A                    
00015efc  ti_sysbios_family_arm_v7r_vim_Hwi_intReqEnaSet__C                    
0000cf81  ti_sysbios_family_arm_v7r_vim_Hwi_mapChannel__I                      
00015f00  ti_sysbios_family_arm_v7r_vim_Hwi_phantomFunc__C                     
0000fd91  ti_sysbios_family_arm_v7r_vim_Hwi_phantomIntHandler__I               
000072f1  ti_sysbios_family_arm_v7r_vim_Hwi_reconfig__E                        
00013221  ti_sysbios_family_arm_v7r_vim_Hwi_startup__E                         
00015f04  ti_sysbios_family_arm_v7r_vim_Hwi_swiDisable__C                      
00015f08  ti_sysbios_family_arm_v7r_vim_Hwi_swiRestoreHwi__C                   
000131e1  ti_sysbios_family_arm_v7r_vim_Hwi_switchFromBootStack__E             
00015f0c  ti_sysbios_family_arm_v7r_vim_Hwi_taskDisable__C                     
00015f10  ti_sysbios_family_arm_v7r_vim_Hwi_taskRestoreHwi__C                  
00000000  ti_sysbios_family_arm_v7r_vim_Hwi_vectors                            
fffffdec  ti_sysbios_family_arm_v7r_vim_Hwi_vim                                
00015e4c  ti_sysbios_family_arm_v7r_vim_Hwi_wakeEnaSet__A                      
00015f14  ti_sysbios_family_arm_v7r_vim_Hwi_wakeEnaSet__C                      
0000d2d0  ti_sysbios_family_xxx_Hwi_switchAndRunDispatchC                      
0000d284  ti_sysbios_family_xxx_Hwi_switchAndRunFunc                           
00012ba5  ti_sysbios_gates_GateHwi_Handle__label__S                            
000132e1  ti_sysbios_gates_GateHwi_Instance_init__E                            
00015bf8  ti_sysbios_gates_GateHwi_Module__FXNS__C                             
0800df7c  ti_sysbios_gates_GateHwi_Module__root__V                             
00015cc8  ti_sysbios_gates_GateHwi_Object__DESC__C                             
00015dc4  ti_sysbios_gates_GateHwi_Object__PARAMS__C                           
00011c51  ti_sysbios_gates_GateHwi_Object__create__S                           
00012851  ti_sysbios_gates_GateHwi_Object__delete__S                           
0800e004  ti_sysbios_gates_GateHwi_Object__table__V                            
00013211  ti_sysbios_gates_GateHwi_enter__E                                    
00013231  ti_sysbios_gates_GateHwi_leave__E                                    
00013271  ti_sysbios_gates_GateHwi_query__E                                    
00015f18  ti_sysbios_gates_GateMutex_A_badContext__C                           
00012bbf  ti_sysbios_gates_GateMutex_Handle__label__S                          
00015f1c  ti_sysbios_gates_GateMutex_Instance_State_sem__O                     
00013111  ti_sysbios_gates_GateMutex_Instance_finalize__E                      
00012ab1  ti_sysbios_gates_GateMutex_Instance_init__E                          
00015c1c  ti_sysbios_gates_GateMutex_Module__FXNS__C                           
00015f20  ti_sysbios_gates_GateMutex_Module__diagsEnabled__C                   
00015f24  ti_sysbios_gates_GateMutex_Module__diagsIncluded__C                  
00015f28  ti_sysbios_gates_GateMutex_Module__diagsMask__C                      
0001612e  ti_sysbios_gates_GateMutex_Module__id__C                             
0800df84  ti_sysbios_gates_GateMutex_Module__root__V                           
00015ce8  ti_sysbios_gates_GateMutex_Object__DESC__C                           
00015ddc  ti_sysbios_gates_GateMutex_Object__PARAMS__C                         
00011c81  ti_sysbios_gates_GateMutex_Object__create__S                         
00012609  ti_sysbios_gates_GateMutex_Object__delete__S                         
0800dc84  ti_sysbios_gates_GateMutex_Object__table__V                          
0000b9d1  ti_sysbios_gates_GateMutex_enter__E                                  
00012ad1  ti_sysbios_gates_GateMutex_leave__E                                  
00013281  ti_sysbios_gates_GateMutex_query__E                                  
00010865  ti_sysbios_hal_Core_CoreProxy_getId__E                               
00015f2c  ti_sysbios_hal_Hwi_E_stackOverflow__C                                
00012d79  ti_sysbios_hal_Hwi_HwiProxy_Module__startupDone__S                   
00012d91  ti_sysbios_hal_Hwi_HwiProxy_Params__init__S                          
00012a91  ti_sysbios_hal_Hwi_HwiProxy_clearInterrupt__E                        
00012811  ti_sysbios_hal_Hwi_HwiProxy_disableInterrupt__E                      
00012831  ti_sysbios_hal_Hwi_HwiProxy_enableInterrupt__E                       
00010db1  ti_sysbios_hal_Hwi_HwiProxy_getStackInfo__E                          
00013221  ti_sysbios_hal_Hwi_HwiProxy_startup__E                               
000131e1  ti_sysbios_hal_Hwi_HwiProxy_switchFromBootStack__E                   
00016130  ti_sysbios_hal_Hwi_Module__id__C                                     
00013051  ti_sysbios_hal_Hwi_Module_startup__E                                 
0800df8c  ti_sysbios_hal_Hwi_Object__table__V                                  
00011701  ti_sysbios_hal_Hwi_checkStack                                        
00012a91  ti_sysbios_hal_Hwi_clearInterrupt__E                                 
00012811  ti_sysbios_hal_Hwi_disableInterrupt__E                               
00012831  ti_sysbios_hal_Hwi_enableInterrupt__E                                
00010db1  ti_sysbios_hal_Hwi_getStackInfo__E                                   
00011af1  ti_sysbios_hal_Hwi_initStack                                         
00013221  ti_sysbios_hal_Hwi_startup__E                                        
000131e1  ti_sysbios_hal_Hwi_switchFromBootStack__E                            
00015f30  ti_sysbios_heaps_HeapBuf_Instance_State_freeList__O                  
0800e008  ti_sysbios_heaps_HeapBuf_Module__state__V                            
00009811  ti_sysbios_heaps_HeapBuf_Module_startup__E                           
00015f34  ti_sysbios_heaps_HeapBuf_Object__count__C                            
00013121  ti_sysbios_heaps_HeapBuf_Object__get__S                              
00015f38  ti_sysbios_heaps_HeapBuf_numConstructedHeaps__C                      
00015f3c  ti_sysbios_heaps_HeapMem_A_align__C                                  
00015f40  ti_sysbios_heaps_HeapMem_A_heapSize__C                               
00015f44  ti_sysbios_heaps_HeapMem_A_invalidFree__C                            
00015f48  ti_sysbios_heaps_HeapMem_A_zeroBlock__C                              
00015f4c  ti_sysbios_heaps_HeapMem_E_memory__C                                 
00012bd9  ti_sysbios_heaps_HeapMem_Handle__label__S                            
08000000  ti_sysbios_heaps_HeapMem_Instance_State_0_buf__A                     
00007ae1  ti_sysbios_heaps_HeapMem_Instance_init__E                            
00012bbf  ti_sysbios_heaps_HeapMem_Module_GateProxy_Handle__label__S           
0000e6ad  ti_sysbios_heaps_HeapMem_Module_GateProxy_enter__E                   
0000f2cd  ti_sysbios_heaps_HeapMem_Module_GateProxy_leave__E                   
00013281  ti_sysbios_heaps_HeapMem_Module_GateProxy_query__E                   
00015bac  ti_sysbios_heaps_HeapMem_Module__FXNS__C                             
00015f50  ti_sysbios_heaps_HeapMem_Module__diagsEnabled__C                     
00015f54  ti_sysbios_heaps_HeapMem_Module__diagsIncluded__C                    
00015f58  ti_sysbios_heaps_HeapMem_Module__diagsMask__C                        
00015f5c  ti_sysbios_heaps_HeapMem_Module__gateObj__C                          
00016132  ti_sysbios_heaps_HeapMem_Module__id__C                               
0800df94  ti_sysbios_heaps_HeapMem_Module__root__V                             
00015d08  ti_sysbios_heaps_HeapMem_Object__DESC__C                             
00015c40  ti_sysbios_heaps_HeapMem_Object__PARAMS__C                           
00015f60  ti_sysbios_heaps_HeapMem_Object__count__C                            
00011cb1  ti_sysbios_heaps_HeapMem_Object__create__S                           
00012871  ti_sysbios_heaps_HeapMem_Object__delete__S                           
00012fc1  ti_sysbios_heaps_HeapMem_Object__get__S                              
0800deb8  ti_sysbios_heaps_HeapMem_Object__table__V                            
00004811  ti_sysbios_heaps_HeapMem_allocUnprotected__E                         
0000ffa1  ti_sysbios_heaps_HeapMem_alloc__E                                    
000034a1  ti_sysbios_heaps_HeapMem_freeUnprotected__E                          
00011ce1  ti_sysbios_heaps_HeapMem_free__E                                     
00010871  ti_sysbios_heaps_HeapMem_getStats__E                                 
00011741  ti_sysbios_heaps_HeapMem_init__I                                     
00013241  ti_sysbios_heaps_HeapMem_isBlocking__E                               
00015f64  ti_sysbios_heaps_HeapMem_reqAlign__C                                 
00015f68  ti_sysbios_knl_Clock_LM_begin__C                                     
00015f6c  ti_sysbios_knl_Clock_LM_tick__C                                      
00015f70  ti_sysbios_knl_Clock_LW_delayed__C                                   
00015f74  ti_sysbios_knl_Clock_Module_State_clockQ__O                          
00015f78  ti_sysbios_knl_Clock_Module__diagsEnabled__C                         
00015f7c  ti_sysbios_knl_Clock_Module__diagsIncluded__C                        
00015f80  ti_sysbios_knl_Clock_Module__diagsMask__C                            
00016134  ti_sysbios_knl_Clock_Module__id__C                                   
00016136  ti_sysbios_knl_Clock_Module__loggerDefined__C                        
00015f84  ti_sysbios_knl_Clock_Module__loggerFxn1__C                           
00015f88  ti_sysbios_knl_Clock_Module__loggerFxn2__C                           
00015f8c  ti_sysbios_knl_Clock_Module__loggerObj__C                            
0800dd90  ti_sysbios_knl_Clock_Module__state__V                                
00012631  ti_sysbios_knl_Clock_Module_startup__E                               
00012df9  ti_sysbios_knl_Clock_TimerProxy_Module__startupDone__S               
0000fd8d  ti_sysbios_knl_Clock_TimerProxy_getMaxTicks__E                       
0000b341  ti_sysbios_knl_Clock_TimerProxy_startup__E                           
00012011  ti_sysbios_knl_Clock_doTick__I                                       
0000fe01  ti_sysbios_knl_Clock_logTick__E                                      
00007d61  ti_sysbios_knl_Clock_workFunc__E                                     
00015f90  ti_sysbios_knl_Event_A_badContext__C                                 
00015f94  ti_sysbios_knl_Event_A_eventInUse__C                                 
00015f98  ti_sysbios_knl_Event_A_nullEventId__C                                
00015f9c  ti_sysbios_knl_Event_A_nullEventMasks__C                             
00015fa0  ti_sysbios_knl_Event_A_pendTaskDisabled__C                           
00015fa4  ti_sysbios_knl_Event_Instance_State_pendQ__O                         
00012fe1  ti_sysbios_knl_Event_Instance_init__E                                
00015fa8  ti_sysbios_knl_Event_LM_pend__C                                      
00015fac  ti_sysbios_knl_Event_LM_post__C                                      
00015fb0  ti_sysbios_knl_Event_Module__diagsEnabled__C                         
00015fb4  ti_sysbios_knl_Event_Module__diagsIncluded__C                        
00015fb8  ti_sysbios_knl_Event_Module__diagsMask__C                            
00016138  ti_sysbios_knl_Event_Module__id__C                                   
0001613a  ti_sysbios_knl_Event_Module__loggerDefined__C                        
00015fbc  ti_sysbios_knl_Event_Module__loggerFxn4__C                           
00015fc0  ti_sysbios_knl_Event_Module__loggerFxn8__C                           
00015fc4  ti_sysbios_knl_Event_Module__loggerObj__C                            
0800df9c  ti_sysbios_knl_Event_Module__root__V                                 
00015d28  ti_sysbios_knl_Event_Object__DESC__C                                 
00015df4  ti_sysbios_knl_Event_Object__PARAMS__C                               
00011d11  ti_sysbios_knl_Event_create                                          
00011da1  ti_sysbios_knl_Event_pendTimeout__I                                  
00002541  ti_sysbios_knl_Event_pend__E                                         
00007001  ti_sysbios_knl_Event_post__E                                         
00015e5c  ti_sysbios_knl_Idle_funcList__A                                      
00015e64  ti_sysbios_knl_Idle_funcList__C                                      
00012e71  ti_sysbios_knl_Idle_loop__E                                          
00012271  ti_sysbios_knl_Idle_run__E                                           
0000a504  ti_sysbios_knl_Intrinsics_SupportProxy_maxbit__E                     
0000a504  ti_sysbios_knl_Intrinsics_maxbit__E                                  
00013251  ti_sysbios_knl_Queue_Instance_init__E                                
0800dfa4  ti_sysbios_knl_Queue_Module__root__V                                 
00015d48  ti_sysbios_knl_Queue_Object__DESC__C                                 
00015e0c  ti_sysbios_knl_Queue_Object__PARAMS__C                               
0000cbc5  ti_sysbios_knl_Queue_Object__get__S                                  
0001203d  ti_sysbios_knl_Queue_construct                                       
00012aed  ti_sysbios_knl_Queue_destruct                                        
000131a1  ti_sysbios_knl_Queue_empty__E                                        
00015fc8  ti_sysbios_knl_Semaphore_A_badContext__C                             
00015fcc  ti_sysbios_knl_Semaphore_A_noEvents__C                               
00015fd0  ti_sysbios_knl_Semaphore_A_overflow__C                               
00015fd4  ti_sysbios_knl_Semaphore_A_pendTaskDisabled__C                       
00015fd8  ti_sysbios_knl_Semaphore_Instance_State_pendQ__O                     
00013131  ti_sysbios_knl_Semaphore_Instance_finalize__E                        
0000d021  ti_sysbios_knl_Semaphore_Instance_init__E                            
00015fdc  ti_sysbios_knl_Semaphore_LM_pend__C                                  
00015fe0  ti_sysbios_knl_Semaphore_LM_post__C                                  
00015fe4  ti_sysbios_knl_Semaphore_Module__diagsEnabled__C                     
00015fe8  ti_sysbios_knl_Semaphore_Module__diagsIncluded__C                    
00015fec  ti_sysbios_knl_Semaphore_Module__diagsMask__C                        
0001613c  ti_sysbios_knl_Semaphore_Module__id__C                               
0001613e  ti_sysbios_knl_Semaphore_Module__loggerDefined__C                    
00015ff0  ti_sysbios_knl_Semaphore_Module__loggerFxn2__C                       
00015ff4  ti_sysbios_knl_Semaphore_Module__loggerFxn4__C                       
00015ff8  ti_sysbios_knl_Semaphore_Module__loggerObj__C                        
0800dfac  ti_sysbios_knl_Semaphore_Module__root__V                             
00015d68  ti_sysbios_knl_Semaphore_Object__DESC__C                             
00015c64  ti_sysbios_knl_Semaphore_Object__PARAMS__C                           
00012655  ti_sysbios_knl_Semaphore_Object__delete__S                           
00012da9  ti_sysbios_knl_Semaphore_Params__init__S                             
00011d41  ti_sysbios_knl_Semaphore_construct                                   
00011a49  ti_sysbios_knl_Semaphore_create                                      
00010985  ti_sysbios_knl_Semaphore_delete                                      
00012891  ti_sysbios_knl_Semaphore_destruct                                    
00011dd1  ti_sysbios_knl_Semaphore_pendTimeout__I                              
000028e1  ti_sysbios_knl_Semaphore_pend__E                                     
00006e81  ti_sysbios_knl_Semaphore_post__E                                     
00015ffc  ti_sysbios_knl_Swi_LD_end__C                                         
00016000  ti_sysbios_knl_Swi_LM_begin__C                                       
00016004  ti_sysbios_knl_Swi_LM_post__C                                        
0800d930  ti_sysbios_knl_Swi_Module_State_0_readyQ__A                          
00016008  ti_sysbios_knl_Swi_Module__diagsEnabled__C                           
0001600c  ti_sysbios_knl_Swi_Module__diagsIncluded__C                          
00016010  ti_sysbios_knl_Swi_Module__diagsMask__C                              
00016140  ti_sysbios_knl_Swi_Module__id__C                                     
00016142  ti_sysbios_knl_Swi_Module__loggerDefined__C                          
00016014  ti_sysbios_knl_Swi_Module__loggerFxn1__C                             
00016018  ti_sysbios_knl_Swi_Module__loggerFxn4__C                             
0001601c  ti_sysbios_knl_Swi_Module__loggerObj__C                              
0800de6c  ti_sysbios_knl_Swi_Module__state__V                                  
00012071  ti_sysbios_knl_Swi_Module_startup__E                                 
00016020  ti_sysbios_knl_Swi_Object__count__C                                  
00012ff5  ti_sysbios_knl_Swi_Object__get__S                                    
0800dd34  ti_sysbios_knl_Swi_Object__table__V                                  
00013141  ti_sysbios_knl_Swi_disable__E                                        
0000c4b1  ti_sysbios_knl_Swi_post__E                                           
00010611  ti_sysbios_knl_Swi_restoreHwi__E                                     
000108d1  ti_sysbios_knl_Swi_runLoop__I                                        
000087e1  ti_sysbios_knl_Swi_run__I                                            
0000fa61  ti_sysbios_knl_Swi_schedule__I                                       
00010931  ti_sysbios_knl_Swi_startup__E                                        
00016024  ti_sysbios_knl_Task_A_badPriority__C                                 
00016028  ti_sysbios_knl_Task_A_badTaskState__C                                
0001602c  ti_sysbios_knl_Task_A_badThreadType__C                               
00016030  ti_sysbios_knl_Task_A_badTimeout__C                                  
00016034  ti_sysbios_knl_Task_A_noPendElem__C                                  
00016038  ti_sysbios_knl_Task_A_sleepTaskDisabled__C                           
0001603c  ti_sysbios_knl_Task_E_spOutOfBounds__C                               
00016040  ti_sysbios_knl_Task_E_stackOverflow__C                               
0800f018  ti_sysbios_knl_Task_Instance_State_0_stack__A                        
00003c51  ti_sysbios_knl_Task_Instance_finalize__E                             
00006001  ti_sysbios_knl_Task_Instance_init__E                                 
00016044  ti_sysbios_knl_Task_LD_block__C                                      
00016048  ti_sysbios_knl_Task_LD_exit__C                                       
0001604c  ti_sysbios_knl_Task_LD_ready__C                                      
00016050  ti_sysbios_knl_Task_LM_sleep__C                                      
00016054  ti_sysbios_knl_Task_LM_switch__C                                     
0800e00c  ti_sysbios_knl_Task_Module_State_0_idleTask__A                       
0800d9b0  ti_sysbios_knl_Task_Module_State_0_readyQ__A                         
00016058  ti_sysbios_knl_Task_Module_State_inactiveQ__O                        
0001605c  ti_sysbios_knl_Task_Module__diagsEnabled__C                          
00016060  ti_sysbios_knl_Task_Module__diagsIncluded__C                         
00016064  ti_sysbios_knl_Task_Module__diagsMask__C                             
00016144  ti_sysbios_knl_Task_Module__id__C                                    
00016146  ti_sysbios_knl_Task_Module__loggerDefined__C                         
00016068  ti_sysbios_knl_Task_Module__loggerFxn2__C                            
0001606c  ti_sysbios_knl_Task_Module__loggerFxn4__C                            
00016070  ti_sysbios_knl_Task_Module__loggerObj__C                             
0800dfb4  ti_sysbios_knl_Task_Module__root__V                                  
0800dbfc  ti_sysbios_knl_Task_Module__state__V                                 
00005c51  ti_sysbios_knl_Task_Module_startup__E                                
00015d88  ti_sysbios_knl_Task_Object__DESC__C                                  
00015aa0  ti_sysbios_knl_Task_Object__PARAMS__C                                
00016074  ti_sysbios_knl_Task_Object__count__C                                 
00013151  ti_sysbios_knl_Task_Object__get__S                                   
0800daa8  ti_sysbios_knl_Task_Object__table__V                                 
00012dc1  ti_sysbios_knl_Task_Params__init__S                                  
0000ddcd  ti_sysbios_knl_Task_SupportProxy_Module__startupDone__S              
000131b1  ti_sysbios_knl_Task_SupportProxy_checkStack__E                       
000131c1  ti_sysbios_knl_Task_SupportProxy_getStackAlignment__E                
00011c21  ti_sysbios_knl_Task_SupportProxy_start__E                            
00012a3c  ti_sysbios_knl_Task_SupportProxy_swap__E                             
00016078  ti_sysbios_knl_Task_allBlockedFunc__C                                
000111c1  ti_sysbios_knl_Task_allBlockedFunction__I                            
0000cbd1  ti_sysbios_knl_Task_blockI__E                                        
0000a9f1  ti_sysbios_knl_Task_checkStacks__E                                   
00010dfd  ti_sysbios_knl_Task_create                                           
0001607c  ti_sysbios_knl_Task_defaultStackHeap__C                              
00016080  ti_sysbios_knl_Task_defaultStackSize__C                              
00013161  ti_sysbios_knl_Task_disable__E                                       
00012de1  ti_sysbios_knl_Task_enter__I                                         
0000a431  ti_sysbios_knl_Task_exit__E                                          
00016084  ti_sysbios_knl_Task_numConstructedTasks__C                           
0000ade1  ti_sysbios_knl_Task_postInit__I                                      
00012681  ti_sysbios_knl_Task_restoreHwi__E                                    
0000a511  ti_sysbios_knl_Task_schedule__I                                      
00012e91  ti_sysbios_knl_Task_sleepTimeout__I                                  
00004a41  ti_sysbios_knl_Task_sleep__E                                         
0000ba91  ti_sysbios_knl_Task_startCore__E                                     
00013291  ti_sysbios_knl_Task_startup__E                                       
0000d9f1  ti_sysbios_knl_Task_unblockI__E                                      
00016088  ti_sysbios_timers_rti_Timer_E_cannotSupport__C                       
0800ded0  ti_sysbios_timers_rti_Timer_Module_State_0_device__A                 
0800dfbc  ti_sysbios_timers_rti_Timer_Module_State_0_handles__A                
0800df20  ti_sysbios_timers_rti_Timer_Module_State_0_intFreqs__A               
0001608c  ti_sysbios_timers_rti_Timer_Module__diagsEnabled__C                  
00016090  ti_sysbios_timers_rti_Timer_Module__diagsIncluded__C                 
00016094  ti_sysbios_timers_rti_Timer_Module__diagsMask__C                     
00016148  ti_sysbios_timers_rti_Timer_Module__id__C                            
00012df9  ti_sysbios_timers_rti_Timer_Module__startupDone__F                   
00012df9  ti_sysbios_timers_rti_Timer_Module__startupDone__S                   
0800df30  ti_sysbios_timers_rti_Timer_Module__state__V                         
000069f1  ti_sysbios_timers_rti_Timer_Module_startup__E                        
0800dcc4  ti_sysbios_timers_rti_Timer_Object__table__V                         
0001614a  ti_sysbios_timers_rti_Timer_continueOnSuspend__C                     
00008e41  ti_sysbios_timers_rti_Timer_getFreq__E                               
000132a1  ti_sysbios_timers_rti_Timer_getMaxTicks__E                           
0000e6b1  ti_sysbios_timers_rti_Timer_initDevice__I                            
00016098  ti_sysbios_timers_rti_Timer_numTimerDevices__C                       
000120a1  ti_sysbios_timers_rti_Timer_periodicStub__E                          
00011781  ti_sysbios_timers_rti_Timer_setPeriod__E                             
0001609c  ti_sysbios_timers_rti_Timer_startupNeeded__C                         
0000b341  ti_sysbios_timers_rti_Timer_startup__E                               
00011321  ti_sysbios_timers_rti_Timer_stop__E                                  
00011fe5  unlink                                                               
0000e195  vsnprintf                                                            
0001223d  write                                                                
000160a0  xdc_runtime_Assert_E_assertFailed__C                                 
00010001  xdc_runtime_Assert_raise__I                                          
000160a4  xdc_runtime_Core_A_initializedParams__C                              
000160a8  xdc_runtime_Core_Module__diagsEnabled__C                             
000160ac  xdc_runtime_Core_Module__diagsIncluded__C                            
000160b0  xdc_runtime_Core_Module__diagsMask__C                                
0001614c  xdc_runtime_Core_Module__id__C                                       
00010991  xdc_runtime_Core_assignLabel__I                                      
00010ea1  xdc_runtime_Core_assignParams__I                                     
00008b21  xdc_runtime_Core_constructObject__I                                  
00007c21  xdc_runtime_Core_createObject__I                                     
0000e9a1  xdc_runtime_Core_deleteObject__I                                     
000160b4  xdc_runtime_Error_E_memory__C                                        
0800de2c  xdc_runtime_Error_IgnoreBlock                                        
000160b8  xdc_runtime_Error_Module__diagsEnabled__C                            
000160bc  xdc_runtime_Error_Module__diagsIncluded__C                           
000160c0  xdc_runtime_Error_Module__diagsMask__C                               
0001614e  xdc_runtime_Error_Module__loggerDefined__C                           
000160c4  xdc_runtime_Error_Module__loggerFxn8__C                              
000160c8  xdc_runtime_Error_Module__loggerObj__C                               
0800e016  xdc_runtime_Error_Module__state__V                                   
00012e11  xdc_runtime_Error_init__E                                            
00016150  xdc_runtime_Error_maxDepth__C                                        
000066d1  xdc_runtime_Error_policyDefault__E                                   
000160cc  xdc_runtime_Error_policyFxn__C                                       
000160d0  xdc_runtime_Error_policy__C                                          
0000f2d1  xdc_runtime_Error_print__E                                           
000160d4  xdc_runtime_Error_raiseHook__C                                       
000160d8  xdc_runtime_IGateProvider_Interface__BASE__C                         
000160dc  xdc_runtime_IHeap_Interface__BASE__C                                 
000160e0  xdc_runtime_IModule_Interface__BASE__C                               
000160e4  xdc_runtime_Log_L_error__C                                           
00012ba5  xdc_runtime_Main_Module_GateProxy_Handle__label__S                   
00013271  xdc_runtime_Main_Module_GateProxy_query__E                           
00016152  xdc_runtime_Main_Module__id__C                                       
00012bd9  xdc_runtime_Memory_HeapProxy_Handle__label__S                        
000108c5  xdc_runtime_Memory_HeapProxy_alloc__E                                
00010925  xdc_runtime_Memory_HeapProxy_free__E                                 
00016154  xdc_runtime_Memory_Module__id__C                                     
0800e010  xdc_runtime_Memory_Module__state__V                                  
0000de61  xdc_runtime_Memory_alloc__E                                          
000160e8  xdc_runtime_Memory_defaultHeapInstance__C                            
00013171  xdc_runtime_Memory_free__E                                           
0800dfc4  xdc_runtime_Registry_Module__state__V                                
0800dfcc  xdc_runtime_Startup_Module__state__V                                 
00000001  xdc_runtime_Startup__EXECFXN__C                                      
00000001  xdc_runtime_Startup__RESETFXN__C                                     
000160ec  xdc_runtime_Startup_execImpl__C                                      
0000fe71  xdc_runtime_Startup_exec__E                                          
00013063  xdc_runtime_Startup_exec__I                                          
00015e6c  xdc_runtime_Startup_firstFxns__A                                     
00015e74  xdc_runtime_Startup_firstFxns__C                                     
00015e7c  xdc_runtime_Startup_lastFxns__C                                      
000160f0  xdc_runtime_Startup_maxPasses__C                                     
0000bbf7  xdc_runtime_Startup_reset__I                                         
000131f1  xdc_runtime_Startup_rtsDone__E                                       
00015e24  xdc_runtime_Startup_sfxnRts__A                                       
000160f4  xdc_runtime_Startup_sfxnRts__C                                       
00015b80  xdc_runtime_Startup_sfxnTab__A                                       
000160f8  xdc_runtime_Startup_sfxnTab__C                                       
00007ea1  xdc_runtime_Startup_startMods__I                                     
000122a1  xdc_runtime_SysStd_abort__E                                          
00013201  xdc_runtime_SysStd_exit__E                                           
000132b1  xdc_runtime_SysStd_putch__E                                          
000132c1  xdc_runtime_SysStd_ready__E                                          
00012ba5  xdc_runtime_System_Module_GateProxy_Handle__label__S                 
00010989  xdc_runtime_System_Module_GateProxy_enter__E                         
0001098d  xdc_runtime_System_Module_GateProxy_leave__E                         
00013271  xdc_runtime_System_Module_GateProxy_query__E                         
0800de4c  xdc_runtime_System_Module_State_0_atexitHandlers__A                  
000160fc  xdc_runtime_System_Module__gateObj__C                                
0800dfd4  xdc_runtime_System_Module__state__V                                  
00013261  xdc_runtime_System_Module_startup__E                                 
000122a1  xdc_runtime_System_SupportProxy_abort__E                             
00013201  xdc_runtime_System_SupportProxy_exit__E                              
000132b1  xdc_runtime_System_SupportProxy_putch__E                             
000132c1  xdc_runtime_System_SupportProxy_ready__E                             
00016100  xdc_runtime_System_abortFxn__C                                       
00010bc9  xdc_runtime_System_abortStd__E                                       
00012bf3  xdc_runtime_System_aprintf__E                                        
000122d1  xdc_runtime_System_aprintf_va__F                                     
00011211  xdc_runtime_System_atexit__E                                         
000017d1  xdc_runtime_System_doPrint__I                                        
00016104  xdc_runtime_System_exitFxn__C                                        
00010bd1  xdc_runtime_System_exitStd__E                                        
00010c71  xdc_runtime_System_exit__E                                           
00016108  xdc_runtime_System_extendFxn__C                                      
0001610c  xdc_runtime_System_maxAtexitHandlers__C                              
00009531  xdc_runtime_System_printfExtend__I                                   
00012c0d  xdc_runtime_System_printf__E                                         
00012431  xdc_runtime_System_printf_va__F                                      
00016156  xdc_runtime_Text_charCnt__C                                          
000132e8  xdc_runtime_Text_charTab__A                                          
00016110  xdc_runtime_Text_charTab__C                                          
00016158  xdc_runtime_Text_isLoaded__C                                         
00016114  xdc_runtime_Text_nameEmpty__C                                        
00016118  xdc_runtime_Text_nameStatic__C                                       
0001611c  xdc_runtime_Text_nameUnknown__C                                      
00015740  xdc_runtime_Text_nodeTab__A                                          
00016120  xdc_runtime_Text_nodeTab__C                                          
00011d71  xdc_runtime_Text_printVisFxn__I                                      
00010061  xdc_runtime_Text_putLab__E                                           
0000bd61  xdc_runtime_Text_putMod__E                                           
0000c9e1  xdc_runtime_Text_putSite__E                                          
0001615a  xdc_runtime_Text_registryModsLastId__C                               
0001615c  xdc_runtime_Text_unnamedModsLastId__C                                
0000f341  xdc_runtime_Text_visitRope2__I                                       
00016124  xdc_runtime_Text_visitRopeFxn__C                                     
00013181  xdc_runtime_Text_visitRope__I                                        
00010ef1  xdc_runtime_Text_xprintf__I                                          


GLOBAL SYMBOLS: SORTED BY Symbol Address 

address   name                                                                 
-------   ----                                                                 
00000000  __ASM__                                                              
00000000  ti_sysbios_family_arm_v7r_vim_Hwi_vectors                            
00000001  xdc_runtime_Startup__EXECFXN__C                                      
00000001  xdc_runtime_Startup__RESETFXN__C                                     
000000a9  __ISA__                                                              
000000bb  __PLAT__                                                             
000000df  __TARG__                                                             
00000106  __TRDR__                                                             
000008c5  __TI_printfi                                                         
00001000  __STACK_SIZE                                                         
0000117d  MmwDemo_CLIInit                                                      
000017cb  HwiP_restore                                                         
000017d1  xdc_runtime_System_doPrint__I                                        
00001cb5  MmwDemo_mssInitTask                                                  
00002541  ti_sysbios_knl_Event_pend__E                                         
000028d5  CLI_getMMWaveExtensionConfig                                         
000028e1  ti_sysbios_knl_Semaphore_pend__E                                     
00002bf1  SOC_deviceInit                                                       
000031e0  __aeabi_uldivmod                                                     
00003499  HwiP_disable                                                         
000034a1  ti_sysbios_heaps_HeapMem_freeUnprotected__E                          
00003745  MMWave_deviceExecuteFxn                                              
000039c9  MMWave_decodeErrorLevel                                              
000039d1  ti_sysbios_family_arm_exc_Exception_excDumpContext__I                
00003c51  ti_sysbios_knl_Task_Instance_finalize__E                             
00003eb9  Mailbox_open                                                         
00004119  exp                                                                  
00004119  expl                                                                 
000045c5  MmwDemo_mssCtrlPathTask                                              
00004811  ti_sysbios_heaps_HeapMem_allocUnprotected__E                         
00004a39  SemaphoreP_Params_init                                               
00004a41  ti_sysbios_knl_Task_sleep__E                                         
00004e75  MmwDemo_mssDataPathConfig                                            
00005289  CRC_open                                                             
00005681  DMA_setChannelParams                                                 
00005871  strtod                                                               
00005871  strtold                                                              
00005a61  ti_sysbios_family_arm_v7r_vim_Hwi_dispatchIRQC__I                    
00005c45  MMWave_osalMutexUnlock                                               
00005c51  ti_sysbios_knl_Task_Module_startup__E                                
00005ef7  __TI_cleanup                                                         
00005f23  freopen                                                              
00005f4d  fopen                                                                
00005ff5  MMWave_osalSemSignal                                                 
00006001  ti_sysbios_knl_Task_Instance_init__E                                 
000061c9  MmwDemo_bpmConfig                                                    
000066c5  MmwDemo_mboxCallback                                                 
000066d1  xdc_runtime_Error_policyDefault__E                                   
0000686d  rlDriverCmdInvoke                                                    
000069f1  ti_sysbios_timers_rti_Timer_Module_startup__E                        
00006b75  rlDriverRxHdrRead                                                    
00006cf5  UART_Params_init                                                     
00006d01  ti_sysbios_family_arm_exc_Exception_excHandler__I                    
00006e7d  HwiP_disableInterrupt                                                
00006e81  ti_sysbios_knl_Semaphore_post__E                                     
00007001  ti_sysbios_knl_Event_post__E                                         
00007175  GPIO_setConfig                                                       
000072e5  UartSci_isDMAEnabled                                                 
000072f1  ti_sysbios_family_arm_v7r_vim_Hwi_reconfig__E                        
00007451  main                                                                 
00007adb  rlGetSubBlockId                                                      
00007ae1  ti_sysbios_heaps_HeapMem_Instance_init__E                            
00007c21  xdc_runtime_Core_createObject__I                                     
00007d61  ti_sysbios_knl_Clock_workFunc__E                                     
00007ea1  xdc_runtime_Startup_startMods__I                                     
00007fd5  postProcessing                                                       
00008101  MMWave_openLink                                                      
00008229  rlDriverMsgRead                                                      
000086b9  rlDriverConstructOutMsg                                              
000086c1  ti_sysbios_family_arm_v7r_vim_Hwi_Instance_init__E                   
000087d9  rlDriverGetHandle                                                    
000087e1  ti_sysbios_knl_Swi_run__I                                            
000088f9  rlDriverCmdSendRetry                                                 
00008a0d  MMWave_deviceInitFxn                                                 
00008b18  ti_sysbios_family_arm_v7a_Pmu_getEnabled__E                          
00008b21  xdc_runtime_Core_constructObject__I                                  
00008c2d  Mailbox_write                                                        
00008d35  MmwDemo_mssMmwaveEventCallbackFxn                                    
00008e3d  MMWave_listGetHead                                                   
00008e41  ti_sysbios_timers_rti_Timer_getFreq__E                               
00009045  MMWave_startLink                                                     
00009145  CRC_computeSignature                                                 
00009241  DMA_disableInterrupt                                                 
0000933d  rlDriverInit                                                         
00009439  rlDriverRdVerifyMsg                                                  
00009531  xdc_runtime_System_printfExtend__I                                   
00009629  rlGetSubBlockLen                                                     
00009631  ti_sysbios_family_arm_v7r_vim_Hwi_Module_startup__E                  
00009721  ldexp                                                                
00009721  ldexpl                                                               
00009721  scalbn                                                               
00009721  scalbnl                                                              
0000980d  MMWave_listGetNext                                                   
00009811  ti_sysbios_heaps_HeapBuf_Module_startup__E                           
000098fd  CLI_open                                                             
000099e5  Inference                                                            
00009acd  DMA_clearChannelInterruptFlag                                        
00009d71  setvbuf                                                              
00009e4d  correlation_function                                                 
00009f27  __aeabi_idiv0                                                        
00009f29  DMA_enableInterrupt                                                  
0000a001  MMWave_init                                                          
0000a1b1  Mailbox_read                                                         
0000a285  MmwDemo_mssDataPathStop                                              
0000a359  rlSetMultiBpmChirpConfig                                             
0000a431  ti_sysbios_knl_Task_exit__E                                          
0000a504  ti_sysbios_family_arm_IntrinsicsSupport_maxbitA__I                   
0000a504  ti_sysbios_family_arm_IntrinsicsSupport_maxbit__E                    
0000a504  ti_sysbios_knl_Intrinsics_SupportProxy_maxbit__E                     
0000a504  ti_sysbios_knl_Intrinsics_maxbit__E                                  
0000a511  ti_sysbios_knl_Task_schedule__I                                      
0000a5e5  SOC_controlSecureFirewall                                            
0000a6b4  ti_sysbios_family_arm_exc_Exception_excHandlerAsm__I                 
0000a71c  ti_sysbios_family_arm_exc_Exception_excHandlerDataAsm__I             
0000a785  rlRfCalibDataRestore                                                 
0000a851  rlSetChirpConfig                                                     
0000a91d  __TI_doflush                                                         
0000a969  fflush                                                               
0000a9f1  ti_sysbios_knl_Task_checkStacks__E                                   
0000aabd  MMWave_addChirp                                                      
0000ab85  MMWave_configBPM                                                     
0000ac4d  MMWave_flushCfg                                                      
0000ad15  MMWave_getChirpHandle                                                
0000ade1  ti_sysbios_knl_Task_postInit__I                                      
0000b031  ti_sysbios_family_arm_v7a_Pmu_configureCounter__E                    
0000b1b5  rlDriverMsgWrite                                                     
0000b275  rlSetFrameConfig                                                     
0000b335  __TI_zero_init                                                       
0000b341  ti_sysbios_knl_Clock_TimerProxy_startup__E                           
0000b341  ti_sysbios_timers_rti_Timer_startup__E                               
0000b401  GPIO_write                                                           
0000b6f1  open                                                                 
0000b865  SOC_MPUEnable                                                        
0000b883  SOC_MPUDisable                                                       
0000b8a1  SOC_MPUEnableBackgroundRegion                                        
0000b8b7  SOC_MPUDisableBackgroundRegion                                       
0000b8cd  SOC_MPUGetNumberOfRegions                                            
0000b8d7  SOC_MPUAreRegionsSeparate                                            
0000b8df  SOC_MPUSetRegion                                                     
0000b8e5  SOC_MPUGetRegion                                                     
0000b8eb  SOC_MPUSetRegionBaseAddress                                          
0000b8f1  SOC_MPUGetRegionBaseAddress                                          
0000b8f7  SOC_MPUSetRegionTypeAndPermission                                    
0000b901  SOC_MPUGetRegionType                                                 
0000b90b  SOC_MPUGetRegionPermission                                           
0000b915  SOC_MPUSetRegionSizeRegister                                         
0000b91b  ti_sysbios_BIOS_nullFunc__I                                          
0000b91d  MmwDemo_mssDataPathStart                                             
0000b9d1  ti_sysbios_gates_GateMutex_enter__E                                  
0000ba85  rlDriverGetPlatformId                                                
0000ba91  ti_sysbios_knl_Task_startCore__E                                     
0000bb45  UartSci_openDMA                                                      
0000bbf7  xdc_runtime_Startup_reset__I                                         
0000bbf9  MMWave_addProfile                                                    
0000bca9  rlSetProfileConfig                                                   
0000bd5d  MmwDemo_sleep                                                        
0000bd61  xdc_runtime_Text_putMod__E                                           
0000be11  __TI_wrt_ok                                                          
0000be75  __TI_rd_ok                                                           
0000bec1  ESM_processInterrupt                                                 
0000c019  CLI_MMWaveExtensionHelp                                              
0000c169  MMWave_getBpmChirpHandle                                             
0000c2b9  Pinmux_Set_OverrideCtrl                                              
0000c361  rlSetAdvFrameConfig                                                  
0000c409  runPeopleDetection                                                   
0000c4b1  ti_sysbios_knl_Swi_post__E                                           
0000c559  DMA_assignChannel                                                    
0000c5fd  DMA_getChannelInterruptFlag                                          
0000c6a1  ESM_init                                                             
0000c745  MMWave_addBpmChirp                                                   
0000c7e9  MMWave_start                                                         
0000c88d  MmwDemo_waitSensorStopComplete                                       
0000c9d4  ti_sysbios_family_arm_v7a_Pmu_configureCounterI__I                   
0000c9e1  xdc_runtime_Text_putSite__E                                          
0000ca85  __TI_auto_init                                                       
0000cb25  rlDriverWaitForResponse                                              
0000cbc5  ti_sysbios_knl_Queue_Object__get__S                                  
0000cbd1  ti_sysbios_knl_Task_blockI__E                                        
0000cc71  MMWave_configLink                                                    
0000cd0d  MMWave_getProfileHandle                                              
0000ce45  __aeabi_memcpy                                                       
0000ce45  __aeabi_memcpy4                                                      
0000ce45  __aeabi_memcpy8                                                      
0000ce45  memcpy                                                               
0000cee1  ti_sysbios_family_arm_v7r_vim_Hwi_initIntController__I               
0000cf7d  SOC_isSecureDevice                                                   
0000cf81  ti_sysbios_family_arm_v7r_vim_Hwi_mapChannel__I                      
0000d01d  ti_sysbios_BIOS_RtsGateProxy_enter__E                                
0000d021  ti_sysbios_knl_Semaphore_Instance_init__E                            
0000d0bd  MMWave_getChirpCfg                                                   
0000d155  __TI_closefile                                                       
0000d1bb  fclose                                                               
0000d1ed  fputc                                                                
0000d1ed  putc                                                                 
0000d273  putchar                                                              
0000d284  ti_sysbios_family_xxx_Hwi_switchAndRunFunc                           
0000d2d0  ti_sysbios_family_xxx_Hwi_switchAndRunDispatchC                      
0000d3b5  rlDriverDeInit                                                       
0000d449  rlDriverMsgReadCmdCtx                                                
0000d4dc  ti_sysbios_family_arm_v7r_vim_Hwi_dispatchIRQ__I                     
0000d571  GPIO_init                                                            
0000d601  Mailbox_close                                                        
0000d721  MmwDemo_waitSensorStartComplete                                      
0000d7b1  UartSci_initiateTxDMA                                                
0000d8d1  soft_max                                                             
0000d961  ti_sysbios_family_arm_v7a_Pmu_startCounter__E                        
0000d9f1  ti_sysbios_knl_Task_unblockI__E                                      
0000db99  SOC_translateAddress                                                 
0000dc25  UartSci_initiateRxDMA                                                
0000dcb1  rlDevicePowerOn                                                      
0000dd3d  rlDriverMsgCmdReply                                                  
0000ddc9  ti_sysbios_BIOS_RtsGateProxy_leave__E                                
0000ddcd  ti_sysbios_family_arm_TaskSupport_Module__startupDone__S             
0000ddcd  ti_sysbios_knl_Task_SupportProxy_Module__startupDone__S              
0000ddd1  ti_sysbios_family_arm_v7r_vim_Hwi_Instance_finalize__E               
0000de5d  ti_sysbios_family_arm_v7r_vim_Hwi_delete                             
0000de61  xdc_runtime_Memory_alloc__E                                          
0000deed  MMWave_getProfileCfg                                                 
0000e085  MmwDemo_gpioSwitchTask                                               
0000e10d  SOC_init                                                             
0000e195  vsnprintf                                                            
0000e21d  MMWave_deviceCfgAsyncEvent                                           
0000e2a1  MMWave_deviceEventFxn                                                
0000e325  MMWave_getNumBpmChirp                                                
0000e3a9  MMWave_open                                                          
0000e4ad  MMWave_getBpmChirpCfg                                                
0000e5ad  findDelta                                                            
0000e62d  rlDriverExecuteGetApi                                                
0000e6ad  ti_sysbios_heaps_HeapMem_Module_GateProxy_enter__E                   
0000e6b1  ti_sysbios_timers_rti_Timer_initDevice__I                            
0000e731  HwiP_create                                                          
0000e7b1  MMWave_deviceOpenFxn                                                 
0000e82d  Mailbox_init                                                         
0000e924  ti_sysbios_family_arm_TaskSupport_buildTaskStack                     
0000e9a1  xdc_runtime_Core_deleteObject__I                                     
0000ea99  __aeabi_memclr                                                       
0000ea99  __aeabi_memclr4                                                      
0000ea99  __aeabi_memclr8                                                      
0000ea9b  __aeabi_memset                                                       
0000ea9b  __aeabi_memset4                                                      
0000ea9b  __aeabi_memset8                                                      
0000eaa1  memset                                                               
0000eb8d  MMWave_getNumChirps                                                  
0000ec7d  MmwDemo_Dss2MssISR                                                   
0000ecf5  MMWave_config                                                        
0000ed69  MMWave_deviceStartFxn                                                
0000ee51  SOC_getDeviceRFFreqScaleFactor                                       
0000eec4  _c_int00                                                             
0000ef39  rlDriverAsyncEventHandler                                            
0000efad  rlDriverProcRdMsg                                                    
0000f021  finddevice                                                           
0000f04f  getdevice                                                            
0000f095  frexp                                                                
0000f095  frexpl                                                               
0000f17d  MMWave_deviceCfgFxn                                                  
0000f1ed  gestureInferenceProcessing                                           
0000f25d  logFeatures                                                          
0000f2cd  ti_sysbios_heaps_HeapMem_Module_GateProxy_leave__E                   
0000f2d1  xdc_runtime_Error_print__E                                           
0000f341  xdc_runtime_Text_visitRope2__I                                       
0000f3b1  DMA_disableChannel                                                   
0000f41d  GPIO_enableInt                                                       
0000f4f5  MMWave_stopLink                                                      
0000f561  Pinmux_Set_FuncSel                                                   
0000f5cd  angleDelta                                                           
0000f639  __TI_decompress_lzss                                                 
0000f6a5  __TI_writemsg                                                        
0000f6d7  C$$IO$$                                                              
0000f6db  __TI_readmsg                                                         
0000f77d  DMA_enableChannel                                                    
0000f7e5  MMWave_deviceStopFxn                                                 
0000f84d  Mailbox_readFlush                                                    
0000f8b5  rlDriverExecuteSetApi                                                
0000f91d  rlDriverHostIrqHandler                                               
0000f985  HOSTlseek                                                            
0000f9ed  HOSTrename                                                           
0000fa55  MemoryP_ctrlFree                                                     
0000fa61  ti_sysbios_knl_Swi_schedule__I                                       
0000fac9  MmwDemo_mssSetHsiClk                                                 
0000fb31  rlDevicePowerOff                                                     
0000fbfd  SemaphoreP_create                                                    
0000fc61  fseek                                                                
0000fcc5  sprintf                                                              
0000fd28  ti_sysbios_family_arm_exc_Exception_initCore0__I                     
0000fd8d  ti_sysbios_knl_Clock_TimerProxy_getMaxTicks__E                       
0000fd91  ti_sysbios_family_arm_v7r_vim_Hwi_phantomIntHandler__I               
0000fdf5  SemaphoreP_post                                                      
0000fdf5  SemaphoreP_postFromClock                                             
0000fdf5  SemaphoreP_postFromISR                                               
0000fe01  ti_sysbios_knl_Clock_logTick__E                                      
0000fe65  UART_read                                                            
0000fe71  xdc_runtime_Startup_exec__E                                          
0000fed5  CLI_MMWaveExtensionHandler                                           
0000ff35  GPIO_setCallback                                                     
0000ff95  UART_write                                                           
0000ffa1  ti_sysbios_heaps_HeapMem_alloc__E                                    
00010001  xdc_runtime_Assert_raise__I                                          
00010061  xdc_runtime_Text_putLab__E                                           
0001017d  MMWave_stop                                                          
000101d9  HOSTopen                                                             
00010235  HOSTread                                                             
000102eb  rlDriverCalChkSum                                                    
00010345  ESM_highpriority_FIQ                                                 
0001039d  MMWave_execute                                                       
0001044d  MmwDemo_mmWaveCtrlTask                                               
000104a5  UartSci_closeDMA                                                     
000104fd  rlDriverMsgReadSpawnCtx                                              
00010555  close                                                                
000105ad  HOSTwrite                                                            
00010605  UART_writePolling                                                    
00010611  ti_sysbios_knl_Swi_restoreHwi__E                                     
000106c1  CRC_getTransactionId                                                 
00010715  DMA_freeChannel                                                      
00010769  MMWave_initLink                                                      
000107bd  ltoa                                                                 
00010811  ti_sysbios_family_arm_v7r_vim_Hwi_create                             
00010865  ti_sysbios_family_arm_v7r_tms570_Core_getId__E                       
00010865  ti_sysbios_hal_Core_CoreProxy_getId__E                               
00010871  ti_sysbios_heaps_HeapMem_getStats__E                                 
000108c5  xdc_runtime_Memory_HeapProxy_alloc__E                                
000108d1  ti_sysbios_knl_Swi_runLoop__I                                        
00010925  xdc_runtime_Memory_HeapProxy_free__E                                 
00010931  ti_sysbios_knl_Swi_startup__E                                        
00010985  ti_sysbios_knl_Semaphore_delete                                      
00010989  xdc_runtime_System_Module_GateProxy_enter__E                         
0001098d  xdc_runtime_System_Module_GateProxy_leave__E                         
00010991  xdc_runtime_Core_assignLabel__I                                      
000109e5  CLI_write                                                            
00010a35  CRC_getSignature                                                     
00010a85  MMWave_sync                                                          
00010ad5  rlDeviceIdentifyCmdDir                                               
00010b25  rlDriverVerifyCRC                                                    
00010b75  atoi                                                                 
00010bc5  C$$EXIT                                                              
00010bc9  abort                                                                
00010bc9  xdc_runtime_System_abortStd__E                                       
00010bd1  exit                                                                 
00010bd1  xdc_runtime_System_exitStd__E                                        
00010c14  __aeabi_uidiv                                                        
00010c14  __aeabi_uidivmod                                                     
00010c71  xdc_runtime_System_exit__E                                           
00010d59  copy_in                                                              
00010db1  ti_sysbios_family_arm_v7r_vim_Hwi_getStackInfo__E                    
00010db1  ti_sysbios_hal_Hwi_HwiProxy_getStackInfo__E                          
00010db1  ti_sysbios_hal_Hwi_getStackInfo__E                                   
00010dfd  ti_sysbios_knl_Task_create                                           
00010ea1  xdc_runtime_Core_assignParams__I                                     
00010ef1  xdc_runtime_Text_xprintf__I                                          
00010f3b  rlDeviceGetVersion                                                   
00010f85  rlDriverOsiInit                                                      
000110e1  HOSTclose                                                            
00011125  HOSTunlink                                                           
00011171  ti_sysbios_family_arm_v7r_tms570_Core_Module_startup__E              
000111c1  ti_sysbios_knl_Task_allBlockedFunction__I                            
00011211  xdc_runtime_System_atexit__E                                         
00011255  MMWave_executeLink                                                   
00011297  rlDriverValidateHdr                                                  
000112d9  strtok                                                               
00011321  ti_sysbios_timers_rti_Timer_stop__E                                  
00011551  MMWave_decodeError                                                   
00011609  Mailbox_writeReset                                                   
00011645  SOC_unhaltBSS                                                        
00011681  rlGetSubBlock                                                        
000116bc  ti_sysbios_family_arm_v7r_vim_Hwi_init__I                            
00011701  ti_sysbios_hal_Hwi_checkStack                                        
00011741  ti_sysbios_heaps_HeapMem_init__I                                     
00011781  ti_sysbios_timers_rti_Timer_setPeriod__E                             
000117bd  HwiP_delete                                                          
000117f7  maxCheck                                                             
00011831  CLI_MMWaveExtensionInit                                              
00011869  UART_init                                                            
000118a1  logEnergy                                                            
000118d7  rlAppendSubBlock                                                     
0001190d  strncpy                                                              
000119ad  SOC_setMMWaveDSSLinkState                                            
000119e1  SOC_setMMWaveMSSLinkState                                            
00011a15  UART_open                                                            
00011a49  ti_sysbios_knl_Semaphore_create                                      
00011ae3  SemaphoreP_delete                                                    
00011af1  ti_sysbios_hal_Hwi_initStack                                         
00011b23  MMWave_listRemoveNode                                                
00011b55  SOC_getDevicePartNumber                                              
00011b85  rlSensorStart                                                        
00011bb5  ti_sysbios_BIOS_atExitFunc__I                                        
00011be5  ti_sysbios_BIOS_startFunc__I                                         
00011c21  ti_sysbios_family_arm_TaskSupport_start__E                           
00011c21  ti_sysbios_knl_Task_SupportProxy_start__E                            
00011c51  ti_sysbios_gates_GateHwi_Object__create__S                           
00011c81  ti_sysbios_gates_GateMutex_Object__create__S                         
00011cb1  ti_sysbios_heaps_HeapMem_Object__create__S                           
00011ce1  ti_sysbios_heaps_HeapMem_free__E                                     
00011d11  ti_sysbios_knl_Event_create                                          
00011d41  ti_sysbios_knl_Semaphore_construct                                   
00011d71  xdc_runtime_Text_printVisFxn__I                                      
00011da1  ti_sysbios_knl_Event_pendTimeout__I                                  
00011dd1  ti_sysbios_knl_Semaphore_pendTimeout__I                              
00011dff  malloc                                                               
00011e85  MMWave_osalMutexCreate                                               
00011eb1  MMWave_osalSemCreate                                                 
00011edd  SOC_waitBSSPowerUp                                                   
00011f09  compute_innerprod                                                    
00011f35  relu_activation                                                      
00011f61  rlDeviceGetMssVersion                                                
00011f8d  rlSensorStop                                                         
00011fb9  sqrt                                                                 
00011fb9  sqrtl                                                                
00011fe5  remove                                                               
00011fe5  unlink                                                               
00012011  ti_sysbios_knl_Clock_doTick__I                                       
0001203d  ti_sysbios_knl_Queue_construct                                       
00012071  ti_sysbios_knl_Swi_Module_startup__E                                 
000120a1  ti_sysbios_timers_rti_Timer_periodicStub__E                          
000120cd  SOC_SystemISR                                                        
000120f7  rlDeviceGetMmWaveLinkVersion                                         
00012121  strspn                                                               
0001214d  Mailbox_Config_init                                                  
000121c5  log2Approx                                                           
000121ed  rlDriverConstructInMsg                                               
00012215  lseek                                                                
0001223d  write                                                                
00012271  ti_sysbios_knl_Idle_run__E                                           
000122a1  xdc_runtime_SysStd_abort__E                                          
000122a1  xdc_runtime_System_SupportProxy_abort__E                             
000122d1  xdc_runtime_System_aprintf_va__F                                     
000122f9  rlRfInitCalibConfig                                                  
0001231f  rlRfRunTimeCalibConfig                                               
00012345  rlRfSetDeviceCfg                                                     
0001236b  rlSetAdcOutConfig                                                    
00012391  rlSetBpmCommonConfig                                                 
000123b7  rlSetChannelConfig                                                   
000123dd  rlSetContModeConfig                                                  
00012403  memcmp                                                               
00012431  xdc_runtime_System_printf_va__F                                      
000124a1  MmwDemo_notifySensorStart                                            
000124c5  SOC_isMMWaveDSSOperational                                           
000124e9  SOC_isMMWaveMSSOperational                                           
0001250d  rlDeviceSetHsiClk                                                    
00012531  rlEnableContMode                                                     
00012555  rlRfSetCalMonTimeUnitConfig                                          
00012579  rlSetLowPowerModeConfig                                              
0001259d  ti_sysbios_BIOS_errorRaiseHook__I                                    
000125c1  ti_sysbios_BIOS_registerRTSLock__I                                   
000125e5  ti_sysbios_BIOS_removeRTSLock__I                                     
00012609  ti_sysbios_gates_GateMutex_Object__delete__S                         
00012631  ti_sysbios_knl_Clock_Module_startup__E                               
00012655  ti_sysbios_knl_Semaphore_Object__delete__S                           
00012681  ti_sysbios_knl_Task_restoreHwi__E                                    
000126c7  UartSci_disableRxDMA                                                 
000126e9  UartSci_enableRxDMA                                                  
0001270b  strcspn                                                              
0001272d  ESM_lowpriority_IRQ                                                  
0001274d  MMWave_listCat                                                       
0001276d  MmwDemo_mboxWrite                                                    
000127ad  rlRfInit                                                             
000127d1  ti_sysbios_family_arm_v7a_Pmu_Module_startup__E                      
000127f1  ti_sysbios_family_arm_v7r_vim_Hwi_Object__delete__S                  
00012811  ti_sysbios_family_arm_v7r_vim_Hwi_disableInterrupt__E                
00012811  ti_sysbios_hal_Hwi_HwiProxy_disableInterrupt__E                      
00012811  ti_sysbios_hal_Hwi_disableInterrupt__E                               
00012831  ti_sysbios_family_arm_v7r_vim_Hwi_enableInterrupt__E                 
00012831  ti_sysbios_hal_Hwi_HwiProxy_enableInterrupt__E                       
00012831  ti_sysbios_hal_Hwi_enableInterrupt__E                                
00012851  ti_sysbios_gates_GateHwi_Object__delete__S                           
00012871  ti_sysbios_heaps_HeapMem_Object__delete__S                           
00012891  ti_sysbios_knl_Semaphore_destruct                                    
000128cf  SOC_getOutAddr_LUTType                                               
000129b1  MMWave_listRemove                                                    
000129cd  MmwDemo_mssMmwaveStartCallbackFxn                                    
000129e9  MmwDemo_notifySensorStop                                             
00012a05  SOC_getInAddr_LUTType                                                
00012a20  ti_sysbios_family_arm_TaskSupport_glue                               
00012a3c  ti_sysbios_family_arm_TaskSupport_swap__E                            
00012a3c  ti_sysbios_knl_Task_SupportProxy_swap__E                             
00012a59  memccpy                                                              
00012a75  ti_sysbios_BIOS_rtsLock__I                                           
00012a91  ti_sysbios_family_arm_v7r_vim_Hwi_clearInterrupt__E                  
00012a91  ti_sysbios_hal_Hwi_HwiProxy_clearInterrupt__E                        
00012a91  ti_sysbios_hal_Hwi_clearInterrupt__E                                 
00012ab1  ti_sysbios_gates_GateMutex_Instance_init__E                          
00012ad1  ti_sysbios_gates_GateMutex_leave__E                                  
00012aed  ti_sysbios_knl_Queue_destruct                                        
00012b09  MMWave_deviceSyncFxn                                                 
00012b23  MMWave_encodeError                                                   
00012b3d  MMWave_listAdd                                                       
00012b57  free                                                                 
00012b71  rlGetRfDieId                                                         
00012b8b  copysign                                                             
00012b8b  copysignl                                                            
00012ba5  ti_sysbios_gates_GateHwi_Handle__label__S                            
00012ba5  xdc_runtime_Main_Module_GateProxy_Handle__label__S                   
00012ba5  xdc_runtime_System_Module_GateProxy_Handle__label__S                 
00012bbf  ti_sysbios_BIOS_RtsGateProxy_Handle__label__S                        
00012bbf  ti_sysbios_gates_GateMutex_Handle__label__S                          
00012bbf  ti_sysbios_heaps_HeapMem_Module_GateProxy_Handle__label__S           
00012bd9  ti_sysbios_heaps_HeapMem_Handle__label__S                            
00012bd9  xdc_runtime_Memory_HeapProxy_Handle__label__S                        
00012bf3  xdc_runtime_System_aprintf__E                                        
00012c0d  xdc_runtime_System_printf__E                                         
00012c29  CLI_getMMWaveExtensionOpenConfig                                     
00012c41  MMWave_osalMutexLock                                                 
00012c59  MMWave_osalSemWait                                                   
00012cb9  rlDeviceGetRfVersion                                                 
00012cd1  rlDriverCalCRC                                                       
00012ce9  rlDriverFillPayload                                                  
00012d01  rlDriverIsDeviceMapValid                                             
00012d19  _args_main                                                           
00012d31  strcmp                                                               
00012d49  ti_sysbios_BIOS_rtsUnlock__I                                         
00012d60  ti_sysbios_family_arm_v7a_Pmu_initCounters__I                        
00012d79  ti_sysbios_family_arm_v7r_vim_Hwi_Module__startupDone__F             
00012d79  ti_sysbios_family_arm_v7r_vim_Hwi_Module__startupDone__S             
00012d79  ti_sysbios_hal_Hwi_HwiProxy_Module__startupDone__S                   
00012d91  ti_sysbios_family_arm_v7r_vim_Hwi_Params__init__S                    
00012d91  ti_sysbios_hal_Hwi_HwiProxy_Params__init__S                          
00012da9  ti_sysbios_knl_Semaphore_Params__init__S                             
00012dc1  ti_sysbios_knl_Task_Params__init__S                                  
00012de1  ti_sysbios_knl_Task_enter__I                                         
00012df9  ti_sysbios_knl_Clock_TimerProxy_Module__startupDone__S               
00012df9  ti_sysbios_timers_rti_Timer_Module__startupDone__F                   
00012df9  ti_sysbios_timers_rti_Timer_Module__startupDone__S                   
00012e11  xdc_runtime_Error_init__E                                            
00012e29  strchr                                                               
00012e3f  strlen                                                               
00012e55  ti_sysbios_BIOS_exitFunc__I                                          
00012e71  ti_sysbios_knl_Idle_loop__E                                          
00012e91  ti_sysbios_knl_Task_sleepTimeout__I                                  
00012ea7  HwiP_Params_init                                                     
00012ee3  MMWave_osalMutexDelete                                               
00012ef7  MMWave_osalSemDelete                                                 
00012f0d  MmwDemo_mssMmwaveConfigCallbackFxn                                   
00012f21  MmwDemo_mssMmwaveStopCallbackFxn                                     
00012f49  UartSci_disableTxDMA                                                 
00012f5d  UartSci_enableTxDMA                                                  
00012f71  _DebugP_assert                                                       
00012f85  rlAppendDummy                                                        
00012f99  _register_unlock                                                     
00012f9f  _register_lock                                                       
00012fa7  _nop                                                                 
00012fad  strcpy                                                               
00012fc1  ti_sysbios_heaps_HeapMem_Object__get__S                              
00012fe1  ti_sysbios_knl_Event_Instance_init__E                                
00012ff5  ti_sysbios_knl_Swi_Object__get__S                                    
00013009  CRC_initConfigParams                                                 
0001301b  MMWave_deviceGetDeviceInfo                                           
0001302d  MemoryP_ctrlAlloc                                                    
0001303f  SemaphoreP_pend                                                      
00013051  ti_sysbios_hal_Hwi_Module_startup__E                                 
00013063  xdc_runtime_Startup_exec__I                                          
000130a1  ti_sysbios_BIOS_setThreadType__E                                     
000130b1  ti_sysbios_BIOS_start__E                                             
000130c0  ti_sysbios_family_arm_v7a_Pmu_disableInterruptI__E                   
000130d0  ti_sysbios_family_arm_v7a_Pmu_enableInterruptI__E                    
000130e0  ti_sysbios_family_arm_v7a_Pmu_getNumCounters__E                      
000130f0  ti_sysbios_family_arm_v7a_Pmu_startCounterI__E                       
00013100  ti_sysbios_family_arm_v7a_Pmu_stopCounterI__E                        
00013111  ti_sysbios_gates_GateMutex_Instance_finalize__E                      
00013121  ti_sysbios_heaps_HeapBuf_Object__get__S                              
00013131  ti_sysbios_knl_Semaphore_Instance_finalize__E                        
00013141  ti_sysbios_knl_Swi_disable__E                                        
00013151  ti_sysbios_knl_Task_Object__get__S                                   
00013161  ti_sysbios_knl_Task_disable__E                                       
00013171  xdc_runtime_Memory_free__E                                           
00013181  xdc_runtime_Text_visitRope__I                                        
00013191  __TI_decompress_none                                                 
000131a1  ti_sysbios_knl_Queue_empty__E                                        
000131b1  ti_sysbios_family_arm_TaskSupport_checkStack__E                      
000131b1  ti_sysbios_knl_Task_SupportProxy_checkStack__E                       
000131c1  ti_sysbios_family_arm_TaskSupport_getStackAlignment__E               
000131c1  ti_sysbios_knl_Task_SupportProxy_getStackAlignment__E                
000131d1  ti_sysbios_family_arm_exc_Exception_Module_startup__E                
000131e1  ti_sysbios_family_arm_v7r_vim_Hwi_switchFromBootStack__E             
000131e1  ti_sysbios_hal_Hwi_HwiProxy_switchFromBootStack__E                   
000131e1  ti_sysbios_hal_Hwi_switchFromBootStack__E                            
000131f1  xdc_runtime_Startup_rtsDone__E                                       
00013201  xdc_runtime_SysStd_exit__E                                           
00013201  xdc_runtime_System_SupportProxy_exit__E                              
00013211  ti_sysbios_gates_GateHwi_enter__E                                    
00013221  ti_sysbios_family_arm_v7r_vim_Hwi_startup__E                         
00013221  ti_sysbios_hal_Hwi_HwiProxy_startup__E                               
00013221  ti_sysbios_hal_Hwi_startup__E                                        
00013231  ti_sysbios_gates_GateHwi_leave__E                                    
00013241  ti_sysbios_heaps_HeapMem_isBlocking__E                               
00013251  ti_sysbios_knl_Queue_Instance_init__E                                
00013261  xdc_runtime_System_Module_startup__E                                 
00013271  ti_sysbios_gates_GateHwi_query__E                                    
00013271  xdc_runtime_Main_Module_GateProxy_query__E                           
00013271  xdc_runtime_System_Module_GateProxy_query__E                         
00013281  ti_sysbios_BIOS_RtsGateProxy_query__E                                
00013281  ti_sysbios_gates_GateMutex_query__E                                  
00013281  ti_sysbios_heaps_HeapMem_Module_GateProxy_query__E                   
00013291  ti_sysbios_knl_Task_startup__E                                       
000132a1  ti_sysbios_timers_rti_Timer_getMaxTicks__E                           
000132b1  xdc_runtime_SysStd_putch__E                                          
000132b1  xdc_runtime_System_SupportProxy_putch__E                             
000132c1  xdc_runtime_SysStd_ready__E                                          
000132c1  xdc_runtime_System_SupportProxy_ready__E                             
000132d1  ti_sysbios_BIOS_linkedWithIncorrectBootLibrary__E                    
000132e1  ti_sysbios_gates_GateHwi_Instance_init__E                            
000132e8  xdc_runtime_Text_charTab__A                                          
000151a6  ti_sysbios_family_arm_exc_Exception_Module__id__C                    
0001563e  _ctypes_                                                             
00015740  xdc_runtime_Text_nodeTab__A                                          
00015950  ti_sysbios_family_arm_v7r_vim_Hwi_channelMap__A                      
00015aa0  ti_sysbios_knl_Task_Object__PARAMS__C                                
00015ae4  UART_defaultParams                                                   
00015b50  ti_sysbios_family_arm_v7r_vim_Hwi_Object__PARAMS__C                  
00015b80  xdc_runtime_Startup_sfxnTab__A                                       
00015bac  ti_sysbios_heaps_HeapMem_Module__FXNS__C                             
00015bd4  Mailbox_defaultCfg                                                   
00015bf8  ti_sysbios_gates_GateHwi_Module__FXNS__C                             
00015c1c  ti_sysbios_gates_GateMutex_Module__FXNS__C                           
00015c40  ti_sysbios_heaps_HeapMem_Object__PARAMS__C                           
00015c64  ti_sysbios_knl_Semaphore_Object__PARAMS__C                           
00015ca8  ti_sysbios_family_arm_v7r_vim_Hwi_Object__DESC__C                    
00015cc8  ti_sysbios_gates_GateHwi_Object__DESC__C                             
00015ce8  ti_sysbios_gates_GateMutex_Object__DESC__C                           
00015d08  ti_sysbios_heaps_HeapMem_Object__DESC__C                             
00015d28  ti_sysbios_knl_Event_Object__DESC__C                                 
00015d48  ti_sysbios_knl_Queue_Object__DESC__C                                 
00015d68  ti_sysbios_knl_Semaphore_Object__DESC__C                             
00015d88  ti_sysbios_knl_Task_Object__DESC__C                                  
00015dc4  ti_sysbios_gates_GateHwi_Object__PARAMS__C                           
00015ddc  ti_sysbios_gates_GateMutex_Object__PARAMS__C                         
00015df4  ti_sysbios_knl_Event_Object__PARAMS__C                               
00015e0c  ti_sysbios_knl_Queue_Object__PARAMS__C                               
00015e24  xdc_runtime_Startup_sfxnRts__A                                       
00015e3a  ti_sysbios_family_arm_v7a_Pmu_Module__id__C                          
00015e3c  ti_sysbios_family_arm_v7r_vim_Hwi_intReqEnaSet__A                    
00015e4c  ti_sysbios_family_arm_v7r_vim_Hwi_wakeEnaSet__A                      
00015e5c  ti_sysbios_knl_Idle_funcList__A                                      
00015e64  ti_sysbios_knl_Idle_funcList__C                                      
00015e6c  xdc_runtime_Startup_firstFxns__A                                     
00015e74  xdc_runtime_Startup_firstFxns__C                                     
00015e7c  xdc_runtime_Startup_lastFxns__C                                      
00015e88  ti_sysbios_family_arm_TaskSupport_stackAlignment__C                  
00015e8c  ti_sysbios_family_arm_exc_Exception_E_dataAbort__C                   
00015e90  ti_sysbios_family_arm_exc_Exception_E_prefetchAbort__C               
00015e94  ti_sysbios_family_arm_exc_Exception_E_swi__C                         
00015e98  ti_sysbios_family_arm_exc_Exception_E_undefinedInstruction__C        
00015e9c  ti_sysbios_family_arm_exc_Exception_excHookFuncs__A                  
00015ea0  ti_sysbios_family_arm_exc_Exception_excHookFuncs__C                  
00015ea4  ti_sysbios_family_arm_v7a_Pmu_A_invalidCounterId__C                  
00015ea8  ti_sysbios_family_arm_v7a_Pmu_Module__diagsEnabled__C                
00015eac  ti_sysbios_family_arm_v7a_Pmu_Module__diagsIncluded__C               
00015eb0  ti_sysbios_family_arm_v7a_Pmu_Module__diagsMask__C                   
00015eb4  ti_sysbios_family_arm_v7r_tms570_Core_E_mismatchedIds__C             
00015eb8  ti_sysbios_family_arm_v7r_tms570_Core_id__C                          
00015ebc  ti_sysbios_family_arm_v7r_vim_Hwi_A_badChannelId__C                  
00015ec0  ti_sysbios_family_arm_v7r_vim_Hwi_E_alreadyDefined__C                
00015ec4  ti_sysbios_family_arm_v7r_vim_Hwi_E_badIntNum__C                     
00015ec8  ti_sysbios_family_arm_v7r_vim_Hwi_E_phantomInterrupt__C              
00015ecc  ti_sysbios_family_arm_v7r_vim_Hwi_E_undefined__C                     
00015ed0  ti_sysbios_family_arm_v7r_vim_Hwi_E_unsupportedMaskingOption__C      
00015ed4  ti_sysbios_family_arm_v7r_vim_Hwi_LD_end__C                          
00015ed8  ti_sysbios_family_arm_v7r_vim_Hwi_LM_begin__C                        
00015edc  ti_sysbios_family_arm_v7r_vim_Hwi_Module__diagsEnabled__C            
00015ee0  ti_sysbios_family_arm_v7r_vim_Hwi_Module__diagsIncluded__C           
00015ee4  ti_sysbios_family_arm_v7r_vim_Hwi_Module__diagsMask__C               
00015ee8  ti_sysbios_family_arm_v7r_vim_Hwi_Module__loggerFxn1__C              
00015eec  ti_sysbios_family_arm_v7r_vim_Hwi_Module__loggerFxn8__C              
00015ef0  ti_sysbios_family_arm_v7r_vim_Hwi_Module__loggerObj__C               
00015ef4  ti_sysbios_family_arm_v7r_vim_Hwi_NUM_INTERRUPTS__C                  
00015ef8  ti_sysbios_family_arm_v7r_vim_Hwi_channelMap__C                      
00015efc  ti_sysbios_family_arm_v7r_vim_Hwi_intReqEnaSet__C                    
00015f00  ti_sysbios_family_arm_v7r_vim_Hwi_phantomFunc__C                     
00015f04  ti_sysbios_family_arm_v7r_vim_Hwi_swiDisable__C                      
00015f08  ti_sysbios_family_arm_v7r_vim_Hwi_swiRestoreHwi__C                   
00015f0c  ti_sysbios_family_arm_v7r_vim_Hwi_taskDisable__C                     
00015f10  ti_sysbios_family_arm_v7r_vim_Hwi_taskRestoreHwi__C                  
00015f14  ti_sysbios_family_arm_v7r_vim_Hwi_wakeEnaSet__C                      
00015f18  ti_sysbios_gates_GateMutex_A_badContext__C                           
00015f1c  ti_sysbios_gates_GateMutex_Instance_State_sem__O                     
00015f20  ti_sysbios_gates_GateMutex_Module__diagsEnabled__C                   
00015f24  ti_sysbios_gates_GateMutex_Module__diagsIncluded__C                  
00015f28  ti_sysbios_gates_GateMutex_Module__diagsMask__C                      
00015f2c  ti_sysbios_hal_Hwi_E_stackOverflow__C                                
00015f30  ti_sysbios_heaps_HeapBuf_Instance_State_freeList__O                  
00015f34  ti_sysbios_heaps_HeapBuf_Object__count__C                            
00015f38  ti_sysbios_heaps_HeapBuf_numConstructedHeaps__C                      
00015f3c  ti_sysbios_heaps_HeapMem_A_align__C                                  
00015f40  ti_sysbios_heaps_HeapMem_A_heapSize__C                               
00015f44  ti_sysbios_heaps_HeapMem_A_invalidFree__C                            
00015f48  ti_sysbios_heaps_HeapMem_A_zeroBlock__C                              
00015f4c  ti_sysbios_heaps_HeapMem_E_memory__C                                 
00015f50  ti_sysbios_heaps_HeapMem_Module__diagsEnabled__C                     
00015f54  ti_sysbios_heaps_HeapMem_Module__diagsIncluded__C                    
00015f58  ti_sysbios_heaps_HeapMem_Module__diagsMask__C                        
00015f5c  ti_sysbios_heaps_HeapMem_Module__gateObj__C                          
00015f60  ti_sysbios_heaps_HeapMem_Object__count__C                            
00015f64  ti_sysbios_heaps_HeapMem_reqAlign__C                                 
00015f68  ti_sysbios_knl_Clock_LM_begin__C                                     
00015f6c  ti_sysbios_knl_Clock_LM_tick__C                                      
00015f70  ti_sysbios_knl_Clock_LW_delayed__C                                   
00015f74  ti_sysbios_knl_Clock_Module_State_clockQ__O                          
00015f78  ti_sysbios_knl_Clock_Module__diagsEnabled__C                         
00015f7c  ti_sysbios_knl_Clock_Module__diagsIncluded__C                        
00015f80  ti_sysbios_knl_Clock_Module__diagsMask__C                            
00015f84  ti_sysbios_knl_Clock_Module__loggerFxn1__C                           
00015f88  ti_sysbios_knl_Clock_Module__loggerFxn2__C                           
00015f8c  ti_sysbios_knl_Clock_Module__loggerObj__C                            
00015f90  ti_sysbios_knl_Event_A_badContext__C                                 
00015f94  ti_sysbios_knl_Event_A_eventInUse__C                                 
00015f98  ti_sysbios_knl_Event_A_nullEventId__C                                
00015f9c  ti_sysbios_knl_Event_A_nullEventMasks__C                             
00015fa0  ti_sysbios_knl_Event_A_pendTaskDisabled__C                           
00015fa4  ti_sysbios_knl_Event_Instance_State_pendQ__O                         
00015fa8  ti_sysbios_knl_Event_LM_pend__C                                      
00015fac  ti_sysbios_knl_Event_LM_post__C                                      
00015fb0  ti_sysbios_knl_Event_Module__diagsEnabled__C                         
00015fb4  ti_sysbios_knl_Event_Module__diagsIncluded__C                        
00015fb8  ti_sysbios_knl_Event_Module__diagsMask__C                            
00015fbc  ti_sysbios_knl_Event_Module__loggerFxn4__C                           
00015fc0  ti_sysbios_knl_Event_Module__loggerFxn8__C                           
00015fc4  ti_sysbios_knl_Event_Module__loggerObj__C                            
00015fc8  ti_sysbios_knl_Semaphore_A_badContext__C                             
00015fcc  ti_sysbios_knl_Semaphore_A_noEvents__C                               
00015fd0  ti_sysbios_knl_Semaphore_A_overflow__C                               
00015fd4  ti_sysbios_knl_Semaphore_A_pendTaskDisabled__C                       
00015fd8  ti_sysbios_knl_Semaphore_Instance_State_pendQ__O                     
00015fdc  ti_sysbios_knl_Semaphore_LM_pend__C                                  
00015fe0  ti_sysbios_knl_Semaphore_LM_post__C                                  
00015fe4  ti_sysbios_knl_Semaphore_Module__diagsEnabled__C                     
00015fe8  ti_sysbios_knl_Semaphore_Module__diagsIncluded__C                    
00015fec  ti_sysbios_knl_Semaphore_Module__diagsMask__C                        
00015ff0  ti_sysbios_knl_Semaphore_Module__loggerFxn2__C                       
00015ff4  ti_sysbios_knl_Semaphore_Module__loggerFxn4__C                       
00015ff8  ti_sysbios_knl_Semaphore_Module__loggerObj__C                        
00015ffc  ti_sysbios_knl_Swi_LD_end__C                                         
00016000  ti_sysbios_knl_Swi_LM_begin__C                                       
00016004  ti_sysbios_knl_Swi_LM_post__C                                        
00016008  ti_sysbios_knl_Swi_Module__diagsEnabled__C                           
0001600c  ti_sysbios_knl_Swi_Module__diagsIncluded__C                          
00016010  ti_sysbios_knl_Swi_Module__diagsMask__C                              
00016014  ti_sysbios_knl_Swi_Module__loggerFxn1__C                             
00016018  ti_sysbios_knl_Swi_Module__loggerFxn4__C                             
0001601c  ti_sysbios_knl_Swi_Module__loggerObj__C                              
00016020  ti_sysbios_knl_Swi_Object__count__C                                  
00016024  ti_sysbios_knl_Task_A_badPriority__C                                 
00016028  ti_sysbios_knl_Task_A_badTaskState__C                                
0001602c  ti_sysbios_knl_Task_A_badThreadType__C                               
00016030  ti_sysbios_knl_Task_A_badTimeout__C                                  
00016034  ti_sysbios_knl_Task_A_noPendElem__C                                  
00016038  ti_sysbios_knl_Task_A_sleepTaskDisabled__C                           
0001603c  ti_sysbios_knl_Task_E_spOutOfBounds__C                               
00016040  ti_sysbios_knl_Task_E_stackOverflow__C                               
00016044  ti_sysbios_knl_Task_LD_block__C                                      
00016048  ti_sysbios_knl_Task_LD_exit__C                                       
0001604c  ti_sysbios_knl_Task_LD_ready__C                                      
00016050  ti_sysbios_knl_Task_LM_sleep__C                                      
00016054  ti_sysbios_knl_Task_LM_switch__C                                     
00016058  ti_sysbios_knl_Task_Module_State_inactiveQ__O                        
0001605c  ti_sysbios_knl_Task_Module__diagsEnabled__C                          
00016060  ti_sysbios_knl_Task_Module__diagsIncluded__C                         
00016064  ti_sysbios_knl_Task_Module__diagsMask__C                             
00016068  ti_sysbios_knl_Task_Module__loggerFxn2__C                            
0001606c  ti_sysbios_knl_Task_Module__loggerFxn4__C                            
00016070  ti_sysbios_knl_Task_Module__loggerObj__C                             
00016074  ti_sysbios_knl_Task_Object__count__C                                 
00016078  ti_sysbios_knl_Task_allBlockedFunc__C                                
0001607c  ti_sysbios_knl_Task_defaultStackHeap__C                              
00016080  ti_sysbios_knl_Task_defaultStackSize__C                              
00016084  ti_sysbios_knl_Task_numConstructedTasks__C                           
00016088  ti_sysbios_timers_rti_Timer_E_cannotSupport__C                       
0001608c  ti_sysbios_timers_rti_Timer_Module__diagsEnabled__C                  
00016090  ti_sysbios_timers_rti_Timer_Module__diagsIncluded__C                 
00016094  ti_sysbios_timers_rti_Timer_Module__diagsMask__C                     
00016098  ti_sysbios_timers_rti_Timer_numTimerDevices__C                       
0001609c  ti_sysbios_timers_rti_Timer_startupNeeded__C                         
000160a0  xdc_runtime_Assert_E_assertFailed__C                                 
000160a4  xdc_runtime_Core_A_initializedParams__C                              
000160a8  xdc_runtime_Core_Module__diagsEnabled__C                             
000160ac  xdc_runtime_Core_Module__diagsIncluded__C                            
000160b0  xdc_runtime_Core_Module__diagsMask__C                                
000160b4  xdc_runtime_Error_E_memory__C                                        
000160b8  xdc_runtime_Error_Module__diagsEnabled__C                            
000160bc  xdc_runtime_Error_Module__diagsIncluded__C                           
000160c0  xdc_runtime_Error_Module__diagsMask__C                               
000160c4  xdc_runtime_Error_Module__loggerFxn8__C                              
000160c8  xdc_runtime_Error_Module__loggerObj__C                               
000160cc  xdc_runtime_Error_policyFxn__C                                       
000160d0  xdc_runtime_Error_policy__C                                          
000160d4  xdc_runtime_Error_raiseHook__C                                       
000160d8  xdc_runtime_IGateProvider_Interface__BASE__C                         
000160dc  xdc_runtime_IHeap_Interface__BASE__C                                 
000160e0  xdc_runtime_IModule_Interface__BASE__C                               
000160e4  xdc_runtime_Log_L_error__C                                           
000160e8  xdc_runtime_Memory_defaultHeapInstance__C                            
000160ec  xdc_runtime_Startup_execImpl__C                                      
000160f0  xdc_runtime_Startup_maxPasses__C                                     
000160f4  xdc_runtime_Startup_sfxnRts__C                                       
000160f8  xdc_runtime_Startup_sfxnTab__C                                       
000160fc  xdc_runtime_System_Module__gateObj__C                                
00016100  xdc_runtime_System_abortFxn__C                                       
00016104  xdc_runtime_System_exitFxn__C                                        
00016108  xdc_runtime_System_extendFxn__C                                      
0001610c  xdc_runtime_System_maxAtexitHandlers__C                              
00016110  xdc_runtime_Text_charTab__C                                          
00016114  xdc_runtime_Text_nameEmpty__C                                        
00016118  xdc_runtime_Text_nameStatic__C                                       
0001611c  xdc_runtime_Text_nameUnknown__C                                      
00016120  xdc_runtime_Text_nodeTab__C                                          
00016124  xdc_runtime_Text_visitRopeFxn__C                                     
00016128  ti_sysbios_family_arm_v7r_tms570_Core_Module__id__C                  
0001612a  ti_sysbios_family_arm_v7r_vim_Hwi_Module__id__C                      
0001612c  ti_sysbios_family_arm_v7r_vim_Hwi_Module__loggerDefined__C           
0001612e  ti_sysbios_gates_GateMutex_Module__id__C                             
00016130  ti_sysbios_hal_Hwi_Module__id__C                                     
00016132  ti_sysbios_heaps_HeapMem_Module__id__C                               
00016134  ti_sysbios_knl_Clock_Module__id__C                                   
00016136  ti_sysbios_knl_Clock_Module__loggerDefined__C                        
00016138  ti_sysbios_knl_Event_Module__id__C                                   
0001613a  ti_sysbios_knl_Event_Module__loggerDefined__C                        
0001613c  ti_sysbios_knl_Semaphore_Module__id__C                               
0001613e  ti_sysbios_knl_Semaphore_Module__loggerDefined__C                    
00016140  ti_sysbios_knl_Swi_Module__id__C                                     
00016142  ti_sysbios_knl_Swi_Module__loggerDefined__C                          
00016144  ti_sysbios_knl_Task_Module__id__C                                    
00016146  ti_sysbios_knl_Task_Module__loggerDefined__C                         
00016148  ti_sysbios_timers_rti_Timer_Module__id__C                            
0001614a  ti_sysbios_timers_rti_Timer_continueOnSuspend__C                     
0001614c  xdc_runtime_Core_Module__id__C                                       
0001614e  xdc_runtime_Error_Module__loggerDefined__C                           
00016150  xdc_runtime_Error_maxDepth__C                                        
00016152  xdc_runtime_Main_Module__id__C                                       
00016154  xdc_runtime_Memory_Module__id__C                                     
00016156  xdc_runtime_Text_charCnt__C                                          
00016158  xdc_runtime_Text_isLoaded__C                                         
0001615a  xdc_runtime_Text_registryModsLastId__C                               
0001615c  xdc_runtime_Text_unnamedModsLastId__C                                
00016160  __TI_static_base__                                                   
00019060  __TI_Handler_Table_Base                                              
0001906c  __TI_Handler_Table_Limit                                             
00019088  __TI_CINIT_Base                                                      
000190a8  __TI_CINIT_Limit                                                     
08000000  ti_sysbios_heaps_HeapMem_Instance_State_0_buf__A                     
0800a000  peopleDetectorState                                                  
0800a004  peopleDetectorStateFlt                                               
0800a008  peopleDetectorStatePrev                                              
0800a00c  gestureTimeStamp                                                     
0800a014  gestureCnt                                                           
0800a01c  gestureCntPrev                                                       
0800a024  fltGestureCnt                                                        
0800a02c  numDetectionsPerBucket                                               
0800a03c  gestureProbabilityLog                                                
0800a0b4  featureVecPosLog                                                     
0800a19c  energyLog                                                            
0800a39c  gMmwMssMCB                                                           
0800a728  gANN_struct_t                                                        
0800ce5c  rl_txMsg                                                             
0800cf5c  rl_rxMsg                                                             
0800d240  hardCodedConfigIndex                                                 
0800d244  hardCodedConfigCommands                                              
0800d2b8  gCLI                                                                 
0800d45c  ti_sysbios_family_arm_v7r_vim_Hwi_Module_State_0_dispatchTable__A    
0800d65c  gCRCRegister                                                         
0800d660  gCLI_mmwave_freq_scale_factor                                        
0800d668  gCLIMMWaveOpenCfg                                                    
0800d68c  partInfoStringArray                                                  
0800d6cc  gCLIMMWaveExtensionTable                                             
0800d774  gCLIMMWaveControlCfg                                                 
0800d840  _ftable                                                              
0800d930  ti_sysbios_knl_Swi_Module_State_0_readyQ__A                          
0800d9b0  ti_sysbios_knl_Task_Module_State_0_readyQ__A                         
0800da30  _device                                                              
0800daa8  ti_sysbios_knl_Task_Object__table__V                                 
0800db04  gUartSciHwCfg                                                        
0800db5c  _stream                                                              
0800dbac  gMailboxMCB                                                          
0800dbfc  ti_sysbios_knl_Task_Module__state__V                                 
0800dc44  SOC_TranslateAddr_LUT                                                
0800dc84  ti_sysbios_gates_GateMutex_Object__table__V                          
0800dcc4  ti_sysbios_timers_rti_Timer_Object__table__V                         
0800dd00  ti_sysbios_family_arm_v7r_vim_Hwi_Module__state__V                   
0800dd34  ti_sysbios_knl_Swi_Object__table__V                                  
0800dd64  ti_sysbios_family_arm_v7r_vim_Hwi_Object__table__V                   
0800dd90  ti_sysbios_knl_Clock_Module__state__V                                
0800ddbc  gUartSciFxnTable                                                     
0800dde4  UART_config                                                          
0800de08  ti_sysbios_BIOS_Module__state__V                                     
0800de2c  xdc_runtime_Error_IgnoreBlock                                        
0800de4c  xdc_runtime_System_Module_State_0_atexitHandlers__A                  
0800de6c  ti_sysbios_knl_Swi_Module__state__V                                  
0800de88  gMailboxMssBssHwCfg                                                  
0800dea0  gMailboxMssDssHwCfg                                                  
0800deb8  ti_sysbios_heaps_HeapMem_Object__table__V                            
0800ded0  ti_sysbios_timers_rti_Timer_Module_State_0_device__A                 
0800dee8  gSOCHwAttrib                                                         
0800defc  ti_sysbios_family_arm_exc_Exception_Module__state__V                 
0800df10  __TI_ft_end                                                          
0800df14  __aeabi_stdin                                                        
0800df18  __aeabi_stdout                                                       
0800df1c  __aeabi_stderr                                                       
0800df20  ti_sysbios_timers_rti_Timer_Module_State_0_intFreqs__A               
0800df30  ti_sysbios_timers_rti_Timer_Module__state__V                         
0800df40  __TI_cleanup_ptr                                                     
0800df44  __TI_dtors_ptr                                                       
0800df48  __TI_enable_exit_profile_output                                      
0800df4c  gESMHwCfgAttrs                                                       
0800df58  ti_sysbios_family_arm_v7a_Pmu_Module__state__V                       
0800df64  _lock                                                                
0800df68  _unlock                                                              
0800df6c  gGPIOHwAtrrib                                                        
0800df74  ti_sysbios_family_arm_v7r_vim_Hwi_Module__root__V                    
0800df7c  ti_sysbios_gates_GateHwi_Module__root__V                             
0800df84  ti_sysbios_gates_GateMutex_Module__root__V                           
0800df8c  ti_sysbios_hal_Hwi_Object__table__V                                  
0800df94  ti_sysbios_heaps_HeapMem_Module__root__V                             
0800df9c  ti_sysbios_knl_Event_Module__root__V                                 
0800dfa4  ti_sysbios_knl_Queue_Module__root__V                                 
0800dfac  ti_sysbios_knl_Semaphore_Module__root__V                             
0800dfb4  ti_sysbios_knl_Task_Module__root__V                                  
0800dfbc  ti_sysbios_timers_rti_Timer_Module_State_0_handles__A                
0800dfc4  xdc_runtime_Registry_Module__state__V                                
0800dfcc  xdc_runtime_Startup_Module__state__V                                 
0800dfd4  xdc_runtime_System_Module__state__V                                  
0800dfdc  gPinmuxRegs                                                          
0800dfe4  errno                                                                
0800dff0  main_func_sp                                                         
0800dff8  ti_sysbios_family_arm_exc_Exception_Module_State_0_excContext__A     
0800dffc  ti_sysbios_family_arm_exc_Exception_Module_State_0_excStackBuffers__A
0800e000  ti_sysbios_family_arm_exc_Exception_Module_State_0_excStack__A       
0800e004  ti_sysbios_gates_GateHwi_Object__table__V                            
0800e008  ti_sysbios_heaps_HeapBuf_Module__state__V                            
0800e00c  ti_sysbios_knl_Task_Module_State_0_idleTask__A                       
0800e010  xdc_runtime_Memory_Module__state__V                                  
0800e014  ti_sysbios_family_arm_exc_Exception_Module_State_0_excActive__A      
0800e016  xdc_runtime_Error_Module__state__V                                   
0800e018  ti_sysbios_family_arm_exc_Exception_Module_State_0_excStack_0__A     
0800f018  ti_sysbios_knl_Task_Instance_State_0_stack__A                        
0800f818  gGPIOMCB                                                             
0800f9ac  __CIOBUF_                                                            
0800facc  gMMWave_MCB                                                          
0800fbc8  __TI_tmpnams                                                         
0800fc68  gEsmMCB                                                              
0800fcd8  gMMWave_DualcoreMCB                                                  
0800fce0  parmbuf                                                              
0800fce8  __stack                                                              
08010ce8  __STACK_END                                                          
08010ce8  ti_sysbios_family_arm_v7r_vim_Hwi_Module_State_0_fiqStack__A         
fffffdec  ti_sysbios_family_arm_v7r_vim_Hwi_vim                                
ffffffff  __TI_pprof_out_hndl                                                  
ffffffff  __TI_prof_data_size                                                  
ffffffff  __TI_prof_data_start                                                 
ffffffff  __binit__                                                            
ffffffff  __c_args__                                                           
ffffffff  binit                                                                
UNDEFED   SHT$$INIT_ARRAY$$Base                                                
UNDEFED   SHT$$INIT_ARRAY$$Limit                                               

[948 symbols]
