******************************************************************************
                  TI ARM Linker PC v16.9.6                     
******************************************************************************
>> Linked Mon May 20 11:11:02 2019

OUTPUT FILE NAME:   <multi_gesture_68xx_mss.xer4f>
ENTRY POINT SYMBOL: "_c_int00"  address: 0000ee04


MEMORY CONFIGURATION

         name            origin    length      used     unused   attr    fill
----------------------  --------  ---------  --------  --------  ----  --------
PAGE 0:
  VECTORS               00000000   00000100  0000003c  000000c4     X
  PROG_RAM              00000100   0007ff00  00018e98  00067068  R  X
  DATA_RAM              08000000   00030000  000114e8  0001eb18  RW  
  L3_RAM                51000000   000c0000  00000000  000c0000  RW  
  HWA_RAM               52030000   00010000  00000000  00010000  RW  
  HS_RAM                52080000   00008000  00000000  00008000  RW  

PAGE 1:
  L3_RAM                51000000   000c0000  00000000  000c0000  RW  


SEGMENT ALLOCATION MAP

run origin  load origin   length   init length attrs members
----------  ----------- ---------- ----------- ----- -------
00000000    00000000    0000003c   0000003c    r--
  00000000    00000000    0000003c   0000003c    r-- .vecs
00000100    00000100    00018ea0   00018ea0    r-x
  00000100    00000100    000130e2   000130e2    r-x .text
  000131e8    000131e8    00002e76   00002e76    r-- .const
  00016060    00016060    00002f40   00002f40    r-- .cinit
08000000    08000000    000114e8   00000000    rw-
  08000000    08000000    0000a000   00000000    rw- systemHeap
  0800a000    0800a000    00004018   00000000    rw- .data
  0800e018    0800e018    00001cd0   00000000    rw- .bss
  0800fce8    0800fce8    00001000   00000000    rw- .stack
  08010ce8    08010ce8    00000800   00000000    rw- .myFiqStack


SECTION ALLOCATION MAP

 output                                  attributes/
section   page    origin      length       input sections
--------  ----  ----------  ----------   ----------------
.vecs      0    00000000    0000003c     
                  00000000    0000003c     mss_mmw_per4ft.oer4ft (.vecs)

.text      0    00000100    000130e2     
                  00000100    0000107a     rtsv7R4_T_le_v3D16_eabi.lib : _printfi.obj (.text)
                  0000117a    00000002     libmmwave_xwr68xx.aer4f : mmwave_link.oer4f (.text:MMWave_maskHostIRQ)
                  0000117c    0000064e     mss_cli.oer4f (.text:MmwDemo_CLIInit)
                  000017ca    00000006     libosal_xwr68xx.aer4f : HwiP_tirtos.oer4f (.text:HwiP_restore)
                  000017d0    000004e1     sysbios.aer4ft : BIOS.obj (.text:xdc_runtime_System_doPrint__I)
                  00001cb1    00000001     --HOLE-- [fill = 0]
                  00001cb2    00000002     mss_main.oer4f (.text:MmwDemo_mssMmwaveCloseCallbackFxn)
                  00001cb4    000004bc     mss_main.oer4f (.text:MmwDemo_mssInitTask)
                  00002170    000003d0     cli_mmwave.oer4f (.text:CLI_MMWaveVersion)
                  00002540    00000394     sysbios.aer4ft : BIOS.obj (.text:ti_sysbios_knl_Event_pend__E)
                  000028d4    0000000c     cli_mmwave.oer4f (.text:CLI_getMMWaveExtensionConfig)
                  000028e0    00000310     sysbios.aer4ft : BIOS.obj (.text:ti_sysbios_knl_Semaphore_pend__E)
                  00002bf0    0000030c     mss_main.oer4f (.text:MmwDemo_mboxReadTask)
                  00002efc    00000300     libsoc_xwr68xx.aer4f : soc_xwr68xx_mss.oer4f (.text:SOC_deviceInit)
                  000031fc    000002b8     rtsv7R4_T_le_v3D16_eabi.lib : ull_div32.obj (.text)
                  000034b4    0000000c     libmmwave_xwr68xx.aer4f : mmwave_dualcore.oer4f (.text:MMWave_deviceMailboxCallbackFxn)
                  000034c0    000002a4     sysbios.aer4ft : BIOS.obj (.text:ti_sysbios_heaps_HeapMem_freeUnprotected__E)
                  00003764    00000284     libmmwave_xwr68xx.aer4f : mmwave_dualcore.oer4f (.text:MMWave_deviceExecuteFxn)
                  000039e8    00000008     libosal_xwr68xx.aer4f : HwiP_tirtos.oer4f (.text:HwiP_disable)
                  000039f0    00000280     sysbios.aer4ft : BIOS.obj (.text:ti_sysbios_family_arm_exc_Exception_excDumpContext__I)
                  00003c70    00000268                    : BIOS.obj (.text:ti_sysbios_knl_Task_Instance_finalize__E)
                  00003ed8    00000260     libmailbox_xwr68xx.aer4f : mailbox.oer4f (.text:Mailbox_open)
                  00004138    00000258     rtsv7R4_T_le_v3D16_eabi.lib : e_exp.obj (.text)
                  00004390    00000254     cli_mmwave.oer4f (.text:CLI_MMWaveProfileCfg)
                  000045e4    00000244     mss_main.oer4f (.text:MmwDemo_mssCtrlPathTask)
                  00004828    00000008     libmmwave_xwr68xx.aer4f : mmwave.oer4f (.text:MMWave_decodeErrorLevel)
                  00004830    00000228     sysbios.aer4ft : BIOS.obj (.text:ti_sysbios_heaps_HeapMem_allocUnprotected__E)
                  00004a58    00000008     libmmwave_xwr68xx.aer4f : mmwave_link.oer4f (.text:MMWave_mboxCallbackFxn)
                  00004a60    00000220     sysbios.aer4ft : BIOS.obj (.text:ti_sysbios_knl_Task_sleep__E)
                  00004c80    00000214     libuart_xwr68xx.aer4f : uartsci.oer4f (.text:UartSci_open)
                  00004e94    00000210     mss_main.oer4f (.text:MmwDemo_mssDataPathConfig)
                  000050a4    00000204     cli_mmwave.oer4f (.text:CLI_MMWaveChirpCfg)
                  000052a8    00000200     libcrc_xwr68xx.aer4f : crc.oer4f (.text:CRC_open)
                  000054a8    000001f8     cli.oer4f (.text:CLI_task)
                  000056a0    000001f0     libdma_xwr68xx.aer4f : dma.oer4f (.text:DMA_setChannelParams)
                  00005890    000001e4     rtsv7R4_T_le_v3D16_eabi.lib : strtod.obj (.text)
                  00005a74    0000000c     libmmwave_xwr68xx.aer4f : mmwave_osal.oer4f (.text:MMWave_osalMutexUnlock)
                  00005a80    000001e4     sysbios.aer4ft : BIOS.obj (.text:ti_sysbios_family_arm_v7r_vim_Hwi_dispatchIRQC__I)
                  00005c64    0000000c     libmmwave_xwr68xx.aer4f : mmwave_osal.oer4f (.text:MMWave_osalSemSignal)
                  00005c70    000001dc     sysbios.aer4ft : BIOS.obj (.text:ti_sysbios_knl_Task_Module_startup__E)
                  00005e4c    000001c8     rtsv7R4_T_le_v3D16_eabi.lib : fopen.obj (.text)
                  00006014    0000000c     mss_main.oer4f (.text:MmwDemo_mboxCallback)
                  00006020    000001c8     sysbios.aer4ft : BIOS.obj (.text:ti_sysbios_knl_Task_Instance_init__E)
                  000061e8    000001b0     mss_main.oer4f (.text:MmwDemo_bpmConfig)
                  00006398    000001a8     cli_mmwave.oer4f (.text:CLI_MMWaveSubFrameCfg)
                  00006540    000001a4     libmmwave_xwr68xx.aer4f : mmwave_dualcore.oer4f (.text:MMWave_serializeCfg)
                  000066e4    0000000c     libuart_xwr68xx.aer4f : UART.oer4f (.text:UART_Params_init)
                  000066f0    0000019c     sysbios.aer4ft : BIOS.obj (.text:xdc_runtime_Error_policyDefault__E)
                  0000688c    00000184     libmmwavelink_xwr68xx.aer4f : rl_driver.oer4f (.text:rlDriverCmdInvoke)
                  00006a10    00000184     sysbios.aer4ft : BIOS.obj (.text:ti_sysbios_timers_rti_Timer_Module_startup__E)
                  00006b94    00000180     libmmwavelink_xwr68xx.aer4f : rl_driver.oer4f (.text:rlDriverRxHdrRead)
                  00006d14    0000000c     libuart_xwr68xx.aer4f : uartsci_dma.oer4f (.text:UartSci_isDMAEnabled)
                  00006d20    0000017c     sysbios.aer4ft : BIOS.obj (.text:ti_sysbios_family_arm_exc_Exception_excHandler__I)
                  00006e9c    00000004     libosal_xwr68xx.aer4f : HwiP_tirtos.oer4f (.text:HwiP_disableInterrupt)
                  00006ea0    0000017c     sysbios.aer4ft : BIOS.obj (.text:ti_sysbios_knl_Semaphore_post__E)
                  0000701c    00000004     libmmwave_xwr68xx.aer4f : mmwave_link.oer4f (.text:MMWave_disableDevice)
                  00007020    00000174     sysbios.aer4ft : BIOS.obj (.text:ti_sysbios_knl_Event_post__E)
                  00007194    00000170     libgpio_xwr68xx.aer4f : gpio.oer4f (.text:GPIO_setConfig)
                  00007304    0000000c     sysbios.aer4ft : arm_IntrinsicsSupport_asm.obj (.text:_ti_sysbios_family_arm_IntrinsicsSupport_maxbitA)
                  00007310    00000160                    : BIOS.obj (.text:ti_sysbios_family_arm_v7r_vim_Hwi_reconfig__E)
                  00007470    00000158     mss_main.oer4f (.text:main)
                  000075c8    00000150     mss_cli.oer4f (.text:MmwDemo_CLICalibDcRangeSig)
                  00007718    0000014c     cli_mmwave.oer4f (.text:CLI_MMWaveFrameCfg)
                  00007864    0000014c     libmmwave_xwr68xx.aer4f : mmwave_link.oer4f (.text:MMWave_initMMWaveLink)
                  000079b0    0000014a     libuart_xwr68xx.aer4f : uartsci.oer4f (.text:UartSci_ISR)
                  00007afa    00000006     libmmwavelink_xwr68xx.aer4f : rl_controller.oer4f (.text:rlGetSubBlockId)
                  00007b00    00000140     sysbios.aer4ft : BIOS.obj (.text:ti_sysbios_heaps_HeapMem_Instance_init__E)
                  00007c40    00000140                    : BIOS.obj (.text:xdc_runtime_Core_createObject__I)
                  00007d80    0000013c                    : BIOS.obj (.text:ti_sysbios_knl_Clock_workFunc__E)
                  00007ebc    00000004     libmmwave_xwr68xx.aer4f : mmwave_link.oer4f (.text:MMWave_enableDevice)
                  00007ec0    00000134     sysbios.aer4ft : BIOS.obj (.text:xdc_runtime_Startup_startMods__I)
                  00007ff4    0000012c     mss_main.oer4f (.text:postProcessing)
                  00008120    00000128     libmmwave_xwr68xx.aer4f : mmwave_link.oer4f (.text:MMWave_openLink)
                  00008248    00000128     libmmwavelink_xwr68xx.aer4f : rl_driver.oer4f (.text:rlDriverMsgRead)
                  00008370    00000124     cli_mmwave.oer4f (.text:CLI_MMWaveAdvFrameCfg)
                  00008494    00000124     cli_mmwave.oer4f (.text:CLI_MMWaveContModeCfg)
                  000085b8    00000120     mss_cli.oer4f (.text:MmwDemo_CLICompRangeBiasAndRxChanPhaseCfg)
                  000086d8    00000008     libosal_xwr68xx.aer4f : SemaphoreP_tirtos.oer4f (.text:SemaphoreP_Params_init)
                  000086e0    00000118     sysbios.aer4ft : BIOS.obj (.text:ti_sysbios_family_arm_v7r_vim_Hwi_Instance_init__E)
                  000087f8    00000008     libmmwavelink_xwr68xx.aer4f : rl_driver.oer4f (.text:rlDriverConstructOutMsg)
                  00008800    00000118     sysbios.aer4ft : BIOS.obj (.text:ti_sysbios_knl_Swi_run__I)
                  00008918    00000114     libmmwavelink_xwr68xx.aer4f : rl_driver.oer4f (.text:rlDriverCmdSendRetry)
                  00008a2c    0000010c     libmmwave_xwr68xx.aer4f : mmwave_dualcore.oer4f (.text:MMWave_deviceInitFxn)
                  00008b38    00000008     libmmwavelink_xwr68xx.aer4f : rl_driver.oer4f (.text:rlDriverGetHandle)
                  00008b40    0000010c     sysbios.aer4ft : BIOS.obj (.text:xdc_runtime_Core_constructObject__I)
                  00008c4c    00000108     libmailbox_xwr68xx.aer4f : mailbox.oer4f (.text:Mailbox_write)
                  00008d54    00000108     mss_main.oer4f (.text:MmwDemo_mssMmwaveEventCallbackFxn)
                  00008e5c    00000004     libmmwave_xwr68xx.aer4f : mmwave_listlib.oer4f (.text:MMWave_listGetHead)
                  00008e60    00000104     sysbios.aer4ft : BIOS.obj (.text:ti_sysbios_timers_rti_Timer_getFreq__E)
                  00008f64    00000100     cli_mmwave.oer4f (.text:CLI_MMWaveBPMCfgAdvanced)
                  00009064    00000100     libmmwave_xwr68xx.aer4f : mmwave_link.oer4f (.text:MMWave_startLink)
                  00009164    000000fc     libcrc_xwr68xx.aer4f : crc.oer4f (.text:CRC_computeSignature)
                  00009260    000000fc     libdma_xwr68xx.aer4f : dma.oer4f (.text:DMA_disableInterrupt)
                  0000935c    000000fc     libmmwavelink_xwr68xx.aer4f : rl_driver.oer4f (.text:rlDriverInit)
                  00009458    000000f8                                 : rl_driver.oer4f (.text:rlDriverRdVerifyMsg)
                  00009550    000000f8     mss_mmw_per4ft.oer4ft (.text:xdc_runtime_System_printfExtend__I)
                  00009648    00000008     sysbios.aer4ft : BIOS.obj (.text:ti_sysbios_family_arm_v7a_Pmu_getEnabled__E)
                  00009650    000000f0                    : BIOS.obj (.text:ti_sysbios_family_arm_v7r_vim_Hwi_Module_startup__E)
                  00009740    000000ec     rtsv7R4_T_le_v3D16_eabi.lib : s_scalbn.obj (.text)
                  0000982c    00000004     libmmwave_xwr68xx.aer4f : mmwave_listlib.oer4f (.text:MMWave_listGetNext)
                  00009830    000000ec     sysbios.aer4ft : BIOS.obj (.text:ti_sysbios_heaps_HeapBuf_Module_startup__E)
                  0000991c    000000e8     cli.oer4f (.text:CLI_open)
                  00009a04    000000e6     inference.oer4f (.text:Inference)
                  00009aea    00000002     mss_main.oer4f (.text:MmwDemo_mssMmwaveOpenCallbackFxn)
                  00009aec    000000e4     libdma_xwr68xx.aer4f : dma.oer4f (.text:DMA_clearChannelInterruptFlag)
                  00009bd0    000000e4     libmmwave_xwr68xx.aer4f : mmwave_link.oer4f (.text:MMWave_asyncEventHandler)
                  00009cb4    000000dc     mss_cli.oer4f (.text:MmwDemo_CLIPeakGroupingCfg)
                  00009d90    000000dc     rtsv7R4_T_le_v3D16_eabi.lib : setvbuf.obj (.text)
                  00009e6c    000000d8     libdma_xwr68xx.aer4f : dma.oer4f (.text:DMA_enableInterrupt)
                  00009f44    000000d8     libmmwave_xwr68xx.aer4f : mmwave.oer4f (.text:MMWave_init)
                  0000a01c    000000d8     mss_cli.oer4f (.text:MmwDemo_CLIChirpQualityRxSatMonCfg)
                  0000a0f4    000000d4     libmailbox_xwr68xx.aer4f : mailbox.oer4f (.text:Mailbox_read)
                  0000a1c8    000000d4     mss_main.oer4f (.text:MmwDemo_mssDataPathStop)
                  0000a29c    000000d4     libmmwavelink_xwr68xx.aer4f : rl_sensor.oer4f (.text:rlSetMultiBpmChirpConfig)
                  0000a370    000000d4     sysbios.aer4ft : BIOS.obj (.text:ti_sysbios_knl_Task_exit__E)
                  0000a444    0000000c     rtsv7R4_T_le_v3D16_eabi.lib : copy_zero_init.obj (.text:decompress:ZI)
                  0000a450    000000d4     sysbios.aer4ft : BIOS.obj (.text:ti_sysbios_knl_Task_schedule__I)
                  0000a524    000000d0     libsoc_xwr68xx.aer4f : soc_xwr68xx_mss.oer4f (.text:SOC_controlSecureFirewall)
                  0000a5f4    000000d0     sysbios.aer4ft : exc_Exception_asm.obj (.text:ti_sysbios_family_arm_exc_Exception_excHandlerAsm__I)
                  0000a6c4    000000cc     libmmwavelink_xwr68xx.aer4f : rl_sensor.oer4f (.text:rlRfCalibDataRestore)
                  0000a790    000000cc                                 : rl_sensor.oer4f (.text:rlSetChirpConfig)
                  0000a85c    000000cc     rtsv7R4_T_le_v3D16_eabi.lib : fflush.obj (.text)
                  0000a928    00000006     libmmwavelink_xwr68xx.aer4f : rl_controller.oer4f (.text:rlGetSubBlockLen)
                  0000a92e    00000002     libuart_xwr68xx.aer4f : uartsci.oer4f (.text:UartSci_init)
                  0000a930    000000cc     sysbios.aer4ft : BIOS.obj (.text:ti_sysbios_knl_Task_checkStacks__E)
                  0000a9fc    000000c8     libmmwave_xwr68xx.aer4f : mmwave_fullcfg.oer4f (.text:MMWave_addChirp)
                  0000aac4    000000c8                             : mmwave_link.oer4f (.text:MMWave_configBPM)
                  0000ab8c    000000c8                             : mmwave_fullcfg.oer4f (.text:MMWave_flushCfg)
                  0000ac54    000000c8                             : mmwave_fullcfg.oer4f (.text:MMWave_getChirpHandle)
                  0000ad1c    00000004                             : mmwave_link.oer4f (.text:MMWave_mboxClose)
                  0000ad20    000000c8     sysbios.aer4ft : BIOS.obj (.text:ti_sysbios_knl_Task_postInit__I)
                  0000ade8    000000c4     cli.oer4f (.text:CLI_help)
                  0000aeac    000000c4     mss_cli.oer4f (.text:MmwDemo_CLILvdsStreamCfg)
                  0000af70    000000c4     sysbios.aer4ft : BIOS.obj (.text:ti_sysbios_family_arm_v7a_Pmu_configureCounter__E)
                  0000b034    000000c0     mss_cli.oer4f (.text:MmwDemo_CLIChirpQualitySigImgMonCfg)
                  0000b0f4    000000c0     libmmwavelink_xwr68xx.aer4f : rl_driver.oer4f (.text:rlDriverMsgWrite)
                  0000b1b4    000000c0                                 : rl_sensor.oer4f (.text:rlSetFrameConfig)
                  0000b274    0000000c                                 : rl_driver.oer4f (.text:rlDriverGetPlatformId)
                  0000b280    000000c0     sysbios.aer4ft : BIOS.obj (.text:ti_sysbios_timers_rti_Timer_startup__E)
                  0000b340    000000bc     libgpio_xwr68xx.aer4f : gpio.oer4f (.text:GPIO_write)
                  0000b3fc    000000bc     libmmwave_xwr68xx.aer4f : mmwave_link.oer4f (.text:MMWave_computeCRC)
                  0000b4b8    000000bc     mss_cli.oer4f (.text:MmwDemo_CLIBpmCfg)
                  0000b574    000000bc     mss_cli.oer4f (.text:MmwDemo_CLICfarCfg)
                  0000b630    000000bc     rtsv7R4_T_le_v3D16_eabi.lib : open.obj (.text)
                  0000b6ec    000000b8     mss_cli.oer4f (.text:MmwDemo_CLIMeasureRangeBiasAndRxChanPhaseCfg)
                  0000b7a4    000000b6     libsoc_xwr68xx.aer4f : soc_mpu.o (.text)
                  0000b85a    00000002     rtsv7R4_T_le_v3D16_eabi.lib : i_div0.obj (.text)
                  0000b85c    000000b4     mss_main.oer4f (.text:MmwDemo_mssDataPathStart)
                  0000b910    000000b4     sysbios.aer4ft : BIOS.obj (.text:ti_sysbios_gates_GateMutex_enter__E)
                  0000b9c4    0000000c                    : BIOS.obj (.text:ti_sysbios_family_arm_v7a_Pmu_configureCounterI__I)
                  0000b9d0    000000b4                    : BIOS.obj (.text:ti_sysbios_knl_Task_startCore__E)
                  0000ba84    000000b2     libuart_xwr68xx.aer4f : uartsci_dma.oer4f (.text:UartSci_openDMA)
                  0000bb36    00000002     mss_mmw_per4ft.oer4ft (.text:ti_sysbios_BIOS_nullFunc__I)
                  0000bb38    000000b0     libmmwave_xwr68xx.aer4f : mmwave_fullcfg.oer4f (.text:MMWave_addProfile)
                  0000bbe8    000000b0     libmmwavelink_xwr68xx.aer4f : rl_sensor.oer4f (.text:rlSetProfileConfig)
                  0000bc98    00000004     libmmwave_xwr68xx.aer4f : mmwave_link.oer4f (.text:MMWave_mboxRead)
                  0000bc9c    00000004                             : mmwave_link.oer4f (.text:MMWave_registerInterruptHandler)
                  0000bca0    000000b0     sysbios.aer4ft : BIOS.obj (.text:xdc_runtime_Text_putMod__E)
                  0000bd50    000000ae     rtsv7R4_T_le_v3D16_eabi.lib : _io_perm.obj (.text)
                  0000bdfe    00000002     mss_mmw_per4ft.oer4ft (.text:xdc_runtime_Startup_reset__I)
                  0000be00    000000ac     libesm_xwr68xx.aer4f : esm.oer4f (.text:ESM_processInterrupt)
                  0000beac    000000ac     mss_cli.oer4f (.text:MmwDemo_CLISetDataLogger)
                  0000bf58    000000a8     cli_mmwave.oer4f (.text:CLI_MMWaveExtensionHelp)
                  0000c000    000000a8     libmmwave_xwr68xx.aer4f : mmwave_link.oer4f (.text:MMWave_configureProfileChirp)
                  0000c0a8    000000a8                             : mmwave_fullcfg.oer4f (.text:MMWave_getBpmChirpHandle)
                  0000c150    000000a8     mss_cli.oer4f (.text:MmwDemo_CLIGuiMonSel)
                  0000c1f8    000000a8     libpinmux_xwr68xx.aer4f : pinmux.oer4f (.text:Pinmux_Set_OverrideCtrl)
                  0000c2a0    000000a8     libmmwavelink_xwr68xx.aer4f : rl_sensor.oer4f (.text:rlSetAdvFrameConfig)
                  0000c348    000000a8     mss_main.oer4f (.text:runPeopleDetection)
                  0000c3f0    000000a8     sysbios.aer4ft : BIOS.obj (.text:ti_sysbios_knl_Swi_post__E)
                  0000c498    000000a4     libdma_xwr68xx.aer4f : dma.oer4f (.text:DMA_assignChannel)
                  0000c53c    000000a4                          : dma.oer4f (.text:DMA_getChannelInterruptFlag)
                  0000c5e0    000000a4     libesm_xwr68xx.aer4f : esm.oer4f (.text:ESM_init)
                  0000c684    000000a4     libmmwave_xwr68xx.aer4f : mmwave_fullcfg.oer4f (.text:MMWave_addBpmChirp)
                  0000c728    000000a4                             : mmwave.oer4f (.text:MMWave_start)
                  0000c7cc    000000a4     mss_main.oer4f (.text:MmwDemo_waitSensorStopComplete)
                  0000c870    000000a4     libsoc_xwr68xx.aer4f : soc_xwr68xx_mss.oer4f (.text:SOC_unhaltDSS)
                  0000c914    0000000c     mss_mmw_per4ft.oer4ft (.text:ti_sysbios_knl_Queue_Object__get__S)
                  0000c920    000000a2     sysbios.aer4ft : BIOS.obj (.text:xdc_runtime_Text_putSite__E)
                  0000c9c2    00000002     --HOLE-- [fill = 0]
                  0000c9c4    000000a0     auto_init.aer4ft : auto_init.oer4ft (.text)
                  0000ca64    000000a0     libmmwavelink_xwr68xx.aer4f : rl_driver.oer4f (.text:rlDriverWaitForResponse)
                  0000cb04    0000000a     libosal_xwr68xx.aer4f : MemoryP_tirtos.oer4f (.text:MemoryP_ctrlFree)
                  0000cb0e    00000002     --HOLE-- [fill = 0]
                  0000cb10    000000a0     sysbios.aer4ft : BIOS.obj (.text:ti_sysbios_knl_Task_blockI__E)
                  0000cbb0    0000009c     libmmwave_xwr68xx.aer4f : mmwave_link.oer4f (.text:MMWave_configLink)
                  0000cc4c    0000009c                             : mmwave_fullcfg.oer4f (.text:MMWave_getProfileHandle)
                  0000cce8    0000009c     libuart_xwr68xx.aer4f : uartsci.oer4f (.text:UartSci_write)
                  0000cd84    0000009c     rtsv7R4_T_le_v3D16_eabi.lib : memcpy_t2.obj (.text)
                  0000ce20    0000009c     sysbios.aer4ft : BIOS.obj (.text:ti_sysbios_family_arm_v7r_vim_Hwi_initIntController__I)
                  0000cebc    00000004     libmmwave_xwr68xx.aer4f : mmwave_link.oer4f (.text:MMWave_unmaskHostIRQ)
                  0000cec0    0000009c     sysbios.aer4ft : BIOS.obj (.text:ti_sysbios_family_arm_v7r_vim_Hwi_mapChannel__I)
                  0000cf5c    00000004     libmmwave_xwr68xx.aer4f : mmwave_link.oer4f (.text:MMWave_waitIRQStatus)
                  0000cf60    0000009c     sysbios.aer4ft : BIOS.obj (.text:ti_sysbios_knl_Semaphore_Instance_init__E)
                  0000cffc    00000098     libmmwave_xwr68xx.aer4f : mmwave_fullcfg.oer4f (.text:MMWave_getChirpCfg)
                  0000d094    00000098     rtsv7R4_T_le_v3D16_eabi.lib : fclose.obj (.text)
                  0000d12c    00000098                                 : fputc.obj (.text)
                  0000d1c4    00000098     sysbios.aer4ft : vim_Hwi_asm_switch.obj (.text)
                  0000d25c    00000096     libuart_xwr68xx.aer4f : uartsci.oer4f (.text:UartSci_readChar)
                  0000d2f2    00000002     --HOLE-- [fill = 0]
                  0000d2f4    00000094     libmmwavelink_xwr68xx.aer4f : rl_driver.oer4f (.text:rlDriverDeInit)
                  0000d388    00000094                                 : rl_driver.oer4f (.text:rlDriverMsgReadCmdCtx)
                  0000d41c    00000094     sysbios.aer4ft : vim_Hwi_asm.obj (.text:ti_sysbios_family_arm_v7r_vim_Hwi_dispatchIRQ__I)
                  0000d4b0    00000090     libgpio_xwr68xx.aer4f : gpio.oer4f (.text:GPIO_init)
                  0000d540    00000090     libmailbox_xwr68xx.aer4f : mailbox.oer4f (.text:Mailbox_close)
                  0000d5d0    00000090     mss_cli.oer4f (.text:MmwDemo_CLIADCBufCfg)
                  0000d660    00000090     mss_main.oer4f (.text:MmwDemo_waitSensorStartComplete)
                  0000d6f0    00000090     libuart_xwr68xx.aer4f : uartsci_dma.oer4f (.text:UartSci_initiateTxDMA)
                  0000d780    00000090                           : uartsci.oer4f (.text:UartSci_read)
                  0000d810    00000090     utils.oer4f (.text:soft_max)
                  0000d8a0    00000090     sysbios.aer4ft : BIOS.obj (.text:ti_sysbios_family_arm_v7a_Pmu_startCounter__E)
                  0000d930    00000090                    : BIOS.obj (.text:ti_sysbios_knl_Task_unblockI__E)
                  0000d9c0    0000008c     cli_mmwave.oer4f (.text:CLI_MMWaveDataOutputMode)
                  0000da4c    0000008c     mss_cli.oer4f (.text:MmwDemo_CLIAnalogMonitorCfg)
                  0000dad8    0000008c     libsoc_xwr68xx.aer4f : soc_xwr68xx.oer4f (.text:SOC_translateAddress)
                  0000db64    0000008c     libuart_xwr68xx.aer4f : uartsci_dma.oer4f (.text:UartSci_initiateRxDMA)
                  0000dbf0    0000008c     libmmwavelink_xwr68xx.aer4f : rl_device.oer4f (.text:rlDevicePowerOn)
                  0000dc7c    0000008c                                 : rl_driver.oer4f (.text:rlDriverMsgCmdReply)
                  0000dd08    00000004     mss_main.oer4f (.text:MmwDemo_sleep)
                  0000dd0c    00000004     libsoc_xwr68xx.aer4f : soc_xwr68xx_mss.oer4f (.text:SOC_isSecureDevice)
                  0000dd10    0000008c     sysbios.aer4ft : BIOS.obj (.text:ti_sysbios_family_arm_v7r_vim_Hwi_Instance_finalize__E)
                  0000dd9c    00000004     mss_mmw_per4ft.oer4ft (.text:ti_sysbios_BIOS_RtsGateProxy_enter__E)
                  0000dda0    0000008c     sysbios.aer4ft : BIOS.obj (.text:xdc_runtime_Memory_alloc__E)
                  0000de2c    00000088     libmmwave_xwr68xx.aer4f : mmwave_fullcfg.oer4f (.text:MMWave_getProfileCfg)
                  0000deb4    00000088     mss_cli.oer4f (.text:MmwDemo_CLIMultiObjBeamForming)
                  0000df3c    00000088     mss_cli.oer4f (.text:MmwDemo_CLINearFieldCorrection)
                  0000dfc4    00000088     mss_main.oer4f (.text:MmwDemo_gpioSwitchTask)
                  0000e04c    00000088     libsoc_xwr68xx.aer4f : soc.oer4f (.text:SOC_init)
                  0000e0d4    00000088     rtsv7R4_T_le_v3D16_eabi.lib : vsnprintf.obj (.text)
                  0000e15c    00000084     libmmwave_xwr68xx.aer4f : mmwave_dualcore.oer4f (.text:MMWave_deviceCfgAsyncEvent)
                  0000e1e0    00000084                             : mmwave_dualcore.oer4f (.text:MMWave_deviceEventFxn)
                  0000e264    00000084                             : mmwave_fullcfg.oer4f (.text:MMWave_getNumBpmChirp)
                  0000e2e8    00000084                             : mmwave.oer4f (.text:MMWave_open)
                  0000e36c    00000080     cli_mmwave.oer4f (.text:CLI_MMWaveChannelCfg)
                  0000e3ec    00000080     libmmwave_xwr68xx.aer4f : mmwave_fullcfg.oer4f (.text:MMWave_getBpmChirpCfg)
                  0000e46c    00000080     libuart_xwr68xx.aer4f : uartsci.oer4f (.text:UartSci_writePolling)
                  0000e4ec    00000080     mss_main.oer4f (.text:findDelta)
                  0000e56c    00000080     libmmwavelink_xwr68xx.aer4f : rl_driver.oer4f (.text:rlDriverExecuteGetApi)
                  0000e5ec    00000004     mss_mmw_per4ft.oer4ft (.text:ti_sysbios_BIOS_RtsGateProxy_leave__E)
                  0000e5f0    00000080     sysbios.aer4ft : BIOS.obj (.text:ti_sysbios_timers_rti_Timer_initDevice__I)
                  0000e670    0000007e     libosal_xwr68xx.aer4f : HwiP_tirtos.oer4f (.text:HwiP_create)
                  0000e6ee    00000002     --HOLE-- [fill = 0]
                  0000e6f0    0000007c     libmmwave_xwr68xx.aer4f : mmwave_dualcore.oer4f (.text:MMWave_deviceOpenFxn)
                  0000e76c    0000007c     libmailbox_xwr68xx.aer4f : mailbox.oer4f (.text:Mailbox_init)
                  0000e7e8    0000007c     libuart_xwr68xx.aer4f : uartsci.oer4f (.text:UartSci_readPolling)
                  0000e864    0000007c     sysbios.aer4ft : arm_TaskSupport_asm.obj (.text:_ti_sysbios_family_arm_TaskSupport_buildTaskStack)
                  0000e8e0    0000007c                    : BIOS.obj (.text:xdc_runtime_Core_deleteObject__I)
                  0000e95c    0000007b     mss_cli.oer4f (.text:MmwDemo_CLIGetSubframe)
                  0000e9d7    00000001     --HOLE-- [fill = 0]
                  0000e9d8    0000007a     rtsv7R4_T_le_v3D16_eabi.lib : memset_t2.obj (.text)
                  0000ea52    00000002     --HOLE-- [fill = 0]
                  0000ea54    00000078     cli_mmwave.oer4f (.text:CLI_MMWaveADCCfg)
                  0000eacc    00000078     libmmwave_xwr68xx.aer4f : mmwave_fullcfg.oer4f (.text:MMWave_getNumChirps)
                  0000eb44    00000078     mss_cli.oer4f (.text:MmwDemo_CLIExtendedMaxVelocity)
                  0000ebbc    00000078     mss_main.oer4f (.text:MmwDemo_Dss2MssISR)
                  0000ec34    00000074     libmmwave_xwr68xx.aer4f : mmwave.oer4f (.text:MMWave_config)
                  0000eca8    00000074                             : mmwave_dualcore.oer4f (.text:MMWave_deviceStartFxn)
                  0000ed1c    00000074     mss_cli.oer4f (.text:MmwDemo_CLIClutterRemoval)
                  0000ed90    00000074     libsoc_xwr68xx.aer4f : soc.oer4f (.text:SOC_getDeviceRFFreqScaleFactor)
                  0000ee04    00000074     boot.aer4ft : boot.oer4ft (.text)
                  0000ee78    00000074     libmmwavelink_xwr68xx.aer4f : rl_driver.oer4f (.text:rlDriverAsyncEventHandler)
                  0000eeec    00000074                                 : rl_driver.oer4f (.text:rlDriverProcRdMsg)
                  0000ef60    00000074     rtsv7R4_T_le_v3D16_eabi.lib : getdevice.obj (.text)
                  0000efd4    00000074                                 : s_frexp.obj (.text)
                  0000f048    00000072     libmmwavelink_xwr68xx.aer4f : rl_driver.oer4f (.text:rlDriverClientCbCheck)
                  0000f0ba    00000002     --HOLE-- [fill = 0]
                  0000f0bc    00000070     libmmwave_xwr68xx.aer4f : mmwave_dualcore.oer4f (.text:MMWave_deviceCfgFxn)
                  0000f12c    00000070     mss_main.oer4f (.text:logFeatures)
                  0000f19c    00000004     mss_mmw_per4ft.oer4ft (.text:ti_sysbios_family_arm_TaskSupport_Module__startupDone__S)
                  0000f1a0    00000070     sysbios.aer4ft : BIOS.obj (.text:xdc_runtime_Error_print__E)
                  0000f210    00000070                    : BIOS.obj (.text:xdc_runtime_Text_visitRope2__I)
                  0000f280    0000006c     libdma_xwr68xx.aer4f : dma.oer4f (.text:DMA_disableChannel)
                  0000f2ec    0000006c     libgpio_xwr68xx.aer4f : gpio.oer4f (.text:GPIO_enableInt)
                  0000f358    0000006c     libmmwave_xwr68xx.aer4f : mmwave_link.oer4f (.text:MMWave_spawn)
                  0000f3c4    0000006c                             : mmwave_link.oer4f (.text:MMWave_stopLink)
                  0000f430    0000006c     libpinmux_xwr68xx.aer4f : pinmux.oer4f (.text:Pinmux_Set_FuncSel)
                  0000f49c    0000006c     mss_main.oer4f (.text:angleDelta)
                  0000f508    0000006c     rtsv7R4_T_le_v3D16_eabi.lib : copy_decompress_lzss.obj (.text:decompress:lzss)
                  0000f574    0000006c                                 : trgmsg.obj (.text)
                  0000f5e0    0000006a     libuart_xwr68xx.aer4f : uartsci.oer4f (.text:UartSci_control)
                  0000f64a    00000002     --HOLE-- [fill = 0]
                  0000f64c    00000068     libdma_xwr68xx.aer4f : dma.oer4f (.text:DMA_enableChannel)
                  0000f6b4    00000068     libmmwave_xwr68xx.aer4f : mmwave_dualcore.oer4f (.text:MMWave_deviceStopFxn)
                  0000f71c    00000068     libmailbox_xwr68xx.aer4f : mailbox.oer4f (.text:Mailbox_readFlush)
                  0000f784    00000068     libmmwavelink_xwr68xx.aer4f : rl_driver.oer4f (.text:rlDriverExecuteSetApi)
                  0000f7ec    00000068                                 : rl_driver.oer4f (.text:rlDriverHostIrqHandler)
                  0000f854    00000068     rtsv7R4_T_le_v3D16_eabi.lib : hostlseek.obj (.text)
                  0000f8bc    00000068                                 : hostrename.obj (.text)
                  0000f924    0000000a     libosal_xwr68xx.aer4f : SemaphoreP_tirtos.oer4f (.text:SemaphoreP_post)
                  0000f92e    00000002     --HOLE-- [fill = 0]
                  0000f930    00000068     sysbios.aer4ft : BIOS.obj (.text:ti_sysbios_knl_Swi_schedule__I)
                  0000f998    00000067     mss_main.oer4f (.text:MmwDemo_mssSetHsiClk)
                  0000f9ff    00000001     --HOLE-- [fill = 0]
                  0000fa00    00000066     libmmwavelink_xwr68xx.aer4f : rl_device.oer4f (.text:rlDevicePowerOff)
                  0000fa66    00000002     --HOLE-- [fill = 0]
                  0000fa68    00000064     cli_mmwave.oer4f (.text:CLI_MMWaveLowPowerCfg)
                  0000facc    00000064     libosal_xwr68xx.aer4f : SemaphoreP_tirtos.oer4f (.text:SemaphoreP_create)
                  0000fb30    00000064     rtsv7R4_T_le_v3D16_eabi.lib : fseek.obj (.text)
                  0000fb94    00000064                                 : sprintf.obj (.text)
                  0000fbf8    00000064     sysbios.aer4ft : exc_Exception_asm.obj (.text:ti_sysbios_family_arm_exc_Exception_initCore0__I)
                  0000fc5c    00000004     mss_mmw_per4ft.oer4ft (.text:ti_sysbios_family_arm_v7r_vim_Hwi_delete)
                  0000fc60    00000064     sysbios.aer4ft : BIOS.obj (.text:ti_sysbios_family_arm_v7r_vim_Hwi_phantomIntHandler__I)
                  0000fcc4    0000000a     libuart_xwr68xx.aer4f : UART.oer4f (.text:UART_read)
                  0000fcce    00000002     --HOLE-- [fill = 0]
                  0000fcd0    00000064     sysbios.aer4ft : BIOS.obj (.text:ti_sysbios_knl_Clock_logTick__E)
                  0000fd34    0000000a     libuart_xwr68xx.aer4f : UART.oer4f (.text:UART_write)
                  0000fd3e    00000002     --HOLE-- [fill = 0]
                  0000fd40    00000064     sysbios.aer4ft : BIOS.obj (.text:xdc_runtime_Startup_exec__E)
                  0000fda4    00000060     cli_mmwave.oer4f (.text:CLI_MMWaveExtensionHandler)
                  0000fe04    00000060     libgpio_xwr68xx.aer4f : gpio.oer4f (.text:GPIO_setCallback)
                  0000fe64    00000060     mss_main.oer4f (.text:gestureInferenceProcessing)
                  0000fec4    0000000a     libuart_xwr68xx.aer4f : UART.oer4f (.text:UART_writePolling)
                  0000fece    00000002     --HOLE-- [fill = 0]
                  0000fed0    00000060     sysbios.aer4ft : BIOS.obj (.text:ti_sysbios_heaps_HeapMem_alloc__E)
                  0000ff30    00000060                    : BIOS.obj (.text:xdc_runtime_Assert_raise__I)
                  0000ff90    0000005f                    : BIOS.obj (.text:xdc_runtime_Text_putLab__E)
                  0000ffef    00000001     --HOLE-- [fill = 0]
                  0000fff0    0000005e     libuart_xwr68xx.aer4f : uartsci.oer4f (.text:UartSci_writeChar)
                  0001004e    00000002     --HOLE-- [fill = 0]
                  00010050    0000005c     libmmwave_xwr68xx.aer4f : mmwave_link.oer4f (.text:MMWave_mboxOpen)
                  000100ac    0000005c                             : mmwave.oer4f (.text:MMWave_stop)
                  00010108    0000005c     rtsv7R4_T_le_v3D16_eabi.lib : hostopen.obj (.text)
                  00010164    0000005c                                 : hostread.obj (.text)
                  000101c0    0000005a     libuart_xwr68xx.aer4f : uartsci.oer4f (.text:UartSci_readCancel)
                  0001021a    0000005a     libmmwavelink_xwr68xx.aer4f : rl_driver.oer4f (.text:rlDriverCalChkSum)
                  00010274    00000058     libesm_xwr68xx.aer4f : esm.oer4f (.text:ESM_highpriority_FIQ)
                  000102cc    00000058     libmmwave_xwr68xx.aer4f : mmwave.oer4f (.text:MMWave_execute)
                  00010324    00000058                             : mmwave_link.oer4f (.text:MMWave_initCRC)
                  0001037c    00000058     mss_main.oer4f (.text:MmwDemo_mmWaveCtrlTask)
                  000103d4    00000058     libuart_xwr68xx.aer4f : uartsci_dma.oer4f (.text:UartSci_closeDMA)
                  0001042c    00000058     libmmwavelink_xwr68xx.aer4f : rl_driver.oer4f (.text:rlDriverMsgReadSpawnCtx)
                  00010484    00000058     rtsv7R4_T_le_v3D16_eabi.lib : close.obj (.text)
                  000104dc    00000058                                 : hostwrite.obj (.text)
                  00010534    0000000a     sysbios.aer4ft : tms570_Core_asm.obj (.text:ti_sysbios_family_arm_v7r_tms570_Core_getId__E)
                  0001053e    00000002     --HOLE-- [fill = 0]
                  00010540    00000058                    : BIOS.obj (.text:ti_sysbios_knl_Swi_restoreHwi__E)
                  00010598    00000056     libmmwavelink_xwr68xx.aer4f : rl_driver.oer4f (.text:rlDriverOsiCbCheck)
                  000105ee    00000002     --HOLE-- [fill = 0]
                  000105f0    00000054     libcrc_xwr68xx.aer4f : crc.oer4f (.text:CRC_getTransactionId)
                  00010644    00000054     libdma_xwr68xx.aer4f : dma.oer4f (.text:DMA_freeChannel)
                  00010698    00000054     libmmwave_xwr68xx.aer4f : mmwave_link.oer4f (.text:MMWave_initLink)
                  000106ec    00000054     rtsv7R4_T_le_v3D16_eabi.lib : ltoa.obj (.text)
                  00010740    00000054     mss_mmw_per4ft.oer4ft (.text:ti_sysbios_family_arm_v7r_vim_Hwi_create)
                  00010794    0000000a     mss_mmw_per4ft.oer4ft (.text:xdc_runtime_IHeap_alloc)
                  0001079e    00000002     --HOLE-- [fill = 0]
                  000107a0    00000054     sysbios.aer4ft : BIOS.obj (.text:ti_sysbios_heaps_HeapMem_getStats__E)
                  000107f4    0000000a     mss_mmw_per4ft.oer4ft (.text:xdc_runtime_IHeap_free)
                  000107fe    00000002     --HOLE-- [fill = 0]
                  00010800    00000054     sysbios.aer4ft : BIOS.obj (.text:ti_sysbios_knl_Swi_runLoop__I)
                  00010854    00000004     mss_mmw_per4ft.oer4ft (.text:ti_sysbios_heaps_HeapMem_Module_GateProxy_enter__E)
                  00010858    00000004     mss_mmw_per4ft.oer4ft (.text:ti_sysbios_heaps_HeapMem_Module_GateProxy_leave__E)
                  0001085c    00000004     mss_mmw_per4ft.oer4ft (.text:ti_sysbios_knl_Clock_TimerProxy_getMaxTicks__E)
                  00010860    00000054     sysbios.aer4ft : BIOS.obj (.text:ti_sysbios_knl_Swi_startup__E)
                  000108b4    00000004     mss_mmw_per4ft.oer4ft (.text:ti_sysbios_knl_Semaphore_delete)
                  000108b8    00000004     mss_mmw_per4ft.oer4ft (.text:xdc_runtime_System_Module_GateProxy_enter__E)
                  000108bc    00000004     mss_mmw_per4ft.oer4ft (.text:xdc_runtime_System_Module_GateProxy_leave__E)
                  000108c0    00000054     sysbios.aer4ft : BIOS.obj (.text:xdc_runtime_Core_assignLabel__I)
                  00010914    00000050     cli.oer4f (.text:CLI_write)
                  00010964    00000050     libcrc_xwr68xx.aer4f : crc.oer4f (.text:CRC_getSignature)
                  000109b4    00000050     libmmwave_xwr68xx.aer4f : mmwave.oer4f (.text:MMWave_sync)
                  00010a04    00000050     libmmwavelink_xwr68xx.aer4f : rl_driver.oer4f (.text:rlDeviceIdentifyCmdDir)
                  00010a54    00000050                                 : rl_driver.oer4f (.text:rlDriverVerifyCRC)
                  00010aa4    00000050     rtsv7R4_T_le_v3D16_eabi.lib : atoi.obj (.text)
                  00010af4    00000050                                 : exit.obj (.text)
                  00010b44    00000050                                 : u_div32.obj (.text)
                  00010b94    0000000c     --HOLE-- [fill = 0]
                  00010ba0    00000050     sysbios.aer4ft : BIOS.obj (.text:xdc_runtime_System_exit__E)
                  00010bf0    0000004c     libmailbox_xwr68xx.aer4f : mailbox.oer4f (.text:Mailbox_boxEmptyISRProcessing)
                  00010c3c    0000004c     libuart_xwr68xx.aer4f : uartsci.oer4f (.text:UartSci_writeCancel)
                  00010c88    0000004c     rtsv7R4_T_le_v3D16_eabi.lib : cpy_tbl.obj (.text)
                  00010cd4    0000000c     --HOLE-- [fill = 0]
                  00010ce0    0000004c     sysbios.aer4ft : BIOS.obj (.text:ti_sysbios_family_arm_v7r_vim_Hwi_getStackInfo__E)
                  00010d2c    0000004c     mss_mmw_per4ft.oer4ft (.text:ti_sysbios_knl_Task_create)
                  00010d78    0000004a     libmailbox_xwr68xx.aer4f : mailbox.oer4f (.text:Mailbox_boxFullISRProcessing)
                  00010dc2    0000000e     mss_cli.oer4f (.text:MmwDemo_CLISensorStop)
                  00010dd0    0000004a     sysbios.aer4ft : BIOS.obj (.text:xdc_runtime_Core_assignParams__I)
                  00010e1a    00000006     --HOLE-- [fill = 0]
                  00010e20    0000004a                    : BIOS.obj (.text:xdc_runtime_Text_xprintf__I)
                  00010e6a    00000048     libmmwavelink_xwr68xx.aer4f : rl_device.oer4f (.text:rlDeviceGetVersion)
                  00010eb2    00000002     --HOLE-- [fill = 0]
                  00010eb4    00000048                                 : rl_driver.oer4f (.text:rlDriverOsiInit)
                  00010efc    00000046     libmailbox_xwr68xx.aer4f : mailbox.oer4f (.text:CSL_FINSR)
                  00010f42    00000044     libcrc_xwr68xx.aer4f : crc.oer4f (.text:CRC_resetSignature)
                  00010f86    00000002     --HOLE-- [fill = 0]
                  00010f88    00000044     libmailbox_xwr68xx.aer4f : mailbox.oer4f (.text:Mailbox_boxFullISRMssDss)
                  00010fcc    00000044     mss_cli.oer4f (.text:MmwDemo_mssCfgUpdate)
                  00011010    00000044     rtsv7R4_T_le_v3D16_eabi.lib : hostclose.obj (.text)
                  00011054    00000044                                 : hostunlink.obj (.text)
                  00011098    00000008     --HOLE-- [fill = 0]
                  000110a0    00000044     sysbios.aer4ft : BIOS.obj (.text:ti_sysbios_family_arm_v7r_tms570_Core_Module_startup__E)
                  000110e4    0000000c     --HOLE-- [fill = 0]
                  000110f0    00000044                    : BIOS.obj (.text:ti_sysbios_knl_Task_allBlockedFunction__I)
                  00011134    0000000c     --HOLE-- [fill = 0]
                  00011140    00000044                    : BIOS.obj (.text:xdc_runtime_System_atexit__E)
                  00011184    00000042     libmmwave_xwr68xx.aer4f : mmwave_link.oer4f (.text:MMWave_executeLink)
                  000111c6    00000040     libmmwavelink_xwr68xx.aer4f : rl_driver.oer4f (.text:rlDriverValidateHdr)
                  00011206    00000002     --HOLE-- [fill = 0]
                  00011208    00000040     rtsv7R4_T_le_v3D16_eabi.lib : strtok.obj (.text)
                  00011248    00000008     --HOLE-- [fill = 0]
                  00011250    00000040     sysbios.aer4ft : BIOS.obj (.text:ti_sysbios_timers_rti_Timer_stop__E)
                  00011290    0000003e     libcrc_xwr68xx.aer4f : crc.oer4f (.text:CSL_FINSR)
                  000112ce    0000003e     libdma_xwr68xx.aer4f : dma.oer4f (.text:CSL_FINSR)
                  0001130c    0000003e     libgpio_xwr68xx.aer4f : gpio.oer4f (.text:CSL_FINSR)
                  0001134a    0000003e     libpinmux_xwr68xx.aer4f : pinmux.oer4f (.text:CSL_FINSR)
                  00011388    0000003e     libsoc_xwr68xx.aer4f : soc.oer4f (.text:CSL_FINSR)
                  000113c6    0000003e                          : soc_xwr68xx.oer4f (.text:CSL_FINSR)
                  00011404    0000003e                          : soc_xwr68xx_mss.oer4f (.text:CSL_FINSR)
                  00011442    0000003e     libuart_xwr68xx.aer4f : uartsci.oer4f (.text:CSL_FINSR)
                  00011480    0000003e     libmmwave_xwr68xx.aer4f : mmwave.oer4f (.text:MMWave_decodeError)
                  000114be    0000003e     libuart_xwr68xx.aer4f : uartsci.oer4f (.text:UartSci_close)
                  000114fc    0000003c     cli_mmwave.oer4f (.text:CLI_MMWaveFlushCfg)
                  00011538    0000003c     libmailbox_xwr68xx.aer4f : mailbox.oer4f (.text:Mailbox_writeReset)
                  00011574    0000003c     libsoc_xwr68xx.aer4f : soc.oer4f (.text:SOC_unhaltBSS)
                  000115b0    0000003c     libmmwavelink_xwr68xx.aer4f : rl_controller.oer4f (.text:rlGetSubBlock)
                  000115ec    0000003c     sysbios.aer4ft : vim_Hwi_asm.obj (.text:ti_sysbios_family_arm_v7r_vim_Hwi_init__I)
                  00011628    00000008     --HOLE-- [fill = 0]
                  00011630    0000003c                    : BIOS.obj (.text:ti_sysbios_hal_Hwi_checkStack)
                  0001166c    00000004     --HOLE-- [fill = 0]
                  00011670    0000003c                    : BIOS.obj (.text:ti_sysbios_heaps_HeapMem_init__I)
                  000116ac    00000004     --HOLE-- [fill = 0]
                  000116b0    0000003c                    : BIOS.obj (.text:ti_sysbios_timers_rti_Timer_setPeriod__E)
                  000116ec    0000003a     libosal_xwr68xx.aer4f : HwiP_tirtos.oer4f (.text:HwiP_delete)
                  00011726    0000003a     mss_main.oer4f (.text:maxCheck)
                  00011760    00000038     cli_mmwave.oer4f (.text:CLI_MMWaveExtensionInit)
                  00011798    00000038     libuart_xwr68xx.aer4f : UART.oer4f (.text:UART_init)
                  000117d0    00000036     mss_main.oer4f (.text:logEnergy)
                  00011806    00000036     libmmwavelink_xwr68xx.aer4f : rl_controller.oer4f (.text:rlAppendSubBlock)
                  0001183c    00000036     rtsv7R4_T_le_v3D16_eabi.lib : strncpy.obj (.text)
                  00011872    00000002     --HOLE-- [fill = 0]
                  00011874    00000034     libmmwave_xwr68xx.aer4f : mmwave_link.oer4f (.text:MMWave_mboxWrite)
                  000118a8    00000034     mss_main.oer4f (.text:MmwDemo_installDss2MssExceptionSignallingISR)
                  000118dc    00000034     libsoc_xwr68xx.aer4f : soc_xwr68xx.oer4f (.text:SOC_setMMWaveDSSLinkState)
                  00011910    00000034                          : soc_xwr68xx.oer4f (.text:SOC_setMMWaveMSSLinkState)
                  00011944    00000034     libuart_xwr68xx.aer4f : UART.oer4f (.text:UART_open)
                  00011978    00000034     mss_mmw_per4ft.oer4ft (.text:ti_sysbios_knl_Semaphore_create)
                  000119ac    00000032     libcrc_xwr68xx.aer4f : crc.oer4f (.text:CRC_getCRCDataSelectBitValue)
                  000119de    00000002     --HOLE-- [fill = 0]
                  000119e0    00000032                          : crc.oer4f (.text:CRC_getCRCTypeBitValue)
                  00011a12    0000000e     libosal_xwr68xx.aer4f : SemaphoreP_tirtos.oer4f (.text:SemaphoreP_delete)
                  00011a20    00000032     sysbios.aer4ft : BIOS.obj (.text:ti_sysbios_hal_Hwi_initStack)
                  00011a52    00000030     libmmwave_xwr68xx.aer4f : mmwave_listlib.oer4f (.text:MMWave_listRemoveNode)
                  00011a82    00000002     --HOLE-- [fill = 0]
                  00011a84    00000030     libsoc_xwr68xx.aer4f : soc.oer4f (.text:SOC_getDevicePartNumber)
                  00011ab4    00000030     libmmwavelink_xwr68xx.aer4f : rl_sensor.oer4f (.text:rlSensorStart)
                  00011ae4    00000030     mss_mmw_per4ft.oer4ft (.text:ti_sysbios_BIOS_atExitFunc__I)
                  00011b14    00000030     mss_mmw_per4ft.oer4ft (.text:ti_sysbios_BIOS_startFunc__I)
                  00011b44    0000000c     --HOLE-- [fill = 0]
                  00011b50    00000030     sysbios.aer4ft : BIOS.obj (.text:ti_sysbios_family_arm_TaskSupport_start__E)
                  00011b80    00000030     mss_mmw_per4ft.oer4ft (.text:ti_sysbios_gates_GateHwi_Object__create__S)
                  00011bb0    00000030     mss_mmw_per4ft.oer4ft (.text:ti_sysbios_gates_GateMutex_Object__create__S)
                  00011be0    00000030     mss_mmw_per4ft.oer4ft (.text:ti_sysbios_heaps_HeapMem_Object__create__S)
                  00011c10    00000030     sysbios.aer4ft : BIOS.obj (.text:ti_sysbios_heaps_HeapMem_free__E)
                  00011c40    00000030     mss_mmw_per4ft.oer4ft (.text:ti_sysbios_knl_Event_create)
                  00011c70    00000030     mss_mmw_per4ft.oer4ft (.text:ti_sysbios_knl_Semaphore_construct)
                  00011ca0    0000002f     sysbios.aer4ft : BIOS.obj (.text:xdc_runtime_Text_printVisFxn__I)
                  00011ccf    00000001     --HOLE-- [fill = 0]
                  00011cd0    0000002e                    : BIOS.obj (.text:ti_sysbios_knl_Event_pendTimeout__I)
                  00011cfe    00000002     --HOLE-- [fill = 0]
                  00011d00    0000002e                    : BIOS.obj (.text:ti_sysbios_knl_Semaphore_pendTimeout__I)
                  00011d2e    0000002e     mss_mmw_per4ft.oer4ft (.text:ti_sysbios_rts_MemAlloc_alloc)
                  00011d5c    0000002c     libgpio_xwr68xx.aer4f : gpio.oer4f (.text:GPIO_HighPriorityISR)
                  00011d88    0000002c                           : gpio.oer4f (.text:GPIO_LowPriorityISR)
                  00011db4    0000002c     libmmwave_xwr68xx.aer4f : mmwave_osal.oer4f (.text:MMWave_osalMutexCreate)
                  00011de0    0000002c                             : mmwave_osal.oer4f (.text:MMWave_osalSemCreate)
                  00011e0c    0000002c     libsoc_xwr68xx.aer4f : soc_xwr68xx_mss.oer4f (.text:SOC_waitBSSPowerUp)
                  00011e38    0000002c     utils.oer4f (.text:compute_innerprod)
                  00011e64    0000002c     utils.oer4f (.text:relu_activation)
                  00011e90    0000002c     libmmwavelink_xwr68xx.aer4f : rl_device.oer4f (.text:rlDeviceGetMssVersion)
                  00011ebc    0000002c                                 : rl_sensor.oer4f (.text:rlSensorStop)
                  00011ee8    0000002c     rtsv7R4_T_le_v3D16_eabi.lib : unlink.obj (.text)
                  00011f14    0000002c     mss_mmw_per4ft.oer4ft (.text:ti_sysbios_knl_Clock_doTick__I)
                  00011f40    0000002c     mss_mmw_per4ft.oer4ft (.text:ti_sysbios_knl_Queue_construct)
                  00011f6c    00000004     --HOLE-- [fill = 0]
                  00011f70    0000002c     sysbios.aer4ft : BIOS.obj (.text:ti_sysbios_knl_Swi_Module_startup__E)
                  00011f9c    00000004     --HOLE-- [fill = 0]
                  00011fa0    0000002c                    : BIOS.obj (.text:ti_sysbios_timers_rti_Timer_periodicStub__E)
                  00011fcc    0000002a     libsoc_xwr68xx.aer4f : soc.oer4f (.text:SOC_SystemISR)
                  00011ff6    0000002a     libmmwavelink_xwr68xx.aer4f : rl_device.oer4f (.text:rlDeviceGetMmWaveLinkVersion)
                  00012020    0000002a     rtsv7R4_T_le_v3D16_eabi.lib : strspn.obj (.text)
                  0001204a    00000002     --HOLE-- [fill = 0]
                  0001204c    00000028     libmailbox_xwr68xx.aer4f : mailbox.oer4f (.text:Mailbox_Config_init)
                  00012074    00000028     libuart_xwr68xx.aer4f : uartsci_dma.oer4f (.text:UartSci_RxDMACallbackFxn)
                  0001209c    00000028                           : uartsci_dma.oer4f (.text:UartSci_TxDMACallbackFxn)
                  000120c4    00000028     mss_cli.oer4f (.text:log2Approx)
                  000120ec    00000028     libmmwavelink_xwr68xx.aer4f : rl_driver.oer4f (.text:rlDriverConstructInMsg)
                  00012114    00000028     rtsv7R4_T_le_v3D16_eabi.lib : lseek.obj (.text)
                  0001213c    00000028                                 : write.obj (.text)
                  00012164    0000000c     --HOLE-- [fill = 0]
                  00012170    00000028     sysbios.aer4ft : BIOS.obj (.text:ti_sysbios_knl_Idle_run__E)
                  00012198    00000008     --HOLE-- [fill = 0]
                  000121a0    00000028                    : BIOS.obj (.text:xdc_runtime_SysStd_abort__E)
                  000121c8    00000008     --HOLE-- [fill = 0]
                  000121d0    00000028                    : BIOS.obj (.text:xdc_runtime_System_aprintf_va__F)
                  000121f8    00000026     libmmwavelink_xwr68xx.aer4f : rl_sensor.oer4f (.text:rlRfInitCalibConfig)
                  0001221e    00000026                                 : rl_sensor.oer4f (.text:rlRfRunTimeCalibConfig)
                  00012244    00000026                                 : rl_sensor.oer4f (.text:rlRfSetDeviceCfg)
                  0001226a    00000026                                 : rl_sensor.oer4f (.text:rlSetAdcOutConfig)
                  00012290    00000026                                 : rl_sensor.oer4f (.text:rlSetBpmCommonConfig)
                  000122b6    00000026                                 : rl_sensor.oer4f (.text:rlSetChannelConfig)
                  000122dc    00000026                                 : rl_sensor.oer4f (.text:rlSetContModeConfig)
                  00012302    00000026     rtsv7R4_T_le_v3D16_eabi.lib : memcmp.obj (.text)
                  00012328    00000008     --HOLE-- [fill = 0]
                  00012330    00000026     sysbios.aer4ft : BIOS.obj (.text:xdc_runtime_System_printf_va__F)
                  00012356    00000024     libcrc_xwr68xx.aer4f : crc.oer4f (.text:CRC_isTransactionIdValid)
                  0001237a    00000002     --HOLE-- [fill = 0]
                  0001237c    00000024     libgpio_xwr68xx.aer4f : gpio.oer4f (.text:GPIO_processInterrupt)
                  000123a0    00000024     mss_main.oer4f (.text:MmwDemo_notifySensorStart)
                  000123c4    00000024     libsoc_xwr68xx.aer4f : soc_xwr68xx.oer4f (.text:SOC_isMMWaveDSSOperational)
                  000123e8    00000024                          : soc_xwr68xx.oer4f (.text:SOC_isMMWaveMSSOperational)
                  0001240c    00000024     libmmwavelink_xwr68xx.aer4f : rl_device.oer4f (.text:rlDeviceSetHsiClk)
                  00012430    00000024                                 : rl_sensor.oer4f (.text:rlEnableContMode)
                  00012454    00000024                                 : rl_sensor.oer4f (.text:rlRfSetCalMonTimeUnitConfig)
                  00012478    00000024                                 : rl_sensor.oer4f (.text:rlSetLowPowerModeConfig)
                  0001249c    00000024     mss_mmw_per4ft.oer4ft (.text:ti_sysbios_BIOS_errorRaiseHook__I)
                  000124c0    00000024     mss_mmw_per4ft.oer4ft (.text:ti_sysbios_BIOS_registerRTSLock__I)
                  000124e4    00000024     mss_mmw_per4ft.oer4ft (.text:ti_sysbios_BIOS_removeRTSLock__I)
                  00012508    00000024     mss_mmw_per4ft.oer4ft (.text:ti_sysbios_gates_GateMutex_Object__delete__S)
                  0001252c    00000004     --HOLE-- [fill = 0]
                  00012530    00000024     sysbios.aer4ft : BIOS.obj (.text:ti_sysbios_knl_Clock_Module_startup__E)
                  00012554    00000024     mss_mmw_per4ft.oer4ft (.text:ti_sysbios_knl_Semaphore_Object__delete__S)
                  00012578    00000008     --HOLE-- [fill = 0]
                  00012580    00000024     sysbios.aer4ft : BIOS.obj (.text:ti_sysbios_knl_Task_restoreHwi__E)
                  000125a4    00000022     mss_cli.oer4f (.text:MmwDemo_CLISensorStart)
                  000125c6    00000022     libuart_xwr68xx.aer4f : uartsci.oer4f (.text:UartSci_disableRxDMA)
                  000125e8    00000022                           : uartsci.oer4f (.text:UartSci_enableRxDMA)
                  0001260a    00000022     rtsv7R4_T_le_v3D16_eabi.lib : strcspn.obj (.text)
                  0001262c    00000020     libesm_xwr68xx.aer4f : esm.oer4f (.text:ESM_lowpriority_IRQ)
                  0001264c    00000020     libmmwave_xwr68xx.aer4f : mmwave_listlib.oer4f (.text:MMWave_listCat)
                  0001266c    00000020     mss_main.oer4f (.text:MmwDemo_mboxWrite)
                  0001268c    00000020     libpinmux_xwr68xx.aer4f : pinmux.oer4f (.text:Pinmux_Unlock)
                  000126ac    00000020     libmmwavelink_xwr68xx.aer4f : rl_sensor.oer4f (.text:rlRfInit)
                  000126cc    00000004     --HOLE-- [fill = 0]
                  000126d0    00000020     sysbios.aer4ft : BIOS.obj (.text:ti_sysbios_family_arm_v7a_Pmu_Module_startup__E)
                  000126f0    00000020     mss_mmw_per4ft.oer4ft (.text:ti_sysbios_family_arm_v7r_vim_Hwi_Object__delete__S)
                  00012710    00000020     sysbios.aer4ft : BIOS.obj (.text:ti_sysbios_family_arm_v7r_vim_Hwi_disableInterrupt__E)
                  00012730    00000020                    : BIOS.obj (.text:ti_sysbios_family_arm_v7r_vim_Hwi_enableInterrupt__E)
                  00012750    00000020     mss_mmw_per4ft.oer4ft (.text:ti_sysbios_gates_GateHwi_Object__delete__S)
                  00012770    00000020     mss_mmw_per4ft.oer4ft (.text:ti_sysbios_heaps_HeapMem_Object__delete__S)
                  00012790    00000020     mss_mmw_per4ft.oer4ft (.text:ti_sysbios_knl_Semaphore_destruct)
                  000127b0    0000001e     libmmwave_xwr68xx.aer4f : mmwave_fullcfg.oer4f (.text:MMWave_internalDelChirp)
                  000127ce    0000001e     libsoc_xwr68xx.aer4f : soc_xwr68xx_mss.oer4f (.text:SOC_getOutAddr_LUTType)
                  000127ec    0000001c     libcrc_xwr68xx.aer4f : crc.oer4f (.text:CRC_releaseTransactionId)
                  00012808    0000001c     libdma_xwr68xx.aer4f : dma.oer4f (.text:CSL_FEXTR)
                  00012824    0000001c     libmmwave_xwr68xx.aer4f : mmwave.oer4f (.text:CSL_FEXTR)
                  00012840    0000001c     libsoc_xwr68xx.aer4f : soc.oer4f (.text:CSL_FEXTR)
                  0001285c    0000001c                          : soc_xwr68xx.oer4f (.text:CSL_FEXTR)
                  00012878    0000001c                          : soc_xwr68xx_mss.oer4f (.text:CSL_FEXTR)
                  00012894    0000001c     libuart_xwr68xx.aer4f : uartsci.oer4f (.text:CSL_FEXTR)
                  000128b0    0000001c     libmmwave_xwr68xx.aer4f : mmwave_listlib.oer4f (.text:MMWave_listRemove)
                  000128cc    0000001c     mss_main.oer4f (.text:MmwDemo_mssMmwaveStartCallbackFxn)
                  000128e8    0000001c     mss_main.oer4f (.text:MmwDemo_notifySensorStop)
                  00012904    0000001c     libsoc_xwr68xx.aer4f : soc_xwr68xx_mss.oer4f (.text:SOC_getInAddr_LUTType)
                  00012920    0000001c     sysbios.aer4ft : arm_TaskSupport_asm.obj (.text:_ti_sysbios_family_arm_TaskSupport_glue)
                  0001293c    0000001c                    : arm_TaskSupport_asm.obj (.text:_ti_sysbios_family_arm_TaskSupport_swap__E)
                  00012958    0000001c     rtsv7R4_T_le_v3D16_eabi.lib : memccpy.obj (.text)
                  00012974    0000001c     mss_mmw_per4ft.oer4ft (.text:ti_sysbios_BIOS_rtsLock__I)
                  00012990    0000001c     sysbios.aer4ft : BIOS.obj (.text:ti_sysbios_family_arm_v7r_vim_Hwi_clearInterrupt__E)
                  000129ac    00000004     --HOLE-- [fill = 0]
                  000129b0    0000001c                    : BIOS.obj (.text:ti_sysbios_gates_GateMutex_Instance_init__E)
                  000129cc    00000004     --HOLE-- [fill = 0]
                  000129d0    0000001c                    : BIOS.obj (.text:ti_sysbios_gates_GateMutex_leave__E)
                  000129ec    0000001c     mss_mmw_per4ft.oer4ft (.text:ti_sysbios_knl_Queue_destruct)
                  00012a08    0000001a     libmmwave_xwr68xx.aer4f : mmwave_dualcore.oer4f (.text:MMWave_deviceSyncFxn)
                  00012a22    0000001a                             : mmwave.oer4f (.text:MMWave_encodeError)
                  00012a3c    0000001a                             : mmwave_listlib.oer4f (.text:MMWave_listAdd)
                  00012a56    0000001a     mss_mmw_per4ft.oer4ft (.text:free)
                  00012a70    0000001a     libmmwavelink_xwr68xx.aer4f : rl_sensor.oer4f (.text:rlGetRfDieId)
                  00012a8a    0000001a     rtsv7R4_T_le_v3D16_eabi.lib : s_copysign.obj (.text)
                  00012aa4    0000001a     mss_mmw_per4ft.oer4ft (.text:ti_sysbios_gates_GateHwi_Handle__label__S)
                  00012abe    0000001a     mss_mmw_per4ft.oer4ft (.text:ti_sysbios_gates_GateMutex_Handle__label__S)
                  00012ad8    0000001a     mss_mmw_per4ft.oer4ft (.text:ti_sysbios_heaps_HeapMem_Handle__label__S)
                  00012af2    0000001a     mss_mmw_per4ft.oer4ft (.text:xdc_runtime_System_aprintf__E)
                  00012b0c    0000001a     mss_mmw_per4ft.oer4ft (.text:xdc_runtime_System_printf__E)
                  00012b26    00000002     --HOLE-- [fill = 0]
                  00012b28    00000018     cli_mmwave.oer4f (.text:CLI_getMMWaveExtensionOpenConfig)
                  00012b40    00000018     libmmwave_xwr68xx.aer4f : mmwave_osal.oer4f (.text:MMWave_osalMutexLock)
                  00012b58    00000018                             : mmwave_osal.oer4f (.text:MMWave_osalSemWait)
                  00012b70    00000018     libmailbox_xwr68xx.aer4f : mailbox.oer4f (.text:Mailbox_boxEmptyISRBss)
                  00012b88    00000018                              : mailbox.oer4f (.text:Mailbox_boxEmptyISRMssDss)
                  00012ba0    00000018                              : mailbox.oer4f (.text:Mailbox_boxFullISRBss)
                  00012bb8    00000018     libmmwavelink_xwr68xx.aer4f : rl_device.oer4f (.text:rlDeviceGetRfVersion)
                  00012bd0    00000018                                 : rl_driver.oer4f (.text:rlDriverCalCRC)
                  00012be8    00000018                                 : rl_driver.oer4f (.text:rlDriverFillPayload)
                  00012c00    00000018                                 : rl_driver.oer4f (.text:rlDriverIsDeviceMapValid)
                  00012c18    00000018     rtsv7R4_T_le_v3D16_eabi.lib : args_main.obj (.text)
                  00012c30    00000018                                 : strcmp.obj (.text)
                  00012c48    00000018     mss_mmw_per4ft.oer4ft (.text:ti_sysbios_BIOS_rtsUnlock__I)
                  00012c60    00000018     sysbios.aer4ft : BIOS.obj (.text:ti_sysbios_family_arm_v7a_Pmu_initCounters__I)
                  00012c78    00000018     mss_mmw_per4ft.oer4ft (.text:ti_sysbios_family_arm_v7r_vim_Hwi_Module__startupDone__F)
                  00012c90    00000018     mss_mmw_per4ft.oer4ft (.text:ti_sysbios_family_arm_v7r_vim_Hwi_Params__init__S)
                  00012ca8    00000018     mss_mmw_per4ft.oer4ft (.text:ti_sysbios_knl_Semaphore_Params__init__S)
                  00012cc0    00000018     mss_mmw_per4ft.oer4ft (.text:ti_sysbios_knl_Task_Params__init__S)
                  00012cd8    00000008     --HOLE-- [fill = 0]
                  00012ce0    00000018     sysbios.aer4ft : BIOS.obj (.text:ti_sysbios_knl_Task_enter__I)
                  00012cf8    00000018     mss_mmw_per4ft.oer4ft (.text:ti_sysbios_timers_rti_Timer_Module__startupDone__F)
                  00012d10    00000018     sysbios.aer4ft : BIOS.obj (.text:xdc_runtime_Error_init__E)
                  00012d28    00000016     rtsv7R4_T_le_v3D16_eabi.lib : strchr.obj (.text)
                  00012d3e    00000016                                 : strlen.obj (.text)
                  00012d54    00000016     mss_mmw_per4ft.oer4ft (.text:ti_sysbios_BIOS_exitFunc__I)
                  00012d6a    00000006     --HOLE-- [fill = 0]
                  00012d70    00000016     sysbios.aer4ft : BIOS.obj (.text:ti_sysbios_knl_Idle_loop__E)
                  00012d86    0000000a     --HOLE-- [fill = 0]
                  00012d90    00000016                    : BIOS.obj (.text:ti_sysbios_knl_Task_sleepTimeout__I)
                  00012da6    00000014     libosal_xwr68xx.aer4f : HwiP_tirtos.oer4f (.text:HwiP_Params_init)
                  00012dba    00000014     libmmwave_xwr68xx.aer4f : mmwave_fullcfg.oer4f (.text:MMWave_internalDelBpmChirp)
                  00012dce    00000014                             : mmwave_fullcfg.oer4f (.text:MMWave_internalDelProfile)
                  00012de2    00000014                             : mmwave_osal.oer4f (.text:MMWave_osalMutexDelete)
                  00012df6    00000014                             : mmwave_osal.oer4f (.text:MMWave_osalSemDelete)
                  00012e0a    00000002     --HOLE-- [fill = 0]
                  00012e0c    00000014     mss_main.oer4f (.text:MmwDemo_mssMmwaveConfigCallbackFxn)
                  00012e20    00000014     mss_main.oer4f (.text:MmwDemo_mssMmwaveStopCallbackFxn)
                  00012e34    00000014     libpinmux_xwr68xx.aer4f : pinmux.oer4f (.text:Pinmux_Lock)
                  00012e48    00000014     libuart_xwr68xx.aer4f : uartsci.oer4f (.text:UartSci_disableTxDMA)
                  00012e5c    00000014                           : uartsci.oer4f (.text:UartSci_enableTxDMA)
                  00012e70    00000014     libosal_xwr68xx.aer4f : DebugP_tirtos.oer4f (.text:_DebugP_assert)
                  00012e84    00000014     libmmwavelink_xwr68xx.aer4f : rl_controller.oer4f (.text:rlAppendDummy)
                  00012e98    00000014     rtsv7R4_T_le_v3D16_eabi.lib : _lock.obj (.text)
                  00012eac    00000014                                 : strcpy.obj (.text)
                  00012ec0    00000014     mss_mmw_per4ft.oer4ft (.text:ti_sysbios_heaps_HeapMem_Object__get__S)
                  00012ed4    0000000c     --HOLE-- [fill = 0]
                  00012ee0    00000014     sysbios.aer4ft : BIOS.obj (.text:ti_sysbios_knl_Event_Instance_init__E)
                  00012ef4    00000014     mss_mmw_per4ft.oer4ft (.text:ti_sysbios_knl_Swi_Object__get__S)
                  00012f08    00000012     libcrc_xwr68xx.aer4f : crc.oer4f (.text:CRC_initConfigParams)
                  00012f1a    00000012     libmmwave_xwr68xx.aer4f : mmwave_dualcore.oer4f (.text:MMWave_deviceGetDeviceInfo)
                  00012f2c    00000012     libosal_xwr68xx.aer4f : MemoryP_tirtos.oer4f (.text:MemoryP_ctrlAlloc)
                  00012f3e    00000012                           : SemaphoreP_tirtos.oer4f (.text:SemaphoreP_pend)
                  00012f50    00000012     sysbios.aer4ft : BIOS.obj (.text:ti_sysbios_hal_Hwi_Module_startup__E)
                  00012f62    00000012     mss_mmw_per4ft.oer4ft (.text:xdc_runtime_Startup_exec__I)
                  00012f74    00000010     libcrc_xwr68xx.aer4f : crc.oer4f (.text:CRC_getSignatureRegister)
                  00012f84    00000010     mss_main.oer4f (.text:MmwDemo_switchPressFxn)
                  00012f94    0000000c     --HOLE-- [fill = 0]
                  00012fa0    00000010     sysbios.aer4ft : BIOS.obj (.text:ti_sysbios_BIOS_setThreadType__E)
                  00012fb0    00000010                    : BIOS.obj (.text:ti_sysbios_BIOS_start__E)
                  00012fc0    00000010                    : BIOS.obj (.text:ti_sysbios_family_arm_v7a_Pmu_disableInterruptI__E)
                  00012fd0    00000010                    : BIOS.obj (.text:ti_sysbios_family_arm_v7a_Pmu_enableInterruptI__E)
                  00012fe0    00000010                    : BIOS.obj (.text:ti_sysbios_family_arm_v7a_Pmu_getNumCounters__E)
                  00012ff0    00000010                    : BIOS.obj (.text:ti_sysbios_family_arm_v7a_Pmu_startCounterI__E)
                  00013000    00000010                    : BIOS.obj (.text:ti_sysbios_family_arm_v7a_Pmu_stopCounterI__E)
                  00013010    00000010                    : BIOS.obj (.text:ti_sysbios_gates_GateMutex_Instance_finalize__E)
                  00013020    00000010     mss_mmw_per4ft.oer4ft (.text:ti_sysbios_heaps_HeapBuf_Object__get__S)
                  00013030    00000010     sysbios.aer4ft : BIOS.obj (.text:ti_sysbios_knl_Semaphore_Instance_finalize__E)
                  00013040    00000010                    : BIOS.obj (.text:ti_sysbios_knl_Swi_disable__E)
                  00013050    00000010     mss_mmw_per4ft.oer4ft (.text:ti_sysbios_knl_Task_Object__get__S)
                  00013060    00000010     sysbios.aer4ft : BIOS.obj (.text:ti_sysbios_knl_Task_disable__E)
                  00013070    00000010                    : BIOS.obj (.text:xdc_runtime_Memory_free__E)
                  00013080    00000010     mss_mmw_per4ft.oer4ft (.text:xdc_runtime_Text_visitRope__I)
                  00013090    0000000e     rtsv7R4_T_le_v3D16_eabi.lib : copy_decompress_none.obj (.text:decompress:none)
                  0001309e    00000002     --HOLE-- [fill = 0]
                  000130a0    0000000e     sysbios.aer4ft : BIOS.obj (.text:ti_sysbios_knl_Queue_empty__E)
                  000130ae    00000002     --HOLE-- [fill = 0]
                  000130b0    0000000c                    : BIOS.obj (.text:ti_sysbios_family_arm_TaskSupport_checkStack__E)
                  000130bc    00000004     --HOLE-- [fill = 0]
                  000130c0    0000000c                    : BIOS.obj (.text:ti_sysbios_family_arm_TaskSupport_getStackAlignment__E)
                  000130cc    00000004     --HOLE-- [fill = 0]
                  000130d0    0000000c                    : BIOS.obj (.text:ti_sysbios_family_arm_exc_Exception_Module_startup__E)
                  000130dc    00000004     --HOLE-- [fill = 0]
                  000130e0    0000000c                    : BIOS.obj (.text:ti_sysbios_family_arm_v7r_vim_Hwi_switchFromBootStack__E)
                  000130ec    00000004     --HOLE-- [fill = 0]
                  000130f0    0000000c                    : BIOS.obj (.text:xdc_runtime_Startup_rtsDone__E)
                  000130fc    00000004     --HOLE-- [fill = 0]
                  00013100    0000000c                    : BIOS.obj (.text:xdc_runtime_SysStd_exit__E)
                  0001310c    00000004     --HOLE-- [fill = 0]
                  00013110    00000008                    : BIOS.obj (.text:ti_sysbios_gates_GateHwi_enter__E)
                  00013118    00000008     --HOLE-- [fill = 0]
                  00013120    00000006                    : BIOS.obj (.text:ti_sysbios_family_arm_v7r_vim_Hwi_startup__E)
                  00013126    0000000a     --HOLE-- [fill = 0]
                  00013130    00000006                    : BIOS.obj (.text:ti_sysbios_gates_GateHwi_leave__E)
                  00013136    0000000a     --HOLE-- [fill = 0]
                  00013140    00000006                    : BIOS.obj (.text:ti_sysbios_heaps_HeapMem_isBlocking__E)
                  00013146    0000000a     --HOLE-- [fill = 0]
                  00013150    00000006                    : BIOS.obj (.text:ti_sysbios_knl_Queue_Instance_init__E)
                  00013156    0000000a     --HOLE-- [fill = 0]
                  00013160    00000006                    : BIOS.obj (.text:xdc_runtime_System_Module_startup__E)
                  00013166    0000000a     --HOLE-- [fill = 0]
                  00013170    00000004                    : BIOS.obj (.text:ti_sysbios_gates_GateHwi_query__E)
                  00013174    0000000c     --HOLE-- [fill = 0]
                  00013180    00000004                    : BIOS.obj (.text:ti_sysbios_gates_GateMutex_query__E)
                  00013184    0000000c     --HOLE-- [fill = 0]
                  00013190    00000004                    : BIOS.obj (.text:ti_sysbios_knl_Task_startup__E)
                  00013194    0000000c     --HOLE-- [fill = 0]
                  000131a0    00000004                    : BIOS.obj (.text:ti_sysbios_timers_rti_Timer_getMaxTicks__E)
                  000131a4    0000000c     --HOLE-- [fill = 0]
                  000131b0    00000004                    : BIOS.obj (.text:xdc_runtime_SysStd_putch__E)
                  000131b4    0000000c     --HOLE-- [fill = 0]
                  000131c0    00000004                    : BIOS.obj (.text:xdc_runtime_SysStd_ready__E)
                  000131c4    0000000c     --HOLE-- [fill = 0]
                  000131d0    00000002                    : BIOS.obj (.text:ti_sysbios_BIOS_linkedWithIncorrectBootLibrary__E)
                  000131d2    0000000e     --HOLE-- [fill = 0]
                  000131e0    00000002                    : BIOS.obj (.text:ti_sysbios_gates_GateHwi_Instance_init__E)

.const     0    000131e8    00002e76     
                  000131e8    00001b6f     mss_mmw_per4ft.oer4ft (.const:xdc_runtime_Text_charTab__A)
                  00014d57    00000001     --HOLE-- [fill = 0]
                  00014d58    0000034e     cli.oer4f (.const:.string)
                  000150a6    00000002     mss_mmw_per4ft.oer4ft (.const:ti_sysbios_family_arm_exc_Exception_Module__id__C)
                  000150a8    000002b8     libmmwavelink_xwr68xx.aer4f : rl_sensor.oer4f (.const:$O1$$)
                  00015360    000001de     mss_cli.oer4f (.const:.string)
                  0001553e    00000101     rtsv7R4_T_le_v3D16_eabi.lib : ctype.obj (.const:.string:_ctypes_)
                  0001563f    00000001     --HOLE-- [fill = 0]
                  00015640    000000d8     mss_mmw_per4ft.oer4ft (.const:xdc_runtime_Text_nodeTab__A)
                  00015718    000000a0     cli_mmwave.oer4f (.const:.string)
                  000157b8    00000098     rtsv7R4_T_le_v3D16_eabi.lib : strtod.obj (.const:$O1$$)
                  00015850    00000080     mss_mmw_per4ft.oer4ft (.const:ti_sysbios_family_arm_v7r_vim_Hwi_channelMap__A)
                  000158d0    00000078     libmmwavelink_xwr68xx.aer4f : rl_driver.oer4f (.const:$O2$$)
                  00015948    00000058     mss_mmw_per4ft.oer4ft (.const:.string)
                  000159a0    00000044     mss_mmw_per4ft.oer4ft (.const:ti_sysbios_knl_Task_Object__PARAMS__C)
                  000159e4    0000003c     libuart_xwr68xx.aer4f : UART.oer4f (.const:UART_defaultParams)
                  00015a20    00000030     rtsv7R4_T_le_v3D16_eabi.lib : e_exp.obj (.const:$O1$$)
                  00015a50    00000030     mss_mmw_per4ft.oer4ft (.const:ti_sysbios_family_arm_v7r_vim_Hwi_Object__PARAMS__C)
                  00015a80    0000002c     mss_mmw_per4ft.oer4ft (.const:xdc_runtime_Startup_sfxnTab__A)
                  00015aac    00000028     mss_mmw_per4ft.oer4ft (.const:ti_sysbios_heaps_HeapMem_Module__FXNS__C)
                  00015ad4    00000024     libmailbox_xwr68xx.aer4f : mailbox.oer4f (.const:Mailbox_defaultCfg)
                  00015af8    00000024     mss_mmw_per4ft.oer4ft (.const:ti_sysbios_gates_GateHwi_Module__FXNS__C)
                  00015b1c    00000024     mss_mmw_per4ft.oer4ft (.const:ti_sysbios_gates_GateMutex_Module__FXNS__C)
                  00015b40    00000024     mss_mmw_per4ft.oer4ft (.const:ti_sysbios_heaps_HeapMem_Object__PARAMS__C)
                  00015b64    00000024     mss_mmw_per4ft.oer4ft (.const:ti_sysbios_knl_Semaphore_Object__PARAMS__C)
                  00015b88    00000020     cli_mmwave.oer4f (.const:$P$T0$1)
                  00015ba8    00000020     mss_mmw_per4ft.oer4ft (.const:ti_sysbios_family_arm_v7r_vim_Hwi_Object__DESC__C)
                  00015bc8    00000020     mss_mmw_per4ft.oer4ft (.const:ti_sysbios_gates_GateHwi_Object__DESC__C)
                  00015be8    00000020     mss_mmw_per4ft.oer4ft (.const:ti_sysbios_gates_GateMutex_Object__DESC__C)
                  00015c08    00000020     mss_mmw_per4ft.oer4ft (.const:ti_sysbios_heaps_HeapMem_Object__DESC__C)
                  00015c28    00000020     mss_mmw_per4ft.oer4ft (.const:ti_sysbios_knl_Event_Object__DESC__C)
                  00015c48    00000020     mss_mmw_per4ft.oer4ft (.const:ti_sysbios_knl_Queue_Object__DESC__C)
                  00015c68    00000020     mss_mmw_per4ft.oer4ft (.const:ti_sysbios_knl_Semaphore_Object__DESC__C)
                  00015c88    00000020     mss_mmw_per4ft.oer4ft (.const:ti_sysbios_knl_Task_Object__DESC__C)
                  00015ca8    0000001c     mss_main.oer4f (.const:$P$T0$1)
                  00015cc4    00000018     mss_mmw_per4ft.oer4ft (.const:ti_sysbios_gates_GateHwi_Object__PARAMS__C)
                  00015cdc    00000018     mss_mmw_per4ft.oer4ft (.const:ti_sysbios_gates_GateMutex_Object__PARAMS__C)
                  00015cf4    00000018     mss_mmw_per4ft.oer4ft (.const:ti_sysbios_knl_Event_Object__PARAMS__C)
                  00015d0c    00000018     mss_mmw_per4ft.oer4ft (.const:ti_sysbios_knl_Queue_Object__PARAMS__C)
                  00015d24    00000016     mss_mmw_per4ft.oer4ft (.const:xdc_runtime_Startup_sfxnRts__A)
                  00015d3a    00000002     mss_mmw_per4ft.oer4ft (.const:ti_sysbios_family_arm_v7a_Pmu_Module__id__C)
                  00015d3c    00000010     mss_mmw_per4ft.oer4ft (.const:ti_sysbios_family_arm_v7r_vim_Hwi_intReqEnaSet__A)
                  00015d4c    00000010     mss_mmw_per4ft.oer4ft (.const:ti_sysbios_family_arm_v7r_vim_Hwi_wakeEnaSet__A)
                  00015d5c    00000008     mss_mmw_per4ft.oer4ft (.const:ti_sysbios_knl_Idle_funcList__A)
                  00015d64    00000008     mss_mmw_per4ft.oer4ft (.const:ti_sysbios_knl_Idle_funcList__C)
                  00015d6c    00000008     mss_mmw_per4ft.oer4ft (.const:xdc_runtime_Startup_firstFxns__A)
                  00015d74    00000008     mss_mmw_per4ft.oer4ft (.const:xdc_runtime_Startup_firstFxns__C)
                  00015d7c    00000008     mss_mmw_per4ft.oer4ft (.const:xdc_runtime_Startup_lastFxns__C)
                  00015d84    00000004     cli.oer4f (.const:.string:$P$T0$1)
                  00015d88    00000004     mss_mmw_per4ft.oer4ft (.const:ti_sysbios_family_arm_TaskSupport_stackAlignment__C)
                  00015d8c    00000004     mss_mmw_per4ft.oer4ft (.const:ti_sysbios_family_arm_exc_Exception_E_dataAbort__C)
                  00015d90    00000004     mss_mmw_per4ft.oer4ft (.const:ti_sysbios_family_arm_exc_Exception_E_prefetchAbort__C)
                  00015d94    00000004     mss_mmw_per4ft.oer4ft (.const:ti_sysbios_family_arm_exc_Exception_E_swi__C)
                  00015d98    00000004     mss_mmw_per4ft.oer4ft (.const:ti_sysbios_family_arm_exc_Exception_E_undefinedInstruction__C)
                  00015d9c    00000004     mss_mmw_per4ft.oer4ft (.const:ti_sysbios_family_arm_exc_Exception_excHookFuncs__A)
                  00015da0    00000004     mss_mmw_per4ft.oer4ft (.const:ti_sysbios_family_arm_exc_Exception_excHookFuncs__C)
                  00015da4    00000004     mss_mmw_per4ft.oer4ft (.const:ti_sysbios_family_arm_v7a_Pmu_A_invalidCounterId__C)
                  00015da8    00000004     mss_mmw_per4ft.oer4ft (.const:ti_sysbios_family_arm_v7a_Pmu_Module__diagsEnabled__C)
                  00015dac    00000004     mss_mmw_per4ft.oer4ft (.const:ti_sysbios_family_arm_v7a_Pmu_Module__diagsIncluded__C)
                  00015db0    00000004     mss_mmw_per4ft.oer4ft (.const:ti_sysbios_family_arm_v7a_Pmu_Module__diagsMask__C)
                  00015db4    00000004     mss_mmw_per4ft.oer4ft (.const:ti_sysbios_family_arm_v7r_tms570_Core_E_mismatchedIds__C)
                  00015db8    00000004     mss_mmw_per4ft.oer4ft (.const:ti_sysbios_family_arm_v7r_tms570_Core_id__C)
                  00015dbc    00000004     mss_mmw_per4ft.oer4ft (.const:ti_sysbios_family_arm_v7r_vim_Hwi_A_badChannelId__C)
                  00015dc0    00000004     mss_mmw_per4ft.oer4ft (.const:ti_sysbios_family_arm_v7r_vim_Hwi_E_alreadyDefined__C)
                  00015dc4    00000004     mss_mmw_per4ft.oer4ft (.const:ti_sysbios_family_arm_v7r_vim_Hwi_E_badIntNum__C)
                  00015dc8    00000004     mss_mmw_per4ft.oer4ft (.const:ti_sysbios_family_arm_v7r_vim_Hwi_E_phantomInterrupt__C)
                  00015dcc    00000004     mss_mmw_per4ft.oer4ft (.const:ti_sysbios_family_arm_v7r_vim_Hwi_E_undefined__C)
                  00015dd0    00000004     mss_mmw_per4ft.oer4ft (.const:ti_sysbios_family_arm_v7r_vim_Hwi_E_unsupportedMaskingOption__C)
                  00015dd4    00000004     mss_mmw_per4ft.oer4ft (.const:ti_sysbios_family_arm_v7r_vim_Hwi_LD_end__C)
                  00015dd8    00000004     mss_mmw_per4ft.oer4ft (.const:ti_sysbios_family_arm_v7r_vim_Hwi_LM_begin__C)
                  00015ddc    00000004     mss_mmw_per4ft.oer4ft (.const:ti_sysbios_family_arm_v7r_vim_Hwi_Module__diagsEnabled__C)
                  00015de0    00000004     mss_mmw_per4ft.oer4ft (.const:ti_sysbios_family_arm_v7r_vim_Hwi_Module__diagsIncluded__C)
                  00015de4    00000004     mss_mmw_per4ft.oer4ft (.const:ti_sysbios_family_arm_v7r_vim_Hwi_Module__diagsMask__C)
                  00015de8    00000004     mss_mmw_per4ft.oer4ft (.const:ti_sysbios_family_arm_v7r_vim_Hwi_Module__loggerFxn1__C)
                  00015dec    00000004     mss_mmw_per4ft.oer4ft (.const:ti_sysbios_family_arm_v7r_vim_Hwi_Module__loggerFxn8__C)
                  00015df0    00000004     mss_mmw_per4ft.oer4ft (.const:ti_sysbios_family_arm_v7r_vim_Hwi_Module__loggerObj__C)
                  00015df4    00000004     mss_mmw_per4ft.oer4ft (.const:ti_sysbios_family_arm_v7r_vim_Hwi_NUM_INTERRUPTS__C)
                  00015df8    00000004     mss_mmw_per4ft.oer4ft (.const:ti_sysbios_family_arm_v7r_vim_Hwi_channelMap__C)
                  00015dfc    00000004     mss_mmw_per4ft.oer4ft (.const:ti_sysbios_family_arm_v7r_vim_Hwi_intReqEnaSet__C)
                  00015e00    00000004     mss_mmw_per4ft.oer4ft (.const:ti_sysbios_family_arm_v7r_vim_Hwi_phantomFunc__C)
                  00015e04    00000004     mss_mmw_per4ft.oer4ft (.const:ti_sysbios_family_arm_v7r_vim_Hwi_swiDisable__C)
                  00015e08    00000004     mss_mmw_per4ft.oer4ft (.const:ti_sysbios_family_arm_v7r_vim_Hwi_swiRestoreHwi__C)
                  00015e0c    00000004     mss_mmw_per4ft.oer4ft (.const:ti_sysbios_family_arm_v7r_vim_Hwi_taskDisable__C)
                  00015e10    00000004     mss_mmw_per4ft.oer4ft (.const:ti_sysbios_family_arm_v7r_vim_Hwi_taskRestoreHwi__C)
                  00015e14    00000004     mss_mmw_per4ft.oer4ft (.const:ti_sysbios_family_arm_v7r_vim_Hwi_wakeEnaSet__C)
                  00015e18    00000004     mss_mmw_per4ft.oer4ft (.const:ti_sysbios_gates_GateMutex_A_badContext__C)
                  00015e1c    00000004     mss_mmw_per4ft.oer4ft (.const:ti_sysbios_gates_GateMutex_Instance_State_sem__O)
                  00015e20    00000004     mss_mmw_per4ft.oer4ft (.const:ti_sysbios_gates_GateMutex_Module__diagsEnabled__C)
                  00015e24    00000004     mss_mmw_per4ft.oer4ft (.const:ti_sysbios_gates_GateMutex_Module__diagsIncluded__C)
                  00015e28    00000004     mss_mmw_per4ft.oer4ft (.const:ti_sysbios_gates_GateMutex_Module__diagsMask__C)
                  00015e2c    00000004     mss_mmw_per4ft.oer4ft (.const:ti_sysbios_hal_Hwi_E_stackOverflow__C)
                  00015e30    00000004     mss_mmw_per4ft.oer4ft (.const:ti_sysbios_heaps_HeapBuf_Instance_State_freeList__O)
                  00015e34    00000004     mss_mmw_per4ft.oer4ft (.const:ti_sysbios_heaps_HeapBuf_Object__count__C)
                  00015e38    00000004     mss_mmw_per4ft.oer4ft (.const:ti_sysbios_heaps_HeapBuf_numConstructedHeaps__C)
                  00015e3c    00000004     mss_mmw_per4ft.oer4ft (.const:ti_sysbios_heaps_HeapMem_A_align__C)
                  00015e40    00000004     mss_mmw_per4ft.oer4ft (.const:ti_sysbios_heaps_HeapMem_A_heapSize__C)
                  00015e44    00000004     mss_mmw_per4ft.oer4ft (.const:ti_sysbios_heaps_HeapMem_A_invalidFree__C)
                  00015e48    00000004     mss_mmw_per4ft.oer4ft (.const:ti_sysbios_heaps_HeapMem_A_zeroBlock__C)
                  00015e4c    00000004     mss_mmw_per4ft.oer4ft (.const:ti_sysbios_heaps_HeapMem_E_memory__C)
                  00015e50    00000004     mss_mmw_per4ft.oer4ft (.const:ti_sysbios_heaps_HeapMem_Module__diagsEnabled__C)
                  00015e54    00000004     mss_mmw_per4ft.oer4ft (.const:ti_sysbios_heaps_HeapMem_Module__diagsIncluded__C)
                  00015e58    00000004     mss_mmw_per4ft.oer4ft (.const:ti_sysbios_heaps_HeapMem_Module__diagsMask__C)
                  00015e5c    00000004     mss_mmw_per4ft.oer4ft (.const:ti_sysbios_heaps_HeapMem_Module__gateObj__C)
                  00015e60    00000004     mss_mmw_per4ft.oer4ft (.const:ti_sysbios_heaps_HeapMem_Object__count__C)
                  00015e64    00000004     mss_mmw_per4ft.oer4ft (.const:ti_sysbios_heaps_HeapMem_reqAlign__C)
                  00015e68    00000004     mss_mmw_per4ft.oer4ft (.const:ti_sysbios_knl_Clock_LM_begin__C)
                  00015e6c    00000004     mss_mmw_per4ft.oer4ft (.const:ti_sysbios_knl_Clock_LM_tick__C)
                  00015e70    00000004     mss_mmw_per4ft.oer4ft (.const:ti_sysbios_knl_Clock_LW_delayed__C)
                  00015e74    00000004     mss_mmw_per4ft.oer4ft (.const:ti_sysbios_knl_Clock_Module_State_clockQ__O)
                  00015e78    00000004     mss_mmw_per4ft.oer4ft (.const:ti_sysbios_knl_Clock_Module__diagsEnabled__C)
                  00015e7c    00000004     mss_mmw_per4ft.oer4ft (.const:ti_sysbios_knl_Clock_Module__diagsIncluded__C)
                  00015e80    00000004     mss_mmw_per4ft.oer4ft (.const:ti_sysbios_knl_Clock_Module__diagsMask__C)
                  00015e84    00000004     mss_mmw_per4ft.oer4ft (.const:ti_sysbios_knl_Clock_Module__loggerFxn1__C)
                  00015e88    00000004     mss_mmw_per4ft.oer4ft (.const:ti_sysbios_knl_Clock_Module__loggerFxn2__C)
                  00015e8c    00000004     mss_mmw_per4ft.oer4ft (.const:ti_sysbios_knl_Clock_Module__loggerObj__C)
                  00015e90    00000004     mss_mmw_per4ft.oer4ft (.const:ti_sysbios_knl_Event_A_badContext__C)
                  00015e94    00000004     mss_mmw_per4ft.oer4ft (.const:ti_sysbios_knl_Event_A_eventInUse__C)
                  00015e98    00000004     mss_mmw_per4ft.oer4ft (.const:ti_sysbios_knl_Event_A_nullEventId__C)
                  00015e9c    00000004     mss_mmw_per4ft.oer4ft (.const:ti_sysbios_knl_Event_A_nullEventMasks__C)
                  00015ea0    00000004     mss_mmw_per4ft.oer4ft (.const:ti_sysbios_knl_Event_A_pendTaskDisabled__C)
                  00015ea4    00000004     mss_mmw_per4ft.oer4ft (.const:ti_sysbios_knl_Event_Instance_State_pendQ__O)
                  00015ea8    00000004     mss_mmw_per4ft.oer4ft (.const:ti_sysbios_knl_Event_LM_pend__C)
                  00015eac    00000004     mss_mmw_per4ft.oer4ft (.const:ti_sysbios_knl_Event_LM_post__C)
                  00015eb0    00000004     mss_mmw_per4ft.oer4ft (.const:ti_sysbios_knl_Event_Module__diagsEnabled__C)
                  00015eb4    00000004     mss_mmw_per4ft.oer4ft (.const:ti_sysbios_knl_Event_Module__diagsIncluded__C)
                  00015eb8    00000004     mss_mmw_per4ft.oer4ft (.const:ti_sysbios_knl_Event_Module__diagsMask__C)
                  00015ebc    00000004     mss_mmw_per4ft.oer4ft (.const:ti_sysbios_knl_Event_Module__loggerFxn4__C)
                  00015ec0    00000004     mss_mmw_per4ft.oer4ft (.const:ti_sysbios_knl_Event_Module__loggerFxn8__C)
                  00015ec4    00000004     mss_mmw_per4ft.oer4ft (.const:ti_sysbios_knl_Event_Module__loggerObj__C)
                  00015ec8    00000004     mss_mmw_per4ft.oer4ft (.const:ti_sysbios_knl_Semaphore_A_badContext__C)
                  00015ecc    00000004     mss_mmw_per4ft.oer4ft (.const:ti_sysbios_knl_Semaphore_A_noEvents__C)
                  00015ed0    00000004     mss_mmw_per4ft.oer4ft (.const:ti_sysbios_knl_Semaphore_A_overflow__C)
                  00015ed4    00000004     mss_mmw_per4ft.oer4ft (.const:ti_sysbios_knl_Semaphore_A_pendTaskDisabled__C)
                  00015ed8    00000004     mss_mmw_per4ft.oer4ft (.const:ti_sysbios_knl_Semaphore_Instance_State_pendQ__O)
                  00015edc    00000004     mss_mmw_per4ft.oer4ft (.const:ti_sysbios_knl_Semaphore_LM_pend__C)
                  00015ee0    00000004     mss_mmw_per4ft.oer4ft (.const:ti_sysbios_knl_Semaphore_LM_post__C)
                  00015ee4    00000004     mss_mmw_per4ft.oer4ft (.const:ti_sysbios_knl_Semaphore_Module__diagsEnabled__C)
                  00015ee8    00000004     mss_mmw_per4ft.oer4ft (.const:ti_sysbios_knl_Semaphore_Module__diagsIncluded__C)
                  00015eec    00000004     mss_mmw_per4ft.oer4ft (.const:ti_sysbios_knl_Semaphore_Module__diagsMask__C)
                  00015ef0    00000004     mss_mmw_per4ft.oer4ft (.const:ti_sysbios_knl_Semaphore_Module__loggerFxn2__C)
                  00015ef4    00000004     mss_mmw_per4ft.oer4ft (.const:ti_sysbios_knl_Semaphore_Module__loggerFxn4__C)
                  00015ef8    00000004     mss_mmw_per4ft.oer4ft (.const:ti_sysbios_knl_Semaphore_Module__loggerObj__C)
                  00015efc    00000004     mss_mmw_per4ft.oer4ft (.const:ti_sysbios_knl_Swi_LD_end__C)
                  00015f00    00000004     mss_mmw_per4ft.oer4ft (.const:ti_sysbios_knl_Swi_LM_begin__C)
                  00015f04    00000004     mss_mmw_per4ft.oer4ft (.const:ti_sysbios_knl_Swi_LM_post__C)
                  00015f08    00000004     mss_mmw_per4ft.oer4ft (.const:ti_sysbios_knl_Swi_Module__diagsEnabled__C)
                  00015f0c    00000004     mss_mmw_per4ft.oer4ft (.const:ti_sysbios_knl_Swi_Module__diagsIncluded__C)
                  00015f10    00000004     mss_mmw_per4ft.oer4ft (.const:ti_sysbios_knl_Swi_Module__diagsMask__C)
                  00015f14    00000004     mss_mmw_per4ft.oer4ft (.const:ti_sysbios_knl_Swi_Module__loggerFxn1__C)
                  00015f18    00000004     mss_mmw_per4ft.oer4ft (.const:ti_sysbios_knl_Swi_Module__loggerFxn4__C)
                  00015f1c    00000004     mss_mmw_per4ft.oer4ft (.const:ti_sysbios_knl_Swi_Module__loggerObj__C)
                  00015f20    00000004     mss_mmw_per4ft.oer4ft (.const:ti_sysbios_knl_Swi_Object__count__C)
                  00015f24    00000004     mss_mmw_per4ft.oer4ft (.const:ti_sysbios_knl_Task_A_badPriority__C)
                  00015f28    00000004     mss_mmw_per4ft.oer4ft (.const:ti_sysbios_knl_Task_A_badTaskState__C)
                  00015f2c    00000004     mss_mmw_per4ft.oer4ft (.const:ti_sysbios_knl_Task_A_badThreadType__C)
                  00015f30    00000004     mss_mmw_per4ft.oer4ft (.const:ti_sysbios_knl_Task_A_badTimeout__C)
                  00015f34    00000004     mss_mmw_per4ft.oer4ft (.const:ti_sysbios_knl_Task_A_noPendElem__C)
                  00015f38    00000004     mss_mmw_per4ft.oer4ft (.const:ti_sysbios_knl_Task_A_sleepTaskDisabled__C)
                  00015f3c    00000004     mss_mmw_per4ft.oer4ft (.const:ti_sysbios_knl_Task_E_spOutOfBounds__C)
                  00015f40    00000004     mss_mmw_per4ft.oer4ft (.const:ti_sysbios_knl_Task_E_stackOverflow__C)
                  00015f44    00000004     mss_mmw_per4ft.oer4ft (.const:ti_sysbios_knl_Task_LD_block__C)
                  00015f48    00000004     mss_mmw_per4ft.oer4ft (.const:ti_sysbios_knl_Task_LD_exit__C)
                  00015f4c    00000004     mss_mmw_per4ft.oer4ft (.const:ti_sysbios_knl_Task_LD_ready__C)
                  00015f50    00000004     mss_mmw_per4ft.oer4ft (.const:ti_sysbios_knl_Task_LM_sleep__C)
                  00015f54    00000004     mss_mmw_per4ft.oer4ft (.const:ti_sysbios_knl_Task_LM_switch__C)
                  00015f58    00000004     mss_mmw_per4ft.oer4ft (.const:ti_sysbios_knl_Task_Module_State_inactiveQ__O)
                  00015f5c    00000004     mss_mmw_per4ft.oer4ft (.const:ti_sysbios_knl_Task_Module__diagsEnabled__C)
                  00015f60    00000004     mss_mmw_per4ft.oer4ft (.const:ti_sysbios_knl_Task_Module__diagsIncluded__C)
                  00015f64    00000004     mss_mmw_per4ft.oer4ft (.const:ti_sysbios_knl_Task_Module__diagsMask__C)
                  00015f68    00000004     mss_mmw_per4ft.oer4ft (.const:ti_sysbios_knl_Task_Module__loggerFxn2__C)
                  00015f6c    00000004     mss_mmw_per4ft.oer4ft (.const:ti_sysbios_knl_Task_Module__loggerFxn4__C)
                  00015f70    00000004     mss_mmw_per4ft.oer4ft (.const:ti_sysbios_knl_Task_Module__loggerObj__C)
                  00015f74    00000004     mss_mmw_per4ft.oer4ft (.const:ti_sysbios_knl_Task_Object__count__C)
                  00015f78    00000004     mss_mmw_per4ft.oer4ft (.const:ti_sysbios_knl_Task_allBlockedFunc__C)
                  00015f7c    00000004     mss_mmw_per4ft.oer4ft (.const:ti_sysbios_knl_Task_defaultStackHeap__C)
                  00015f80    00000004     mss_mmw_per4ft.oer4ft (.const:ti_sysbios_knl_Task_defaultStackSize__C)
                  00015f84    00000004     mss_mmw_per4ft.oer4ft (.const:ti_sysbios_knl_Task_numConstructedTasks__C)
                  00015f88    00000004     mss_mmw_per4ft.oer4ft (.const:ti_sysbios_timers_rti_Timer_E_cannotSupport__C)
                  00015f8c    00000004     mss_mmw_per4ft.oer4ft (.const:ti_sysbios_timers_rti_Timer_Module__diagsEnabled__C)
                  00015f90    00000004     mss_mmw_per4ft.oer4ft (.const:ti_sysbios_timers_rti_Timer_Module__diagsIncluded__C)
                  00015f94    00000004     mss_mmw_per4ft.oer4ft (.const:ti_sysbios_timers_rti_Timer_Module__diagsMask__C)
                  00015f98    00000004     mss_mmw_per4ft.oer4ft (.const:ti_sysbios_timers_rti_Timer_numTimerDevices__C)
                  00015f9c    00000004     mss_mmw_per4ft.oer4ft (.const:ti_sysbios_timers_rti_Timer_startupNeeded__C)
                  00015fa0    00000004     mss_mmw_per4ft.oer4ft (.const:xdc_runtime_Assert_E_assertFailed__C)
                  00015fa4    00000004     mss_mmw_per4ft.oer4ft (.const:xdc_runtime_Core_A_initializedParams__C)
                  00015fa8    00000004     mss_mmw_per4ft.oer4ft (.const:xdc_runtime_Core_Module__diagsEnabled__C)
                  00015fac    00000004     mss_mmw_per4ft.oer4ft (.const:xdc_runtime_Core_Module__diagsIncluded__C)
                  00015fb0    00000004     mss_mmw_per4ft.oer4ft (.const:xdc_runtime_Core_Module__diagsMask__C)
                  00015fb4    00000004     mss_mmw_per4ft.oer4ft (.const:xdc_runtime_Error_E_memory__C)
                  00015fb8    00000004     mss_mmw_per4ft.oer4ft (.const:xdc_runtime_Error_Module__diagsEnabled__C)
                  00015fbc    00000004     mss_mmw_per4ft.oer4ft (.const:xdc_runtime_Error_Module__diagsIncluded__C)
                  00015fc0    00000004     mss_mmw_per4ft.oer4ft (.const:xdc_runtime_Error_Module__diagsMask__C)
                  00015fc4    00000004     mss_mmw_per4ft.oer4ft (.const:xdc_runtime_Error_Module__loggerFxn8__C)
                  00015fc8    00000004     mss_mmw_per4ft.oer4ft (.const:xdc_runtime_Error_Module__loggerObj__C)
                  00015fcc    00000004     mss_mmw_per4ft.oer4ft (.const:xdc_runtime_Error_policyFxn__C)
                  00015fd0    00000004     mss_mmw_per4ft.oer4ft (.const:xdc_runtime_Error_policy__C)
                  00015fd4    00000004     mss_mmw_per4ft.oer4ft (.const:xdc_runtime_Error_raiseHook__C)
                  00015fd8    00000004     mss_mmw_per4ft.oer4ft (.const:xdc_runtime_IGateProvider_Interface__BASE__C)
                  00015fdc    00000004     mss_mmw_per4ft.oer4ft (.const:xdc_runtime_IHeap_Interface__BASE__C)
                  00015fe0    00000004     mss_mmw_per4ft.oer4ft (.const:xdc_runtime_IModule_Interface__BASE__C)
                  00015fe4    00000004     mss_mmw_per4ft.oer4ft (.const:xdc_runtime_Log_L_error__C)
                  00015fe8    00000004     mss_mmw_per4ft.oer4ft (.const:xdc_runtime_Memory_defaultHeapInstance__C)
                  00015fec    00000004     mss_mmw_per4ft.oer4ft (.const:xdc_runtime_Startup_execImpl__C)
                  00015ff0    00000004     mss_mmw_per4ft.oer4ft (.const:xdc_runtime_Startup_maxPasses__C)
                  00015ff4    00000004     mss_mmw_per4ft.oer4ft (.const:xdc_runtime_Startup_sfxnRts__C)
                  00015ff8    00000004     mss_mmw_per4ft.oer4ft (.const:xdc_runtime_Startup_sfxnTab__C)
                  00015ffc    00000004     mss_mmw_per4ft.oer4ft (.const:xdc_runtime_System_Module__gateObj__C)
                  00016000    00000004     mss_mmw_per4ft.oer4ft (.const:xdc_runtime_System_abortFxn__C)
                  00016004    00000004     mss_mmw_per4ft.oer4ft (.const:xdc_runtime_System_exitFxn__C)
                  00016008    00000004     mss_mmw_per4ft.oer4ft (.const:xdc_runtime_System_extendFxn__C)
                  0001600c    00000004     mss_mmw_per4ft.oer4ft (.const:xdc_runtime_System_maxAtexitHandlers__C)
                  00016010    00000004     mss_mmw_per4ft.oer4ft (.const:xdc_runtime_Text_charTab__C)
                  00016014    00000004     mss_mmw_per4ft.oer4ft (.const:xdc_runtime_Text_nameEmpty__C)
                  00016018    00000004     mss_mmw_per4ft.oer4ft (.const:xdc_runtime_Text_nameStatic__C)
                  0001601c    00000004     mss_mmw_per4ft.oer4ft (.const:xdc_runtime_Text_nameUnknown__C)
                  00016020    00000004     mss_mmw_per4ft.oer4ft (.const:xdc_runtime_Text_nodeTab__C)
                  00016024    00000004     mss_mmw_per4ft.oer4ft (.const:xdc_runtime_Text_visitRopeFxn__C)
                  00016028    00000002     mss_mmw_per4ft.oer4ft (.const:ti_sysbios_family_arm_v7r_tms570_Core_Module__id__C)
                  0001602a    00000002     mss_mmw_per4ft.oer4ft (.const:ti_sysbios_family_arm_v7r_vim_Hwi_Module__id__C)
                  0001602c    00000002     mss_mmw_per4ft.oer4ft (.const:ti_sysbios_family_arm_v7r_vim_Hwi_Module__loggerDefined__C)
                  0001602e    00000002     mss_mmw_per4ft.oer4ft (.const:ti_sysbios_gates_GateMutex_Module__id__C)
                  00016030    00000002     mss_mmw_per4ft.oer4ft (.const:ti_sysbios_hal_Hwi_Module__id__C)
                  00016032    00000002     mss_mmw_per4ft.oer4ft (.const:ti_sysbios_heaps_HeapMem_Module__id__C)
                  00016034    00000002     mss_mmw_per4ft.oer4ft (.const:ti_sysbios_knl_Clock_Module__id__C)
                  00016036    00000002     mss_mmw_per4ft.oer4ft (.const:ti_sysbios_knl_Clock_Module__loggerDefined__C)
                  00016038    00000002     mss_mmw_per4ft.oer4ft (.const:ti_sysbios_knl_Event_Module__id__C)
                  0001603a    00000002     mss_mmw_per4ft.oer4ft (.const:ti_sysbios_knl_Event_Module__loggerDefined__C)
                  0001603c    00000002     mss_mmw_per4ft.oer4ft (.const:ti_sysbios_knl_Semaphore_Module__id__C)
                  0001603e    00000002     mss_mmw_per4ft.oer4ft (.const:ti_sysbios_knl_Semaphore_Module__loggerDefined__C)
                  00016040    00000002     mss_mmw_per4ft.oer4ft (.const:ti_sysbios_knl_Swi_Module__id__C)
                  00016042    00000002     mss_mmw_per4ft.oer4ft (.const:ti_sysbios_knl_Swi_Module__loggerDefined__C)
                  00016044    00000002     mss_mmw_per4ft.oer4ft (.const:ti_sysbios_knl_Task_Module__id__C)
                  00016046    00000002     mss_mmw_per4ft.oer4ft (.const:ti_sysbios_knl_Task_Module__loggerDefined__C)
                  00016048    00000002     mss_mmw_per4ft.oer4ft (.const:ti_sysbios_timers_rti_Timer_Module__id__C)
                  0001604a    00000002     mss_mmw_per4ft.oer4ft (.const:ti_sysbios_timers_rti_Timer_continueOnSuspend__C)
                  0001604c    00000002     mss_mmw_per4ft.oer4ft (.const:xdc_runtime_Core_Module__id__C)
                  0001604e    00000002     mss_mmw_per4ft.oer4ft (.const:xdc_runtime_Error_Module__loggerDefined__C)
                  00016050    00000002     mss_mmw_per4ft.oer4ft (.const:xdc_runtime_Error_maxDepth__C)
                  00016052    00000002     mss_mmw_per4ft.oer4ft (.const:xdc_runtime_Main_Module__id__C)
                  00016054    00000002     mss_mmw_per4ft.oer4ft (.const:xdc_runtime_Memory_Module__id__C)
                  00016056    00000002     mss_mmw_per4ft.oer4ft (.const:xdc_runtime_Text_charCnt__C)
                  00016058    00000002     mss_mmw_per4ft.oer4ft (.const:xdc_runtime_Text_isLoaded__C)
                  0001605a    00000002     mss_mmw_per4ft.oer4ft (.const:xdc_runtime_Text_registryModsLastId__C)
                  0001605c    00000002     mss_mmw_per4ft.oer4ft (.const:xdc_runtime_Text_unnamedModsLastId__C)

.cinit     0    00016060    00002f40     
                  00016060    00002efa     (.cinit..data.load) [load image, compression = lzss]
                  00018f5a    00000002     --HOLE-- [fill = 0]
                  00018f5c    0000000c     (__TI_handler_table)
                  00018f68    00000008     (.cinit..bss.load) [load image, compression = zero_init]
                  00018f70    00000008     (.cinit..myFiqStack.load) [load image, compression = zero_init]
                  00018f78    00000008     (.cinit.systemHeap.load) [load image, compression = zero_init]
                  00018f80    00000020     (__TI_cinit_table)

systemHeap 
*          0    08000000    0000a000     UNINITIALIZED
                  08000000    0000a000     mss_mmw_per4ft.oer4ft (systemHeap)

.data      0    0800a000    00004018     UNINITIALIZED
                  0800a000    00002e5c     mss_main.oer4f (.data:$O1$$)
                  0800ce5c    000003e4     libmmwavelink_xwr68xx.aer4f : rl_driver.oer4f (.data:$O1$$)
                  0800d240    0000021c     cli.oer4f (.data:$O1$$)
                  0800d45c    00000200     mss_mmw_per4ft.oer4ft (.data:ti_sysbios_family_arm_v7r_vim_Hwi_Module_State_0_dispatchTable__A)
                  0800d65c    00000004     libcrc_xwr68xx.aer4f : crc_xwr68xx.oer4f (.data)
                  0800d660    000001e0     cli_mmwave.oer4f (.data:$O1$$)
                  0800d840    000000f0     rtsv7R4_T_le_v3D16_eabi.lib : defs.obj (.data:_ftable)
                  0800d930    00000080     mss_mmw_per4ft.oer4ft (.data:ti_sysbios_knl_Swi_Module_State_0_readyQ__A)
                  0800d9b0    00000080     mss_mmw_per4ft.oer4ft (.data:ti_sysbios_knl_Task_Module_State_0_readyQ__A)
                  0800da30    00000078     rtsv7R4_T_le_v3D16_eabi.lib : write.obj (.data:_device)
                  0800daa8    0000005c     mss_mmw_per4ft.oer4ft (.data:ti_sysbios_knl_Task_Object__table__V)
                  0800db04    00000058     libuart_xwr68xx.aer4f : uart_xwr68xx.oer4f (.data:gUartSciHwCfg)
                  0800db5c    00000050     rtsv7R4_T_le_v3D16_eabi.lib : write.obj (.data:_stream)
                  0800dbac    00000050     libmailbox_xwr68xx.aer4f : mailbox.oer4f (.data:gMailboxMCB)
                  0800dbfc    00000048     mss_mmw_per4ft.oer4ft (.data:ti_sysbios_knl_Task_Module__state__V)
                  0800dc44    00000040     libsoc_xwr68xx.aer4f : soc_xwr68xx.oer4f (.data:SOC_TranslateAddr_LUT)
                  0800dc84    00000040     mss_mmw_per4ft.oer4ft (.data:ti_sysbios_gates_GateMutex_Object__table__V)
                  0800dcc4    0000003c     mss_mmw_per4ft.oer4ft (.data:ti_sysbios_timers_rti_Timer_Object__table__V)
                  0800dd00    00000034     mss_mmw_per4ft.oer4ft (.data:ti_sysbios_family_arm_v7r_vim_Hwi_Module__state__V)
                  0800dd34    00000030     mss_mmw_per4ft.oer4ft (.data:ti_sysbios_knl_Swi_Object__table__V)
                  0800dd64    0000002c     mss_mmw_per4ft.oer4ft (.data:ti_sysbios_family_arm_v7r_vim_Hwi_Object__table__V)
                  0800dd90    0000002c     mss_mmw_per4ft.oer4ft (.data:ti_sysbios_knl_Clock_Module__state__V)
                  0800ddbc    00000028     libuart_xwr68xx.aer4f : uartsci.oer4f (.data:gUartSciFxnTable)
                  0800dde4    00000024                           : uart_xwr68xx.oer4f (.data:UART_config)
                  0800de08    00000024     mss_mmw_per4ft.oer4ft (.data:ti_sysbios_BIOS_Module__state__V)
                  0800de2c    00000020     mss_mmw_per4ft.oer4ft (.data:xdc_runtime_Error_IgnoreBlock)
                  0800de4c    00000020     mss_mmw_per4ft.oer4ft (.data:xdc_runtime_System_Module_State_0_atexitHandlers__A)
                  0800de6c    0000001c     mss_mmw_per4ft.oer4ft (.data:ti_sysbios_knl_Swi_Module__state__V)
                  0800de88    00000018     libmailbox_xwr68xx.aer4f : mailbox_xwr68xx.oer4f (.data:gMailboxMssBssHwCfg)
                  0800dea0    00000018                              : mailbox_xwr68xx.oer4f (.data:gMailboxMssDssHwCfg)
                  0800deb8    00000018     mss_mmw_per4ft.oer4ft (.data:ti_sysbios_heaps_HeapMem_Object__table__V)
                  0800ded0    00000018     mss_mmw_per4ft.oer4ft (.data:ti_sysbios_timers_rti_Timer_Module_State_0_device__A)
                  0800dee8    00000014     libsoc_xwr68xx.aer4f : soc_xwr68xx_mss.oer4f (.data:gSOCHwAttrib)
                  0800defc    00000014     mss_mmw_per4ft.oer4ft (.data:ti_sysbios_family_arm_exc_Exception_Module__state__V)
                  0800df10    00000010     rtsv7R4_T_le_v3D16_eabi.lib : defs.obj (.data)
                  0800df20    00000010     mss_mmw_per4ft.oer4ft (.data:ti_sysbios_timers_rti_Timer_Module_State_0_intFreqs__A)
                  0800df30    00000010     mss_mmw_per4ft.oer4ft (.data:ti_sysbios_timers_rti_Timer_Module__state__V)
                  0800df40    0000000c     rtsv7R4_T_le_v3D16_eabi.lib : exit.obj (.data:$O1$$)
                  0800df4c    0000000c     libesm_xwr68xx.aer4f : esm_xwr1xxx.oer4f (.data:gESMHwCfgAttrs)
                  0800df58    0000000c     mss_mmw_per4ft.oer4ft (.data:ti_sysbios_family_arm_v7a_Pmu_Module__state__V)
                  0800df64    00000008     rtsv7R4_T_le_v3D16_eabi.lib : _lock.obj (.data:$O1$$)
                  0800df6c    00000008     libgpio_xwr68xx.aer4f : gpio_xwr68xx.oer4f (.data:gGPIOHwAtrrib)
                  0800df74    00000008     mss_mmw_per4ft.oer4ft (.data:ti_sysbios_family_arm_v7r_vim_Hwi_Module__root__V)
                  0800df7c    00000008     mss_mmw_per4ft.oer4ft (.data:ti_sysbios_gates_GateHwi_Module__root__V)
                  0800df84    00000008     mss_mmw_per4ft.oer4ft (.data:ti_sysbios_gates_GateMutex_Module__root__V)
                  0800df8c    00000008     mss_mmw_per4ft.oer4ft (.data:ti_sysbios_hal_Hwi_Object__table__V)
                  0800df94    00000008     mss_mmw_per4ft.oer4ft (.data:ti_sysbios_heaps_HeapMem_Module__root__V)
                  0800df9c    00000008     mss_mmw_per4ft.oer4ft (.data:ti_sysbios_knl_Event_Module__root__V)
                  0800dfa4    00000008     mss_mmw_per4ft.oer4ft (.data:ti_sysbios_knl_Queue_Module__root__V)
                  0800dfac    00000008     mss_mmw_per4ft.oer4ft (.data:ti_sysbios_knl_Semaphore_Module__root__V)
                  0800dfb4    00000008     mss_mmw_per4ft.oer4ft (.data:ti_sysbios_knl_Task_Module__root__V)
                  0800dfbc    00000008     mss_mmw_per4ft.oer4ft (.data:ti_sysbios_timers_rti_Timer_Module_State_0_handles__A)
                  0800dfc4    00000008     mss_mmw_per4ft.oer4ft (.data:xdc_runtime_Registry_Module__state__V)
                  0800dfcc    00000008     mss_mmw_per4ft.oer4ft (.data:xdc_runtime_Startup_Module__state__V)
                  0800dfd4    00000008     mss_mmw_per4ft.oer4ft (.data:xdc_runtime_System_Module__state__V)
                  0800dfdc    00000004     libpinmux_xwr68xx.aer4f : pinmux_xwr1xxx.oer4f (.data)
                  0800dfe0    00000004     libuart_xwr68xx.aer4f : UART.oer4f (.data)
                  0800dfe4    00000004     rtsv7R4_T_le_v3D16_eabi.lib : errno.obj (.data)
                  0800dfe8    00000004                                 : fopen.obj (.data)
                  0800dfec    00000004                                 : open.obj (.data)
                  0800dff0    00000004                                 : stkdepth_vars.obj (.data)
                  0800dff4    00000004                                 : strtok.obj (.data)
                  0800dff8    00000004     mss_mmw_per4ft.oer4ft (.data:ti_sysbios_family_arm_exc_Exception_Module_State_0_excContext__A)
                  0800dffc    00000004     mss_mmw_per4ft.oer4ft (.data:ti_sysbios_family_arm_exc_Exception_Module_State_0_excStackBuffers__A)
                  0800e000    00000004     mss_mmw_per4ft.oer4ft (.data:ti_sysbios_family_arm_exc_Exception_Module_State_0_excStack__A)
                  0800e004    00000004     mss_mmw_per4ft.oer4ft (.data:ti_sysbios_gates_GateHwi_Object__table__V)
                  0800e008    00000004     mss_mmw_per4ft.oer4ft (.data:ti_sysbios_heaps_HeapBuf_Module__state__V)
                  0800e00c    00000004     mss_mmw_per4ft.oer4ft (.data:ti_sysbios_knl_Task_Module_State_0_idleTask__A)
                  0800e010    00000004     mss_mmw_per4ft.oer4ft (.data:xdc_runtime_Memory_Module__state__V)
                  0800e014    00000002     mss_mmw_per4ft.oer4ft (.data:ti_sysbios_family_arm_exc_Exception_Module_State_0_excActive__A)
                  0800e016    00000002     mss_mmw_per4ft.oer4ft (.data:xdc_runtime_Error_Module__state__V)

.bss       0    0800e018    00001cd0     UNINITIALIZED
                  0800e018    00001000     (.common:ti_sysbios_family_arm_exc_Exception_Module_State_0_excStack_0__A)
                  0800f018    00000800     mss_mmw_per4ft.oer4ft (.bss:taskStackSection)
                  0800f818    00000194     (.common:gGPIOMCB)
                  0800f9ac    00000120     rtsv7R4_T_le_v3D16_eabi.lib : trgmsg.obj (.bss:_CIOBUF_)
                  0800facc    000000fc     (.common:gMMWave_MCB)
                  0800fbc8    000000a0     (.common:__TI_tmpnams)
                  0800fc68    00000070     (.common:gEsmMCB)
                  0800fcd8    00000008     (.common:gMMWave_DualcoreMCB)
                  0800fce0    00000008     (.common:parmbuf)

.stack     0    0800fce8    00001000     UNINITIALIZED
                  0800fce8    00001000     --HOLE--

.myFiqStack 
*          0    08010ce8    00000800     UNINITIALIZED
                  08010ce8    00000800     mss_mmw_per4ft.oer4ft (.myFiqStack)

xdc.meta   0    00000000    00000116     COPY SECTION
                  00000000    00000116     mss_mmw_per4ft.oer4ft (xdc.meta)

MODULE SUMMARY

       Module                          code    ro data   rw data
       ------                          ----    -------   -------
    .\common\
       cli_mmwave.oer4f                4588    192       480    
       cli.oer4f                       1012    850       540    
    +--+-------------------------------+-------+---------+---------+
       Total:                          5600    1042      1020   
                                                                
    .\mss\
       mss_main.oer4f                  6563    28        11868  
       mss_cli.oer4f                   5033    478       0      
       utils.oer4f                     232     0         0      
       inference.oer4f                 230     0         0      
    +--+-------------------------------+-------+---------+---------+
       Total:                          12058   506       11868  
                                                                
    C:\Users\sonif\Documents\StudiumMaster\Semester3\Masterthesis\TI\multi_gesture_68xx_mss\Debug\configPkg\package\cfg\
       mss_mmw_per4ft.oer4ft           1798    9035      50772  
    +--+-------------------------------+-------+---------+---------+
       Total:                          1798    9035      50772  
                                                                
    C:/ti/mmwave_sdk_03_01_01_02/packages/ti/control/mmwave/lib/libmmwave_xwr68xx.aer4f
       mmwave_link.oer4f               2460    0         0      
       mmwave_dualcore.oer4f           2108    0         8      
       mmwave_fullcfg.oer4f            2002    0         0      
       mmwave.oer4f                    1012    0         252    
       mmwave_osal.oer4f               200     0         0      
       mmwave_listlib.oer4f            142     0         0      
    +--+-------------------------------+-------+---------+---------+
       Total:                          7924    0         260    
                                                                
    C:/ti/mmwave_sdk_03_01_01_02/packages/ti/control/mmwavelink/lib/libmmwavelink_xwr68xx.aer4f
       rl_driver.oer4f                 4014    120       996    
       rl_sensor.oer4f                 1680    696       0      
       rl_device.oer4f                 460     0         0      
       rl_controller.oer4f             146     0         0      
    +--+-------------------------------+-------+---------+---------+
       Total:                          6300    816       996    
                                                                
    C:/ti/mmwave_sdk_03_01_01_02/packages/ti/drivers/crc/lib/libcrc_xwr68xx.aer4f
       crc.oer4f                       1256    0         0      
       crc_xwr68xx.oer4f               0       0         4      
    +--+-------------------------------+-------+---------+---------+
       Total:                          1256    0         4      
                                                                
    C:/ti/mmwave_sdk_03_01_01_02/packages/ti/drivers/dma/lib/libdma_xwr68xx.aer4f
       dma.oer4f                       1906    0         0      
    +--+-------------------------------+-------+---------+---------+
       Total:                          1906    0         0      
                                                                
    C:/ti/mmwave_sdk_03_01_01_02/packages/ti/drivers/esm/lib/libesm_xwr68xx.aer4f
       esm.oer4f                       456     0         112    
       esm_xwr1xxx.oer4f               0       0         12     
    +--+-------------------------------+-------+---------+---------+
       Total:                          456     0         124    
                                                                
    C:/ti/mmwave_sdk_03_01_01_02/packages/ti/drivers/gpio/lib/libgpio_xwr68xx.aer4f
       gpio.oer4f                      1090    0         404    
       gpio_xwr68xx.oer4f              0       0         8      
    +--+-------------------------------+-------+---------+---------+
       Total:                          1090    0         412    
                                                                
    C:/ti/mmwave_sdk_03_01_01_02/packages/ti/drivers/mailbox/lib/libmailbox_xwr68xx.aer4f
       mailbox.oer4f                   1916    36        80     
       mailbox_xwr68xx.oer4f           0       0         48     
    +--+-------------------------------+-------+---------+---------+
       Total:                          1916    36        128    
                                                                
    C:/ti/mmwave_sdk_03_01_01_02/packages/ti/drivers/osal/lib/libosal_xwr68xx.aer4f
       HwiP_tirtos.oer4f               222     0         0      
       SemaphoreP_tirtos.oer4f         150     0         0      
       MemoryP_tirtos.oer4f            28      0         0      
       DebugP_tirtos.oer4f             20      0         0      
    +--+-------------------------------+-------+---------+---------+
       Total:                          420     0         0      
                                                                
    C:/ti/mmwave_sdk_03_01_01_02/packages/ti/drivers/pinmux/lib/libpinmux_xwr68xx.aer4f
       pinmux.oer4f                    390     0         0      
       pinmux_xwr1xxx.oer4f            0       0         4      
    +--+-------------------------------+-------+---------+---------+
       Total:                          390     0         4      
                                                                
    C:/ti/mmwave_sdk_03_01_01_02/packages/ti/drivers/soc/lib/libsoc_xwr68xx.aer4f
       soc_xwr68xx_mss.oer4f           1336    0         20     
       soc.oer4f                       492     0         0      
       soc_xwr68xx.oer4f               406     0         64     
       soc_mpu.o                       182     0         0      
    +--+-------------------------------+-------+---------+---------+
       Total:                          2416    0         84     
                                                                
    C:/ti/mmwave_sdk_03_01_01_02/packages/ti/drivers/uart/lib/libuart_xwr68xx.aer4f
       uartsci.oer4f                   2192    0         40     
       uartsci_dma.oer4f               642     0         0      
       UART.oer4f                      150     60        4      
       uart_xwr68xx.oer4f              0       0         124    
    +--+-------------------------------+-------+---------+---------+
       Total:                          2984    60        168    
                                                                
    C:/ti/ti-cgt-arm_16.9.6.LTS/lib/rtsv7R4_T_le_v3D16_eabi.lib
       _printfi.obj                    4218    0         0      
       ull_div32.obj                   696     0         0      
       e_exp.obj                       600     48        0      
       strtod.obj                      484     152       0      
       fopen.obj                       456     0         4      
       defs.obj                        0       0         416    
       trgmsg.obj                      108     0         288    
       ctype.obj                       0       257       0      
       write.obj                       40      0         200    
       s_scalbn.obj                    236     0         0      
       setvbuf.obj                     220     0         0      
       fflush.obj                      204     0         0      
       open.obj                        188     0         4      
       _io_perm.obj                    174     0         0      
       memcpy_t2.obj                   156     0         0      
       fclose.obj                      152     0         0      
       fputc.obj                       152     0         0      
       vsnprintf.obj                   136     0         0      
       memset_t2.obj                   122     0         0      
       getdevice.obj                   116     0         0      
       s_frexp.obj                     116     0         0      
       copy_decompress_lzss.obj        108     0         0      
       hostlseek.obj                   104     0         0      
       hostrename.obj                  104     0         0      
       fseek.obj                       100     0         0      
       hostopen.obj                    92      0         8      
       sprintf.obj                     100     0         0      
       exit.obj                        80      0         12     
       hostread.obj                    92      0         0      
       close.obj                       88      0         0      
       hostwrite.obj                   88      0         0      
       ltoa.obj                        84      0         0      
       atoi.obj                        80      0         0      
       u_div32.obj                     80      0         0      
       cpy_tbl.obj                     76      0         0      
       hostclose.obj                   68      0         0      
       hostunlink.obj                  68      0         0      
       strtok.obj                      64      0         4      
       strncpy.obj                     54      0         0      
       unlink.obj                      44      0         0      
       strspn.obj                      42      0         0      
       lseek.obj                       40      0         0      
       memcmp.obj                      38      0         0      
       strcspn.obj                     34      0         0      
       _lock.obj                       20      0         8      
       memccpy.obj                     28      0         0      
       s_copysign.obj                  26      0         0      
       args_main.obj                   24      0         0      
       strcmp.obj                      24      0         0      
       strchr.obj                      22      0         0      
       strlen.obj                      22      0         0      
       strcpy.obj                      20      0         0      
       copy_decompress_none.obj        14      0         0      
       copy_zero_init.obj              12      0         0      
       errno.obj                       0       0         4      
       stkdepth_vars.obj               0       0         4      
       i_div0.obj                      2       0         0      
    +--+-------------------------------+-------+---------+---------+
       Total:                          10516   457       952    
                                                                
    C:\Users\sonif\Documents\StudiumMaster\Semester3\Masterthesis\TI\multi_gesture_68xx_mss\mss\src\sysbios\sysbios.aer4ft
       BIOS.obj                        19427   0         0      
       exc_Exception_asm.obj           308     0         0      
       vim_Hwi_asm.obj                 208     0         0      
       arm_TaskSupport_asm.obj         180     0         0      
       vim_Hwi_asm_switch.obj          152     0         0      
       arm_IntrinsicsSupport_asm.obj   12      0         0      
       tms570_Core_asm.obj             10      0         0      
    +--+-------------------------------+-------+---------+---------+
       Total:                          20297   0         0      
                                                                
    C:\ti\bios_6_73_01_01\packages\ti\targets\arm\rtsarm\lib\auto_init.aer4ft
       auto_init.oer4ft                160     0         0      
    +--+-------------------------------+-------+---------+---------+
       Total:                          160     0         0      
                                                                
    C:\ti\bios_6_73_01_01\packages\ti\targets\arm\rtsarm\lib\boot.aer4ft
       boot.oer4ft                     116     0         0      
    +--+-------------------------------+-------+---------+---------+
       Total:                          116     0         0      
                                                                
       Stack:                          0       0         4096   
       Linker Generated:               0       12094     0      
    +--+-------------------------------+-------+---------+---------+
       Grand Total:                    77603   24046     70888  


LINKER GENERATED COPY TABLES

__TI_cinit_table @ 00018f80 records: 4, size/record: 8, table size: 32
	.data: load addr=00016060, load size=00002efa bytes, run addr=0800a000, run size=00004018 bytes, compression=lzss
	.bss: load addr=00018f68, load size=00000008 bytes, run addr=0800e018, run size=00001cd0 bytes, compression=zero_init
	.myFiqStack: load addr=00018f70, load size=00000008 bytes, run addr=08010ce8, run size=00000800 bytes, compression=zero_init
	systemHeap: load addr=00018f78, load size=00000008 bytes, run addr=08000000, run size=0000a000 bytes, compression=zero_init


LINKER GENERATED HANDLER TABLE

__TI_handler_table @ 00018f5c records: 3, size/record: 4, table size: 12
	index: 0, handler: __TI_zero_init
	index: 1, handler: __TI_decompress_lzss
	index: 2, handler: __TI_decompress_none


GLOBAL SYMBOLS: SORTED ALPHABETICALLY BY Name 

address   name                                                                 
-------   ----                                                                 
00010af5  C$$EXIT                                                              
0000f5a7  C$$IO$$                                                              
0000fda5  CLI_MMWaveExtensionHandler                                           
0000bf59  CLI_MMWaveExtensionHelp                                              
00011761  CLI_MMWaveExtensionInit                                              
000028d5  CLI_getMMWaveExtensionConfig                                         
00012b29  CLI_getMMWaveExtensionOpenConfig                                     
0000991d  CLI_open                                                             
00010915  CLI_write                                                            
00009165  CRC_computeSignature                                                 
00010965  CRC_getSignature                                                     
000105f1  CRC_getTransactionId                                                 
00012f09  CRC_initConfigParams                                                 
000052a9  CRC_open                                                             
0000c499  DMA_assignChannel                                                    
00009aed  DMA_clearChannelInterruptFlag                                        
0000f281  DMA_disableChannel                                                   
00009261  DMA_disableInterrupt                                                 
0000f64d  DMA_enableChannel                                                    
00009e6d  DMA_enableInterrupt                                                  
00010645  DMA_freeChannel                                                      
0000c53d  DMA_getChannelInterruptFlag                                          
000056a1  DMA_setChannelParams                                                 
00010275  ESM_highpriority_FIQ                                                 
0000c5e1  ESM_init                                                             
0001262d  ESM_lowpriority_IRQ                                                  
0000be01  ESM_processInterrupt                                                 
0000f2ed  GPIO_enableInt                                                       
0000d4b1  GPIO_init                                                            
0000fe05  GPIO_setCallback                                                     
00007195  GPIO_setConfig                                                       
0000b341  GPIO_write                                                           
00011011  HOSTclose                                                            
0000f855  HOSTlseek                                                            
00010109  HOSTopen                                                             
00010165  HOSTread                                                             
0000f8bd  HOSTrename                                                           
00011055  HOSTunlink                                                           
000104dd  HOSTwrite                                                            
00012da7  HwiP_Params_init                                                     
0000e671  HwiP_create                                                          
000116ed  HwiP_delete                                                          
000039e9  HwiP_disable                                                         
00006e9d  HwiP_disableInterrupt                                                
000017cb  HwiP_restore                                                         
00009a05  Inference                                                            
0000c685  MMWave_addBpmChirp                                                   
0000a9fd  MMWave_addChirp                                                      
0000bb39  MMWave_addProfile                                                    
0000ec35  MMWave_config                                                        
0000aac5  MMWave_configBPM                                                     
0000cbb1  MMWave_configLink                                                    
00011481  MMWave_decodeError                                                   
00004829  MMWave_decodeErrorLevel                                              
0000e15d  MMWave_deviceCfgAsyncEvent                                           
0000f0bd  MMWave_deviceCfgFxn                                                  
0000e1e1  MMWave_deviceEventFxn                                                
00003765  MMWave_deviceExecuteFxn                                              
00012f1b  MMWave_deviceGetDeviceInfo                                           
00008a2d  MMWave_deviceInitFxn                                                 
0000e6f1  MMWave_deviceOpenFxn                                                 
0000eca9  MMWave_deviceStartFxn                                                
0000f6b5  MMWave_deviceStopFxn                                                 
00012a09  MMWave_deviceSyncFxn                                                 
00012a23  MMWave_encodeError                                                   
000102cd  MMWave_execute                                                       
00011185  MMWave_executeLink                                                   
0000ab8d  MMWave_flushCfg                                                      
0000e3ed  MMWave_getBpmChirpCfg                                                
0000c0a9  MMWave_getBpmChirpHandle                                             
0000cffd  MMWave_getChirpCfg                                                   
0000ac55  MMWave_getChirpHandle                                                
0000e265  MMWave_getNumBpmChirp                                                
0000eacd  MMWave_getNumChirps                                                  
0000de2d  MMWave_getProfileCfg                                                 
0000cc4d  MMWave_getProfileHandle                                              
00009f45  MMWave_init                                                          
00010699  MMWave_initLink                                                      
00012a3d  MMWave_listAdd                                                       
0001264d  MMWave_listCat                                                       
00008e5d  MMWave_listGetHead                                                   
0000982d  MMWave_listGetNext                                                   
000128b1  MMWave_listRemove                                                    
00011a53  MMWave_listRemoveNode                                                
0000e2e9  MMWave_open                                                          
00008121  MMWave_openLink                                                      
00011db5  MMWave_osalMutexCreate                                               
00012de3  MMWave_osalMutexDelete                                               
00012b41  MMWave_osalMutexLock                                                 
00005a75  MMWave_osalMutexUnlock                                               
00011de1  MMWave_osalSemCreate                                                 
00012df7  MMWave_osalSemDelete                                                 
00005c65  MMWave_osalSemSignal                                                 
00012b59  MMWave_osalSemWait                                                   
0000c729  MMWave_start                                                         
00009065  MMWave_startLink                                                     
000100ad  MMWave_stop                                                          
0000f3c5  MMWave_stopLink                                                      
000109b5  MMWave_sync                                                          
0001204d  Mailbox_Config_init                                                  
0000d541  Mailbox_close                                                        
00015ad4  Mailbox_defaultCfg                                                   
0000e76d  Mailbox_init                                                         
00003ed9  Mailbox_open                                                         
0000a0f5  Mailbox_read                                                         
0000f71d  Mailbox_readFlush                                                    
00008c4d  Mailbox_write                                                        
00011539  Mailbox_writeReset                                                   
00012f2d  MemoryP_ctrlAlloc                                                    
0000cb05  MemoryP_ctrlFree                                                     
0000117d  MmwDemo_CLIInit                                                      
0000ebbd  MmwDemo_Dss2MssISR                                                   
000061e9  MmwDemo_bpmConfig                                                    
0000dfc5  MmwDemo_gpioSwitchTask                                               
00006015  MmwDemo_mboxCallback                                                 
0001266d  MmwDemo_mboxWrite                                                    
0001037d  MmwDemo_mmWaveCtrlTask                                               
000045e5  MmwDemo_mssCtrlPathTask                                              
00004e95  MmwDemo_mssDataPathConfig                                            
0000b85d  MmwDemo_mssDataPathStart                                             
0000a1c9  MmwDemo_mssDataPathStop                                              
00001cb5  MmwDemo_mssInitTask                                                  
00012e0d  MmwDemo_mssMmwaveConfigCallbackFxn                                   
00008d55  MmwDemo_mssMmwaveEventCallbackFxn                                    
000128cd  MmwDemo_mssMmwaveStartCallbackFxn                                    
00012e21  MmwDemo_mssMmwaveStopCallbackFxn                                     
0000f999  MmwDemo_mssSetHsiClk                                                 
000123a1  MmwDemo_notifySensorStart                                            
000128e9  MmwDemo_notifySensorStop                                             
0000dd09  MmwDemo_sleep                                                        
0000d661  MmwDemo_waitSensorStartComplete                                      
0000c7cd  MmwDemo_waitSensorStopComplete                                       
0000f431  Pinmux_Set_FuncSel                                                   
0000c1f9  Pinmux_Set_OverrideCtrl                                              
UNDEFED   SHT$$INIT_ARRAY$$Base                                                
UNDEFED   SHT$$INIT_ARRAY$$Limit                                               
0000b817  SOC_MPUAreRegionsSeparate                                            
0000b7c3  SOC_MPUDisable                                                       
0000b7f7  SOC_MPUDisableBackgroundRegion                                       
0000b7a5  SOC_MPUEnable                                                        
0000b7e1  SOC_MPUEnableBackgroundRegion                                        
0000b80d  SOC_MPUGetNumberOfRegions                                            
0000b825  SOC_MPUGetRegion                                                     
0000b831  SOC_MPUGetRegionBaseAddress                                          
0000b84b  SOC_MPUGetRegionPermission                                           
0000b841  SOC_MPUGetRegionType                                                 
0000b81f  SOC_MPUSetRegion                                                     
0000b82b  SOC_MPUSetRegionBaseAddress                                          
0000b855  SOC_MPUSetRegionSizeRegister                                         
0000b837  SOC_MPUSetRegionTypeAndPermission                                    
00011fcd  SOC_SystemISR                                                        
0800dc44  SOC_TranslateAddr_LUT                                                
0000a525  SOC_controlSecureFirewall                                            
00002efd  SOC_deviceInit                                                       
00011a85  SOC_getDevicePartNumber                                              
0000ed91  SOC_getDeviceRFFreqScaleFactor                                       
00012905  SOC_getInAddr_LUTType                                                
000127cf  SOC_getOutAddr_LUTType                                               
0000e04d  SOC_init                                                             
000123c5  SOC_isMMWaveDSSOperational                                           
000123e9  SOC_isMMWaveMSSOperational                                           
0000dd0d  SOC_isSecureDevice                                                   
000118dd  SOC_setMMWaveDSSLinkState                                            
00011911  SOC_setMMWaveMSSLinkState                                            
0000dad9  SOC_translateAddress                                                 
00011575  SOC_unhaltBSS                                                        
00011e0d  SOC_waitBSSPowerUp                                                   
000086d9  SemaphoreP_Params_init                                               
0000facd  SemaphoreP_create                                                    
00011a13  SemaphoreP_delete                                                    
00012f3f  SemaphoreP_pend                                                      
0000f925  SemaphoreP_post                                                      
0000f925  SemaphoreP_postFromClock                                             
0000f925  SemaphoreP_postFromISR                                               
000066e5  UART_Params_init                                                     
0800dde4  UART_config                                                          
000159e4  UART_defaultParams                                                   
00011799  UART_init                                                            
00011945  UART_open                                                            
0000fcc5  UART_read                                                            
0000fd35  UART_write                                                           
0000fec5  UART_writePolling                                                    
000103d5  UartSci_closeDMA                                                     
000125c7  UartSci_disableRxDMA                                                 
00012e49  UartSci_disableTxDMA                                                 
000125e9  UartSci_enableRxDMA                                                  
00012e5d  UartSci_enableTxDMA                                                  
0000db65  UartSci_initiateRxDMA                                                
0000d6f1  UartSci_initiateTxDMA                                                
00006d15  UartSci_isDMAEnabled                                                 
0000ba85  UartSci_openDMA                                                      
00012e71  _DebugP_assert                                                       
00000000  __ASM__                                                              
0800f9ac  __CIOBUF_                                                            
00000091  __ISA__                                                              
000000a3  __PLAT__                                                             
08010ce8  __STACK_END                                                          
00001000  __STACK_SIZE                                                         
000000c7  __TARG__                                                             
00018f80  __TI_CINIT_Base                                                      
00018fa0  __TI_CINIT_Limit                                                     
00018f5c  __TI_Handler_Table_Base                                              
00018f68  __TI_Handler_Table_Limit                                             
0000c9c5  __TI_auto_init                                                       
00005f17  __TI_cleanup                                                         
0800df40  __TI_cleanup_ptr                                                     
0000d095  __TI_closefile                                                       
0000f509  __TI_decompress_lzss                                                 
00013091  __TI_decompress_none                                                 
0000a85d  __TI_doflush                                                         
0800df44  __TI_dtors_ptr                                                       
0800df48  __TI_enable_exit_profile_output                                      
0800df10  __TI_ft_end                                                          
ffffffff  __TI_pprof_out_hndl                                                  
000008c5  __TI_printfi                                                         
ffffffff  __TI_prof_data_size                                                  
ffffffff  __TI_prof_data_start                                                 
0000bdb5  __TI_rd_ok                                                           
0000f5ab  __TI_readmsg                                                         
00016060  __TI_static_base__                                                   
0800fbc8  __TI_tmpnams                                                         
0000f575  __TI_writemsg                                                        
0000bd51  __TI_wrt_ok                                                          
0000a445  __TI_zero_init                                                       
000000ee  __TRDR__                                                             
0000b85b  __aeabi_idiv0                                                        
0000e9d9  __aeabi_memclr                                                       
0000e9d9  __aeabi_memclr4                                                      
0000e9d9  __aeabi_memclr8                                                      
0000cd85  __aeabi_memcpy                                                       
0000cd85  __aeabi_memcpy4                                                      
0000cd85  __aeabi_memcpy8                                                      
0000e9db  __aeabi_memset                                                       
0000e9db  __aeabi_memset4                                                      
0000e9db  __aeabi_memset8                                                      
0800df1c  __aeabi_stderr                                                       
0800df14  __aeabi_stdin                                                        
0800df18  __aeabi_stdout                                                       
00010b44  __aeabi_uidiv                                                        
00010b44  __aeabi_uidivmod                                                     
000031fc  __aeabi_uldivmod                                                     
ffffffff  __binit__                                                            
ffffffff  __c_args__                                                           
0800fce8  __stack                                                              
00012c19  _args_main                                                           
0000ee04  _c_int00                                                             
0001553e  _ctypes_                                                             
0800da30  _device                                                              
0800d840  _ftable                                                              
0800df64  _lock                                                                
00012ea7  _nop                                                                 
00012e9f  _register_lock                                                       
00012e99  _register_unlock                                                     
0800db5c  _stream                                                              
0800df68  _unlock                                                              
00010af9  abort                                                                
0000f49d  angleDelta                                                           
00010aa5  atoi                                                                 
ffffffff  binit                                                                
00010485  close                                                                
00011e39  compute_innerprod                                                    
00010c89  copy_in                                                              
00012a8b  copysign                                                             
00012a8b  copysignl                                                            
0800a19c  energyLog                                                            
0800dfe4  errno                                                                
00010b01  exit                                                                 
00004139  exp                                                                  
00004139  expl                                                                 
0000d0fb  fclose                                                               
0800a0b4  featureVecPosLog                                                     
0000a8a9  fflush                                                               
0000e4ed  findDelta                                                            
0000ef61  finddevice                                                           
0800a024  fltGestureCnt                                                        
00005f6d  fopen                                                                
0000d12d  fputc                                                                
00012a57  free                                                                 
00005f43  freopen                                                              
0000efd5  frexp                                                                
0000efd5  frexpl                                                               
0000fb31  fseek                                                                
0800a728  gANN_struct_t                                                        
0800d2b8  gCLI                                                                 
0800d774  gCLIMMWaveControlCfg                                                 
0800d6cc  gCLIMMWaveExtensionTable                                             
0800d668  gCLIMMWaveOpenCfg                                                    
0800d660  gCLI_mmwave_freq_scale_factor                                        
0800d65c  gCRCRegister                                                         
0800df4c  gESMHwCfgAttrs                                                       
0800fc68  gEsmMCB                                                              
0800df6c  gGPIOHwAtrrib                                                        
0800f818  gGPIOMCB                                                             
0800fcd8  gMMWave_DualcoreMCB                                                  
0800facc  gMMWave_MCB                                                          
0800dbac  gMailboxMCB                                                          
0800de88  gMailboxMssBssHwCfg                                                  
0800dea0  gMailboxMssDssHwCfg                                                  
0800a39c  gMmwMssMCB                                                           
0800dfdc  gPinmuxRegs                                                          
0800dee8  gSOCHwAttrib                                                         
0800ddbc  gUartSciFxnTable                                                     
0800db04  gUartSciHwCfg                                                        
0800a014  gestureCnt                                                           
0800a01c  gestureCntPrev                                                       
0000fe65  gestureInferenceProcessing                                           
0800a03c  gestureProbabilityLog                                                
0800a00c  gestureTimeStamp                                                     
0000ef8f  getdevice                                                            
0800d244  hardCodedConfigCommands                                              
0800d240  hardCodedConfigIndex                                                 
00009741  ldexp                                                                
00009741  ldexpl                                                               
000120c5  log2Approx                                                           
000117d1  logEnergy                                                            
0000f12d  logFeatures                                                          
00012115  lseek                                                                
000106ed  ltoa                                                                 
00007471  main                                                                 
0800dff0  main_func_sp                                                         
00011d2f  malloc                                                               
00011727  maxCheck                                                             
00012959  memccpy                                                              
00012303  memcmp                                                               
0000cd85  memcpy                                                               
0000e9e1  memset                                                               
0800a02c  numDetectionsPerBucket                                               
0000b631  open                                                                 
0800fce0  parmbuf                                                              
0800d68c  partInfoStringArray                                                  
0800a000  peopleDetectorState                                                  
0800a004  peopleDetectorStateFlt                                               
0800a008  peopleDetectorStatePrev                                              
00007ff5  postProcessing                                                       
0000d12d  putc                                                                 
0000d1b3  putchar                                                              
00011e65  relu_activation                                                      
00011ee9  remove                                                               
00012e85  rlAppendDummy                                                        
00011807  rlAppendSubBlock                                                     
00011ff7  rlDeviceGetMmWaveLinkVersion                                         
00011e91  rlDeviceGetMssVersion                                                
00012bb9  rlDeviceGetRfVersion                                                 
00010e6b  rlDeviceGetVersion                                                   
00010a05  rlDeviceIdentifyCmdDir                                               
0000fa01  rlDevicePowerOff                                                     
0000dbf1  rlDevicePowerOn                                                      
0001240d  rlDeviceSetHsiClk                                                    
0000ee79  rlDriverAsyncEventHandler                                            
00012bd1  rlDriverCalCRC                                                       
0001021b  rlDriverCalChkSum                                                    
0000688d  rlDriverCmdInvoke                                                    
00008919  rlDriverCmdSendRetry                                                 
000120ed  rlDriverConstructInMsg                                               
000087f9  rlDriverConstructOutMsg                                              
0000d2f5  rlDriverDeInit                                                       
0000e56d  rlDriverExecuteGetApi                                                
0000f785  rlDriverExecuteSetApi                                                
00012be9  rlDriverFillPayload                                                  
00008b39  rlDriverGetHandle                                                    
0000b275  rlDriverGetPlatformId                                                
0000f7ed  rlDriverHostIrqHandler                                               
0000935d  rlDriverInit                                                         
00012c01  rlDriverIsDeviceMapValid                                             
0000dc7d  rlDriverMsgCmdReply                                                  
00008249  rlDriverMsgRead                                                      
0000d389  rlDriverMsgReadCmdCtx                                                
0001042d  rlDriverMsgReadSpawnCtx                                              
0000b0f5  rlDriverMsgWrite                                                     
00010eb5  rlDriverOsiInit                                                      
0000eeed  rlDriverProcRdMsg                                                    
00009459  rlDriverRdVerifyMsg                                                  
00006b95  rlDriverRxHdrRead                                                    
000111c7  rlDriverValidateHdr                                                  
00010a55  rlDriverVerifyCRC                                                    
0000ca65  rlDriverWaitForResponse                                              
00012431  rlEnableContMode                                                     
00012a71  rlGetRfDieId                                                         
000115b1  rlGetSubBlock                                                        
00007afb  rlGetSubBlockId                                                      
0000a929  rlGetSubBlockLen                                                     
0000a6c5  rlRfCalibDataRestore                                                 
000126ad  rlRfInit                                                             
000121f9  rlRfInitCalibConfig                                                  
0001221f  rlRfRunTimeCalibConfig                                               
00012455  rlRfSetCalMonTimeUnitConfig                                          
00012245  rlRfSetDeviceCfg                                                     
00011ab5  rlSensorStart                                                        
00011ebd  rlSensorStop                                                         
0001226b  rlSetAdcOutConfig                                                    
0000c2a1  rlSetAdvFrameConfig                                                  
00012291  rlSetBpmCommonConfig                                                 
000122b7  rlSetChannelConfig                                                   
0000a791  rlSetChirpConfig                                                     
000122dd  rlSetContModeConfig                                                  
0000b1b5  rlSetFrameConfig                                                     
00012479  rlSetLowPowerModeConfig                                              
0000a29d  rlSetMultiBpmChirpConfig                                             
0000bbe9  rlSetProfileConfig                                                   
0800cf5c  rl_rxMsg                                                             
0800ce5c  rl_txMsg                                                             
0000c349  runPeopleDetection                                                   
00009741  scalbn                                                               
00009741  scalbnl                                                              
00009d91  setvbuf                                                              
0000d811  soft_max                                                             
0000fb95  sprintf                                                              
00012d29  strchr                                                               
00012c31  strcmp                                                               
00012ead  strcpy                                                               
0001260b  strcspn                                                              
00012d3f  strlen                                                               
0001183d  strncpy                                                              
00012021  strspn                                                               
00005891  strtod                                                               
00011209  strtok                                                               
00005891  strtold                                                              
0800de08  ti_sysbios_BIOS_Module__state__V                                     
00012abf  ti_sysbios_BIOS_RtsGateProxy_Handle__label__S                        
0000dd9d  ti_sysbios_BIOS_RtsGateProxy_enter__E                                
0000e5ed  ti_sysbios_BIOS_RtsGateProxy_leave__E                                
00013181  ti_sysbios_BIOS_RtsGateProxy_query__E                                
00011ae5  ti_sysbios_BIOS_atExitFunc__I                                        
0001249d  ti_sysbios_BIOS_errorRaiseHook__I                                    
00012d55  ti_sysbios_BIOS_exitFunc__I                                          
000131d1  ti_sysbios_BIOS_linkedWithIncorrectBootLibrary__E                    
0000bb37  ti_sysbios_BIOS_nullFunc__I                                          
000124c1  ti_sysbios_BIOS_registerRTSLock__I                                   
000124e5  ti_sysbios_BIOS_removeRTSLock__I                                     
00012975  ti_sysbios_BIOS_rtsLock__I                                           
00012c49  ti_sysbios_BIOS_rtsUnlock__I                                         
00012fa1  ti_sysbios_BIOS_setThreadType__E                                     
00011b15  ti_sysbios_BIOS_startFunc__I                                         
00012fb1  ti_sysbios_BIOS_start__E                                             
00007304  ti_sysbios_family_arm_IntrinsicsSupport_maxbitA__I                   
00007304  ti_sysbios_family_arm_IntrinsicsSupport_maxbit__E                    
0000f19d  ti_sysbios_family_arm_TaskSupport_Module__startupDone__S             
0000e864  ti_sysbios_family_arm_TaskSupport_buildTaskStack                     
000130b1  ti_sysbios_family_arm_TaskSupport_checkStack__E                      
000130c1  ti_sysbios_family_arm_TaskSupport_getStackAlignment__E               
00012920  ti_sysbios_family_arm_TaskSupport_glue                               
00015d88  ti_sysbios_family_arm_TaskSupport_stackAlignment__C                  
00011b51  ti_sysbios_family_arm_TaskSupport_start__E                           
0001293c  ti_sysbios_family_arm_TaskSupport_swap__E                            
00015d8c  ti_sysbios_family_arm_exc_Exception_E_dataAbort__C                   
00015d90  ti_sysbios_family_arm_exc_Exception_E_prefetchAbort__C               
00015d94  ti_sysbios_family_arm_exc_Exception_E_swi__C                         
00015d98  ti_sysbios_family_arm_exc_Exception_E_undefinedInstruction__C        
0800e014  ti_sysbios_family_arm_exc_Exception_Module_State_0_excActive__A      
0800dff8  ti_sysbios_family_arm_exc_Exception_Module_State_0_excContext__A     
0800dffc  ti_sysbios_family_arm_exc_Exception_Module_State_0_excStackBuffers__A
0800e018  ti_sysbios_family_arm_exc_Exception_Module_State_0_excStack_0__A     
0800e000  ti_sysbios_family_arm_exc_Exception_Module_State_0_excStack__A       
000150a6  ti_sysbios_family_arm_exc_Exception_Module__id__C                    
0800defc  ti_sysbios_family_arm_exc_Exception_Module__state__V                 
000130d1  ti_sysbios_family_arm_exc_Exception_Module_startup__E                
000039f1  ti_sysbios_family_arm_exc_Exception_excDumpContext__I                
0000a5f4  ti_sysbios_family_arm_exc_Exception_excHandlerAsm__I                 
0000a65c  ti_sysbios_family_arm_exc_Exception_excHandlerDataAsm__I             
00006d21  ti_sysbios_family_arm_exc_Exception_excHandler__I                    
00015d9c  ti_sysbios_family_arm_exc_Exception_excHookFuncs__A                  
00015da0  ti_sysbios_family_arm_exc_Exception_excHookFuncs__C                  
0000fbf8  ti_sysbios_family_arm_exc_Exception_initCore0__I                     
00015da4  ti_sysbios_family_arm_v7a_Pmu_A_invalidCounterId__C                  
00015da8  ti_sysbios_family_arm_v7a_Pmu_Module__diagsEnabled__C                
00015dac  ti_sysbios_family_arm_v7a_Pmu_Module__diagsIncluded__C               
00015db0  ti_sysbios_family_arm_v7a_Pmu_Module__diagsMask__C                   
00015d3a  ti_sysbios_family_arm_v7a_Pmu_Module__id__C                          
0800df58  ti_sysbios_family_arm_v7a_Pmu_Module__state__V                       
000126d1  ti_sysbios_family_arm_v7a_Pmu_Module_startup__E                      
0000b9c4  ti_sysbios_family_arm_v7a_Pmu_configureCounterI__I                   
0000af71  ti_sysbios_family_arm_v7a_Pmu_configureCounter__E                    
00012fc0  ti_sysbios_family_arm_v7a_Pmu_disableInterruptI__E                   
00012fd0  ti_sysbios_family_arm_v7a_Pmu_enableInterruptI__E                    
00009648  ti_sysbios_family_arm_v7a_Pmu_getEnabled__E                          
00012fe0  ti_sysbios_family_arm_v7a_Pmu_getNumCounters__E                      
00012c60  ti_sysbios_family_arm_v7a_Pmu_initCounters__I                        
00012ff0  ti_sysbios_family_arm_v7a_Pmu_startCounterI__E                       
0000d8a1  ti_sysbios_family_arm_v7a_Pmu_startCounter__E                        
00013000  ti_sysbios_family_arm_v7a_Pmu_stopCounterI__E                        
00015db4  ti_sysbios_family_arm_v7r_tms570_Core_E_mismatchedIds__C             
00016028  ti_sysbios_family_arm_v7r_tms570_Core_Module__id__C                  
000110a1  ti_sysbios_family_arm_v7r_tms570_Core_Module_startup__E              
00010535  ti_sysbios_family_arm_v7r_tms570_Core_getId__E                       
00015db8  ti_sysbios_family_arm_v7r_tms570_Core_id__C                          
00015dbc  ti_sysbios_family_arm_v7r_vim_Hwi_A_badChannelId__C                  
00015dc0  ti_sysbios_family_arm_v7r_vim_Hwi_E_alreadyDefined__C                
00015dc4  ti_sysbios_family_arm_v7r_vim_Hwi_E_badIntNum__C                     
00015dc8  ti_sysbios_family_arm_v7r_vim_Hwi_E_phantomInterrupt__C              
00015dcc  ti_sysbios_family_arm_v7r_vim_Hwi_E_undefined__C                     
00015dd0  ti_sysbios_family_arm_v7r_vim_Hwi_E_unsupportedMaskingOption__C      
0000dd11  ti_sysbios_family_arm_v7r_vim_Hwi_Instance_finalize__E               
000086e1  ti_sysbios_family_arm_v7r_vim_Hwi_Instance_init__E                   
00015dd4  ti_sysbios_family_arm_v7r_vim_Hwi_LD_end__C                          
00015dd8  ti_sysbios_family_arm_v7r_vim_Hwi_LM_begin__C                        
0800d45c  ti_sysbios_family_arm_v7r_vim_Hwi_Module_State_0_dispatchTable__A    
08010ce8  ti_sysbios_family_arm_v7r_vim_Hwi_Module_State_0_fiqStack__A         
00015ddc  ti_sysbios_family_arm_v7r_vim_Hwi_Module__diagsEnabled__C            
00015de0  ti_sysbios_family_arm_v7r_vim_Hwi_Module__diagsIncluded__C           
00015de4  ti_sysbios_family_arm_v7r_vim_Hwi_Module__diagsMask__C               
0001602a  ti_sysbios_family_arm_v7r_vim_Hwi_Module__id__C                      
0001602c  ti_sysbios_family_arm_v7r_vim_Hwi_Module__loggerDefined__C           
00015de8  ti_sysbios_family_arm_v7r_vim_Hwi_Module__loggerFxn1__C              
00015dec  ti_sysbios_family_arm_v7r_vim_Hwi_Module__loggerFxn8__C              
00015df0  ti_sysbios_family_arm_v7r_vim_Hwi_Module__loggerObj__C               
0800df74  ti_sysbios_family_arm_v7r_vim_Hwi_Module__root__V                    
00012c79  ti_sysbios_family_arm_v7r_vim_Hwi_Module__startupDone__F             
00012c79  ti_sysbios_family_arm_v7r_vim_Hwi_Module__startupDone__S             
0800dd00  ti_sysbios_family_arm_v7r_vim_Hwi_Module__state__V                   
00009651  ti_sysbios_family_arm_v7r_vim_Hwi_Module_startup__E                  
00015df4  ti_sysbios_family_arm_v7r_vim_Hwi_NUM_INTERRUPTS__C                  
00015ba8  ti_sysbios_family_arm_v7r_vim_Hwi_Object__DESC__C                    
00015a50  ti_sysbios_family_arm_v7r_vim_Hwi_Object__PARAMS__C                  
000126f1  ti_sysbios_family_arm_v7r_vim_Hwi_Object__delete__S                  
0800dd64  ti_sysbios_family_arm_v7r_vim_Hwi_Object__table__V                   
00012c91  ti_sysbios_family_arm_v7r_vim_Hwi_Params__init__S                    
00015850  ti_sysbios_family_arm_v7r_vim_Hwi_channelMap__A                      
00015df8  ti_sysbios_family_arm_v7r_vim_Hwi_channelMap__C                      
00012991  ti_sysbios_family_arm_v7r_vim_Hwi_clearInterrupt__E                  
00010741  ti_sysbios_family_arm_v7r_vim_Hwi_create                             
0000fc5d  ti_sysbios_family_arm_v7r_vim_Hwi_delete                             
00012711  ti_sysbios_family_arm_v7r_vim_Hwi_disableInterrupt__E                
00005a81  ti_sysbios_family_arm_v7r_vim_Hwi_dispatchIRQC__I                    
0000d41c  ti_sysbios_family_arm_v7r_vim_Hwi_dispatchIRQ__I                     
00012731  ti_sysbios_family_arm_v7r_vim_Hwi_enableInterrupt__E                 
00010ce1  ti_sysbios_family_arm_v7r_vim_Hwi_getStackInfo__E                    
0000ce21  ti_sysbios_family_arm_v7r_vim_Hwi_initIntController__I               
000115ec  ti_sysbios_family_arm_v7r_vim_Hwi_init__I                            
00015d3c  ti_sysbios_family_arm_v7r_vim_Hwi_intReqEnaSet__A                    
00015dfc  ti_sysbios_family_arm_v7r_vim_Hwi_intReqEnaSet__C                    
0000cec1  ti_sysbios_family_arm_v7r_vim_Hwi_mapChannel__I                      
00015e00  ti_sysbios_family_arm_v7r_vim_Hwi_phantomFunc__C                     
0000fc61  ti_sysbios_family_arm_v7r_vim_Hwi_phantomIntHandler__I               
00007311  ti_sysbios_family_arm_v7r_vim_Hwi_reconfig__E                        
00013121  ti_sysbios_family_arm_v7r_vim_Hwi_startup__E                         
00015e04  ti_sysbios_family_arm_v7r_vim_Hwi_swiDisable__C                      
00015e08  ti_sysbios_family_arm_v7r_vim_Hwi_swiRestoreHwi__C                   
000130e1  ti_sysbios_family_arm_v7r_vim_Hwi_switchFromBootStack__E             
00015e0c  ti_sysbios_family_arm_v7r_vim_Hwi_taskDisable__C                     
00015e10  ti_sysbios_family_arm_v7r_vim_Hwi_taskRestoreHwi__C                  
00000000  ti_sysbios_family_arm_v7r_vim_Hwi_vectors                            
fffffdec  ti_sysbios_family_arm_v7r_vim_Hwi_vim                                
00015d4c  ti_sysbios_family_arm_v7r_vim_Hwi_wakeEnaSet__A                      
00015e14  ti_sysbios_family_arm_v7r_vim_Hwi_wakeEnaSet__C                      
0000d210  ti_sysbios_family_xxx_Hwi_switchAndRunDispatchC                      
0000d1c4  ti_sysbios_family_xxx_Hwi_switchAndRunFunc                           
00012aa5  ti_sysbios_gates_GateHwi_Handle__label__S                            
000131e1  ti_sysbios_gates_GateHwi_Instance_init__E                            
00015af8  ti_sysbios_gates_GateHwi_Module__FXNS__C                             
0800df7c  ti_sysbios_gates_GateHwi_Module__root__V                             
00015bc8  ti_sysbios_gates_GateHwi_Object__DESC__C                             
00015cc4  ti_sysbios_gates_GateHwi_Object__PARAMS__C                           
00011b81  ti_sysbios_gates_GateHwi_Object__create__S                           
00012751  ti_sysbios_gates_GateHwi_Object__delete__S                           
0800e004  ti_sysbios_gates_GateHwi_Object__table__V                            
00013111  ti_sysbios_gates_GateHwi_enter__E                                    
00013131  ti_sysbios_gates_GateHwi_leave__E                                    
00013171  ti_sysbios_gates_GateHwi_query__E                                    
00015e18  ti_sysbios_gates_GateMutex_A_badContext__C                           
00012abf  ti_sysbios_gates_GateMutex_Handle__label__S                          
00015e1c  ti_sysbios_gates_GateMutex_Instance_State_sem__O                     
00013011  ti_sysbios_gates_GateMutex_Instance_finalize__E                      
000129b1  ti_sysbios_gates_GateMutex_Instance_init__E                          
00015b1c  ti_sysbios_gates_GateMutex_Module__FXNS__C                           
00015e20  ti_sysbios_gates_GateMutex_Module__diagsEnabled__C                   
00015e24  ti_sysbios_gates_GateMutex_Module__diagsIncluded__C                  
00015e28  ti_sysbios_gates_GateMutex_Module__diagsMask__C                      
0001602e  ti_sysbios_gates_GateMutex_Module__id__C                             
0800df84  ti_sysbios_gates_GateMutex_Module__root__V                           
00015be8  ti_sysbios_gates_GateMutex_Object__DESC__C                           
00015cdc  ti_sysbios_gates_GateMutex_Object__PARAMS__C                         
00011bb1  ti_sysbios_gates_GateMutex_Object__create__S                         
00012509  ti_sysbios_gates_GateMutex_Object__delete__S                         
0800dc84  ti_sysbios_gates_GateMutex_Object__table__V                          
0000b911  ti_sysbios_gates_GateMutex_enter__E                                  
000129d1  ti_sysbios_gates_GateMutex_leave__E                                  
00013181  ti_sysbios_gates_GateMutex_query__E                                  
00010535  ti_sysbios_hal_Core_CoreProxy_getId__E                               
00015e2c  ti_sysbios_hal_Hwi_E_stackOverflow__C                                
00012c79  ti_sysbios_hal_Hwi_HwiProxy_Module__startupDone__S                   
00012c91  ti_sysbios_hal_Hwi_HwiProxy_Params__init__S                          
00012991  ti_sysbios_hal_Hwi_HwiProxy_clearInterrupt__E                        
00012711  ti_sysbios_hal_Hwi_HwiProxy_disableInterrupt__E                      
00012731  ti_sysbios_hal_Hwi_HwiProxy_enableInterrupt__E                       
00010ce1  ti_sysbios_hal_Hwi_HwiProxy_getStackInfo__E                          
00013121  ti_sysbios_hal_Hwi_HwiProxy_startup__E                               
000130e1  ti_sysbios_hal_Hwi_HwiProxy_switchFromBootStack__E                   
00016030  ti_sysbios_hal_Hwi_Module__id__C                                     
00012f51  ti_sysbios_hal_Hwi_Module_startup__E                                 
0800df8c  ti_sysbios_hal_Hwi_Object__table__V                                  
00011631  ti_sysbios_hal_Hwi_checkStack                                        
00012991  ti_sysbios_hal_Hwi_clearInterrupt__E                                 
00012711  ti_sysbios_hal_Hwi_disableInterrupt__E                               
00012731  ti_sysbios_hal_Hwi_enableInterrupt__E                                
00010ce1  ti_sysbios_hal_Hwi_getStackInfo__E                                   
00011a21  ti_sysbios_hal_Hwi_initStack                                         
00013121  ti_sysbios_hal_Hwi_startup__E                                        
000130e1  ti_sysbios_hal_Hwi_switchFromBootStack__E                            
00015e30  ti_sysbios_heaps_HeapBuf_Instance_State_freeList__O                  
0800e008  ti_sysbios_heaps_HeapBuf_Module__state__V                            
00009831  ti_sysbios_heaps_HeapBuf_Module_startup__E                           
00015e34  ti_sysbios_heaps_HeapBuf_Object__count__C                            
00013021  ti_sysbios_heaps_HeapBuf_Object__get__S                              
00015e38  ti_sysbios_heaps_HeapBuf_numConstructedHeaps__C                      
00015e3c  ti_sysbios_heaps_HeapMem_A_align__C                                  
00015e40  ti_sysbios_heaps_HeapMem_A_heapSize__C                               
00015e44  ti_sysbios_heaps_HeapMem_A_invalidFree__C                            
00015e48  ti_sysbios_heaps_HeapMem_A_zeroBlock__C                              
00015e4c  ti_sysbios_heaps_HeapMem_E_memory__C                                 
00012ad9  ti_sysbios_heaps_HeapMem_Handle__label__S                            
08000000  ti_sysbios_heaps_HeapMem_Instance_State_0_buf__A                     
00007b01  ti_sysbios_heaps_HeapMem_Instance_init__E                            
00012abf  ti_sysbios_heaps_HeapMem_Module_GateProxy_Handle__label__S           
00010855  ti_sysbios_heaps_HeapMem_Module_GateProxy_enter__E                   
00010859  ti_sysbios_heaps_HeapMem_Module_GateProxy_leave__E                   
00013181  ti_sysbios_heaps_HeapMem_Module_GateProxy_query__E                   
00015aac  ti_sysbios_heaps_HeapMem_Module__FXNS__C                             
00015e50  ti_sysbios_heaps_HeapMem_Module__diagsEnabled__C                     
00015e54  ti_sysbios_heaps_HeapMem_Module__diagsIncluded__C                    
00015e58  ti_sysbios_heaps_HeapMem_Module__diagsMask__C                        
00015e5c  ti_sysbios_heaps_HeapMem_Module__gateObj__C                          
00016032  ti_sysbios_heaps_HeapMem_Module__id__C                               
0800df94  ti_sysbios_heaps_HeapMem_Module__root__V                             
00015c08  ti_sysbios_heaps_HeapMem_Object__DESC__C                             
00015b40  ti_sysbios_heaps_HeapMem_Object__PARAMS__C                           
00015e60  ti_sysbios_heaps_HeapMem_Object__count__C                            
00011be1  ti_sysbios_heaps_HeapMem_Object__create__S                           
00012771  ti_sysbios_heaps_HeapMem_Object__delete__S                           
00012ec1  ti_sysbios_heaps_HeapMem_Object__get__S                              
0800deb8  ti_sysbios_heaps_HeapMem_Object__table__V                            
00004831  ti_sysbios_heaps_HeapMem_allocUnprotected__E                         
0000fed1  ti_sysbios_heaps_HeapMem_alloc__E                                    
000034c1  ti_sysbios_heaps_HeapMem_freeUnprotected__E                          
00011c11  ti_sysbios_heaps_HeapMem_free__E                                     
000107a1  ti_sysbios_heaps_HeapMem_getStats__E                                 
00011671  ti_sysbios_heaps_HeapMem_init__I                                     
00013141  ti_sysbios_heaps_HeapMem_isBlocking__E                               
00015e64  ti_sysbios_heaps_HeapMem_reqAlign__C                                 
00015e68  ti_sysbios_knl_Clock_LM_begin__C                                     
00015e6c  ti_sysbios_knl_Clock_LM_tick__C                                      
00015e70  ti_sysbios_knl_Clock_LW_delayed__C                                   
00015e74  ti_sysbios_knl_Clock_Module_State_clockQ__O                          
00015e78  ti_sysbios_knl_Clock_Module__diagsEnabled__C                         
00015e7c  ti_sysbios_knl_Clock_Module__diagsIncluded__C                        
00015e80  ti_sysbios_knl_Clock_Module__diagsMask__C                            
00016034  ti_sysbios_knl_Clock_Module__id__C                                   
00016036  ti_sysbios_knl_Clock_Module__loggerDefined__C                        
00015e84  ti_sysbios_knl_Clock_Module__loggerFxn1__C                           
00015e88  ti_sysbios_knl_Clock_Module__loggerFxn2__C                           
00015e8c  ti_sysbios_knl_Clock_Module__loggerObj__C                            
0800dd90  ti_sysbios_knl_Clock_Module__state__V                                
00012531  ti_sysbios_knl_Clock_Module_startup__E                               
00012cf9  ti_sysbios_knl_Clock_TimerProxy_Module__startupDone__S               
0001085d  ti_sysbios_knl_Clock_TimerProxy_getMaxTicks__E                       
0000b281  ti_sysbios_knl_Clock_TimerProxy_startup__E                           
00011f15  ti_sysbios_knl_Clock_doTick__I                                       
0000fcd1  ti_sysbios_knl_Clock_logTick__E                                      
00007d81  ti_sysbios_knl_Clock_workFunc__E                                     
00015e90  ti_sysbios_knl_Event_A_badContext__C                                 
00015e94  ti_sysbios_knl_Event_A_eventInUse__C                                 
00015e98  ti_sysbios_knl_Event_A_nullEventId__C                                
00015e9c  ti_sysbios_knl_Event_A_nullEventMasks__C                             
00015ea0  ti_sysbios_knl_Event_A_pendTaskDisabled__C                           
00015ea4  ti_sysbios_knl_Event_Instance_State_pendQ__O                         
00012ee1  ti_sysbios_knl_Event_Instance_init__E                                
00015ea8  ti_sysbios_knl_Event_LM_pend__C                                      
00015eac  ti_sysbios_knl_Event_LM_post__C                                      
00015eb0  ti_sysbios_knl_Event_Module__diagsEnabled__C                         
00015eb4  ti_sysbios_knl_Event_Module__diagsIncluded__C                        
00015eb8  ti_sysbios_knl_Event_Module__diagsMask__C                            
00016038  ti_sysbios_knl_Event_Module__id__C                                   
0001603a  ti_sysbios_knl_Event_Module__loggerDefined__C                        
00015ebc  ti_sysbios_knl_Event_Module__loggerFxn4__C                           
00015ec0  ti_sysbios_knl_Event_Module__loggerFxn8__C                           
00015ec4  ti_sysbios_knl_Event_Module__loggerObj__C                            
0800df9c  ti_sysbios_knl_Event_Module__root__V                                 
00015c28  ti_sysbios_knl_Event_Object__DESC__C                                 
00015cf4  ti_sysbios_knl_Event_Object__PARAMS__C                               
00011c41  ti_sysbios_knl_Event_create                                          
00011cd1  ti_sysbios_knl_Event_pendTimeout__I                                  
00002541  ti_sysbios_knl_Event_pend__E                                         
00007021  ti_sysbios_knl_Event_post__E                                         
00015d5c  ti_sysbios_knl_Idle_funcList__A                                      
00015d64  ti_sysbios_knl_Idle_funcList__C                                      
00012d71  ti_sysbios_knl_Idle_loop__E                                          
00012171  ti_sysbios_knl_Idle_run__E                                           
00007304  ti_sysbios_knl_Intrinsics_SupportProxy_maxbit__E                     
00007304  ti_sysbios_knl_Intrinsics_maxbit__E                                  
00013151  ti_sysbios_knl_Queue_Instance_init__E                                
0800dfa4  ti_sysbios_knl_Queue_Module__root__V                                 
00015c48  ti_sysbios_knl_Queue_Object__DESC__C                                 
00015d0c  ti_sysbios_knl_Queue_Object__PARAMS__C                               
0000c915  ti_sysbios_knl_Queue_Object__get__S                                  
00011f41  ti_sysbios_knl_Queue_construct                                       
000129ed  ti_sysbios_knl_Queue_destruct                                        
000130a1  ti_sysbios_knl_Queue_empty__E                                        
00015ec8  ti_sysbios_knl_Semaphore_A_badContext__C                             
00015ecc  ti_sysbios_knl_Semaphore_A_noEvents__C                               
00015ed0  ti_sysbios_knl_Semaphore_A_overflow__C                               
00015ed4  ti_sysbios_knl_Semaphore_A_pendTaskDisabled__C                       
00015ed8  ti_sysbios_knl_Semaphore_Instance_State_pendQ__O                     
00013031  ti_sysbios_knl_Semaphore_Instance_finalize__E                        
0000cf61  ti_sysbios_knl_Semaphore_Instance_init__E                            
00015edc  ti_sysbios_knl_Semaphore_LM_pend__C                                  
00015ee0  ti_sysbios_knl_Semaphore_LM_post__C                                  
00015ee4  ti_sysbios_knl_Semaphore_Module__diagsEnabled__C                     
00015ee8  ti_sysbios_knl_Semaphore_Module__diagsIncluded__C                    
00015eec  ti_sysbios_knl_Semaphore_Module__diagsMask__C                        
0001603c  ti_sysbios_knl_Semaphore_Module__id__C                               
0001603e  ti_sysbios_knl_Semaphore_Module__loggerDefined__C                    
00015ef0  ti_sysbios_knl_Semaphore_Module__loggerFxn2__C                       
00015ef4  ti_sysbios_knl_Semaphore_Module__loggerFxn4__C                       
00015ef8  ti_sysbios_knl_Semaphore_Module__loggerObj__C                        
0800dfac  ti_sysbios_knl_Semaphore_Module__root__V                             
00015c68  ti_sysbios_knl_Semaphore_Object__DESC__C                             
00015b64  ti_sysbios_knl_Semaphore_Object__PARAMS__C                           
00012555  ti_sysbios_knl_Semaphore_Object__delete__S                           
00012ca9  ti_sysbios_knl_Semaphore_Params__init__S                             
00011c71  ti_sysbios_knl_Semaphore_construct                                   
00011979  ti_sysbios_knl_Semaphore_create                                      
000108b5  ti_sysbios_knl_Semaphore_delete                                      
00012791  ti_sysbios_knl_Semaphore_destruct                                    
00011d01  ti_sysbios_knl_Semaphore_pendTimeout__I                              
000028e1  ti_sysbios_knl_Semaphore_pend__E                                     
00006ea1  ti_sysbios_knl_Semaphore_post__E                                     
00015efc  ti_sysbios_knl_Swi_LD_end__C                                         
00015f00  ti_sysbios_knl_Swi_LM_begin__C                                       
00015f04  ti_sysbios_knl_Swi_LM_post__C                                        
0800d930  ti_sysbios_knl_Swi_Module_State_0_readyQ__A                          
00015f08  ti_sysbios_knl_Swi_Module__diagsEnabled__C                           
00015f0c  ti_sysbios_knl_Swi_Module__diagsIncluded__C                          
00015f10  ti_sysbios_knl_Swi_Module__diagsMask__C                              
00016040  ti_sysbios_knl_Swi_Module__id__C                                     
00016042  ti_sysbios_knl_Swi_Module__loggerDefined__C                          
00015f14  ti_sysbios_knl_Swi_Module__loggerFxn1__C                             
00015f18  ti_sysbios_knl_Swi_Module__loggerFxn4__C                             
00015f1c  ti_sysbios_knl_Swi_Module__loggerObj__C                              
0800de6c  ti_sysbios_knl_Swi_Module__state__V                                  
00011f71  ti_sysbios_knl_Swi_Module_startup__E                                 
00015f20  ti_sysbios_knl_Swi_Object__count__C                                  
00012ef5  ti_sysbios_knl_Swi_Object__get__S                                    
0800dd34  ti_sysbios_knl_Swi_Object__table__V                                  
00013041  ti_sysbios_knl_Swi_disable__E                                        
0000c3f1  ti_sysbios_knl_Swi_post__E                                           
00010541  ti_sysbios_knl_Swi_restoreHwi__E                                     
00010801  ti_sysbios_knl_Swi_runLoop__I                                        
00008801  ti_sysbios_knl_Swi_run__I                                            
0000f931  ti_sysbios_knl_Swi_schedule__I                                       
00010861  ti_sysbios_knl_Swi_startup__E                                        
00015f24  ti_sysbios_knl_Task_A_badPriority__C                                 
00015f28  ti_sysbios_knl_Task_A_badTaskState__C                                
00015f2c  ti_sysbios_knl_Task_A_badThreadType__C                               
00015f30  ti_sysbios_knl_Task_A_badTimeout__C                                  
00015f34  ti_sysbios_knl_Task_A_noPendElem__C                                  
00015f38  ti_sysbios_knl_Task_A_sleepTaskDisabled__C                           
00015f3c  ti_sysbios_knl_Task_E_spOutOfBounds__C                               
00015f40  ti_sysbios_knl_Task_E_stackOverflow__C                               
0800f018  ti_sysbios_knl_Task_Instance_State_0_stack__A                        
00003c71  ti_sysbios_knl_Task_Instance_finalize__E                             
00006021  ti_sysbios_knl_Task_Instance_init__E                                 
00015f44  ti_sysbios_knl_Task_LD_block__C                                      
00015f48  ti_sysbios_knl_Task_LD_exit__C                                       
00015f4c  ti_sysbios_knl_Task_LD_ready__C                                      
00015f50  ti_sysbios_knl_Task_LM_sleep__C                                      
00015f54  ti_sysbios_knl_Task_LM_switch__C                                     
0800e00c  ti_sysbios_knl_Task_Module_State_0_idleTask__A                       
0800d9b0  ti_sysbios_knl_Task_Module_State_0_readyQ__A                         
00015f58  ti_sysbios_knl_Task_Module_State_inactiveQ__O                        
00015f5c  ti_sysbios_knl_Task_Module__diagsEnabled__C                          
00015f60  ti_sysbios_knl_Task_Module__diagsIncluded__C                         
00015f64  ti_sysbios_knl_Task_Module__diagsMask__C                             
00016044  ti_sysbios_knl_Task_Module__id__C                                    
00016046  ti_sysbios_knl_Task_Module__loggerDefined__C                         
00015f68  ti_sysbios_knl_Task_Module__loggerFxn2__C                            
00015f6c  ti_sysbios_knl_Task_Module__loggerFxn4__C                            
00015f70  ti_sysbios_knl_Task_Module__loggerObj__C                             
0800dfb4  ti_sysbios_knl_Task_Module__root__V                                  
0800dbfc  ti_sysbios_knl_Task_Module__state__V                                 
00005c71  ti_sysbios_knl_Task_Module_startup__E                                
00015c88  ti_sysbios_knl_Task_Object__DESC__C                                  
000159a0  ti_sysbios_knl_Task_Object__PARAMS__C                                
00015f74  ti_sysbios_knl_Task_Object__count__C                                 
00013051  ti_sysbios_knl_Task_Object__get__S                                   
0800daa8  ti_sysbios_knl_Task_Object__table__V                                 
00012cc1  ti_sysbios_knl_Task_Params__init__S                                  
0000f19d  ti_sysbios_knl_Task_SupportProxy_Module__startupDone__S              
000130b1  ti_sysbios_knl_Task_SupportProxy_checkStack__E                       
000130c1  ti_sysbios_knl_Task_SupportProxy_getStackAlignment__E                
00011b51  ti_sysbios_knl_Task_SupportProxy_start__E                            
0001293c  ti_sysbios_knl_Task_SupportProxy_swap__E                             
00015f78  ti_sysbios_knl_Task_allBlockedFunc__C                                
000110f1  ti_sysbios_knl_Task_allBlockedFunction__I                            
0000cb11  ti_sysbios_knl_Task_blockI__E                                        
0000a931  ti_sysbios_knl_Task_checkStacks__E                                   
00010d2d  ti_sysbios_knl_Task_create                                           
00015f7c  ti_sysbios_knl_Task_defaultStackHeap__C                              
00015f80  ti_sysbios_knl_Task_defaultStackSize__C                              
00013061  ti_sysbios_knl_Task_disable__E                                       
00012ce1  ti_sysbios_knl_Task_enter__I                                         
0000a371  ti_sysbios_knl_Task_exit__E                                          
00015f84  ti_sysbios_knl_Task_numConstructedTasks__C                           
0000ad21  ti_sysbios_knl_Task_postInit__I                                      
00012581  ti_sysbios_knl_Task_restoreHwi__E                                    
0000a451  ti_sysbios_knl_Task_schedule__I                                      
00012d91  ti_sysbios_knl_Task_sleepTimeout__I                                  
00004a61  ti_sysbios_knl_Task_sleep__E                                         
0000b9d1  ti_sysbios_knl_Task_startCore__E                                     
00013191  ti_sysbios_knl_Task_startup__E                                       
0000d931  ti_sysbios_knl_Task_unblockI__E                                      
00015f88  ti_sysbios_timers_rti_Timer_E_cannotSupport__C                       
0800ded0  ti_sysbios_timers_rti_Timer_Module_State_0_device__A                 
0800dfbc  ti_sysbios_timers_rti_Timer_Module_State_0_handles__A                
0800df20  ti_sysbios_timers_rti_Timer_Module_State_0_intFreqs__A               
00015f8c  ti_sysbios_timers_rti_Timer_Module__diagsEnabled__C                  
00015f90  ti_sysbios_timers_rti_Timer_Module__diagsIncluded__C                 
00015f94  ti_sysbios_timers_rti_Timer_Module__diagsMask__C                     
00016048  ti_sysbios_timers_rti_Timer_Module__id__C                            
00012cf9  ti_sysbios_timers_rti_Timer_Module__startupDone__F                   
00012cf9  ti_sysbios_timers_rti_Timer_Module__startupDone__S                   
0800df30  ti_sysbios_timers_rti_Timer_Module__state__V                         
00006a11  ti_sysbios_timers_rti_Timer_Module_startup__E                        
0800dcc4  ti_sysbios_timers_rti_Timer_Object__table__V                         
0001604a  ti_sysbios_timers_rti_Timer_continueOnSuspend__C                     
00008e61  ti_sysbios_timers_rti_Timer_getFreq__E                               
000131a1  ti_sysbios_timers_rti_Timer_getMaxTicks__E                           
0000e5f1  ti_sysbios_timers_rti_Timer_initDevice__I                            
00015f98  ti_sysbios_timers_rti_Timer_numTimerDevices__C                       
00011fa1  ti_sysbios_timers_rti_Timer_periodicStub__E                          
000116b1  ti_sysbios_timers_rti_Timer_setPeriod__E                             
00015f9c  ti_sysbios_timers_rti_Timer_startupNeeded__C                         
0000b281  ti_sysbios_timers_rti_Timer_startup__E                               
00011251  ti_sysbios_timers_rti_Timer_stop__E                                  
00011ee9  unlink                                                               
0000e0d5  vsnprintf                                                            
0001213d  write                                                                
00015fa0  xdc_runtime_Assert_E_assertFailed__C                                 
0000ff31  xdc_runtime_Assert_raise__I                                          
00015fa4  xdc_runtime_Core_A_initializedParams__C                              
00015fa8  xdc_runtime_Core_Module__diagsEnabled__C                             
00015fac  xdc_runtime_Core_Module__diagsIncluded__C                            
00015fb0  xdc_runtime_Core_Module__diagsMask__C                                
0001604c  xdc_runtime_Core_Module__id__C                                       
000108c1  xdc_runtime_Core_assignLabel__I                                      
00010dd1  xdc_runtime_Core_assignParams__I                                     
00008b41  xdc_runtime_Core_constructObject__I                                  
00007c41  xdc_runtime_Core_createObject__I                                     
0000e8e1  xdc_runtime_Core_deleteObject__I                                     
00015fb4  xdc_runtime_Error_E_memory__C                                        
0800de2c  xdc_runtime_Error_IgnoreBlock                                        
00015fb8  xdc_runtime_Error_Module__diagsEnabled__C                            
00015fbc  xdc_runtime_Error_Module__diagsIncluded__C                           
00015fc0  xdc_runtime_Error_Module__diagsMask__C                               
0001604e  xdc_runtime_Error_Module__loggerDefined__C                           
00015fc4  xdc_runtime_Error_Module__loggerFxn8__C                              
00015fc8  xdc_runtime_Error_Module__loggerObj__C                               
0800e016  xdc_runtime_Error_Module__state__V                                   
00012d11  xdc_runtime_Error_init__E                                            
00016050  xdc_runtime_Error_maxDepth__C                                        
000066f1  xdc_runtime_Error_policyDefault__E                                   
00015fcc  xdc_runtime_Error_policyFxn__C                                       
00015fd0  xdc_runtime_Error_policy__C                                          
0000f1a1  xdc_runtime_Error_print__E                                           
00015fd4  xdc_runtime_Error_raiseHook__C                                       
00015fd8  xdc_runtime_IGateProvider_Interface__BASE__C                         
00015fdc  xdc_runtime_IHeap_Interface__BASE__C                                 
00015fe0  xdc_runtime_IModule_Interface__BASE__C                               
00015fe4  xdc_runtime_Log_L_error__C                                           
00012aa5  xdc_runtime_Main_Module_GateProxy_Handle__label__S                   
00013171  xdc_runtime_Main_Module_GateProxy_query__E                           
00016052  xdc_runtime_Main_Module__id__C                                       
00012ad9  xdc_runtime_Memory_HeapProxy_Handle__label__S                        
00010795  xdc_runtime_Memory_HeapProxy_alloc__E                                
000107f5  xdc_runtime_Memory_HeapProxy_free__E                                 
00016054  xdc_runtime_Memory_Module__id__C                                     
0800e010  xdc_runtime_Memory_Module__state__V                                  
0000dda1  xdc_runtime_Memory_alloc__E                                          
00015fe8  xdc_runtime_Memory_defaultHeapInstance__C                            
00013071  xdc_runtime_Memory_free__E                                           
0800dfc4  xdc_runtime_Registry_Module__state__V                                
0800dfcc  xdc_runtime_Startup_Module__state__V                                 
00000001  xdc_runtime_Startup__EXECFXN__C                                      
00000001  xdc_runtime_Startup__RESETFXN__C                                     
00015fec  xdc_runtime_Startup_execImpl__C                                      
0000fd41  xdc_runtime_Startup_exec__E                                          
00012f63  xdc_runtime_Startup_exec__I                                          
00015d6c  xdc_runtime_Startup_firstFxns__A                                     
00015d74  xdc_runtime_Startup_firstFxns__C                                     
00015d7c  xdc_runtime_Startup_lastFxns__C                                      
00015ff0  xdc_runtime_Startup_maxPasses__C                                     
0000bdff  xdc_runtime_Startup_reset__I                                         
000130f1  xdc_runtime_Startup_rtsDone__E                                       
00015d24  xdc_runtime_Startup_sfxnRts__A                                       
00015ff4  xdc_runtime_Startup_sfxnRts__C                                       
00015a80  xdc_runtime_Startup_sfxnTab__A                                       
00015ff8  xdc_runtime_Startup_sfxnTab__C                                       
00007ec1  xdc_runtime_Startup_startMods__I                                     
000121a1  xdc_runtime_SysStd_abort__E                                          
00013101  xdc_runtime_SysStd_exit__E                                           
000131b1  xdc_runtime_SysStd_putch__E                                          
000131c1  xdc_runtime_SysStd_ready__E                                          
00012aa5  xdc_runtime_System_Module_GateProxy_Handle__label__S                 
000108b9  xdc_runtime_System_Module_GateProxy_enter__E                         
000108bd  xdc_runtime_System_Module_GateProxy_leave__E                         
00013171  xdc_runtime_System_Module_GateProxy_query__E                         
0800de4c  xdc_runtime_System_Module_State_0_atexitHandlers__A                  
00015ffc  xdc_runtime_System_Module__gateObj__C                                
0800dfd4  xdc_runtime_System_Module__state__V                                  
00013161  xdc_runtime_System_Module_startup__E                                 
000121a1  xdc_runtime_System_SupportProxy_abort__E                             
00013101  xdc_runtime_System_SupportProxy_exit__E                              
000131b1  xdc_runtime_System_SupportProxy_putch__E                             
000131c1  xdc_runtime_System_SupportProxy_ready__E                             
00016000  xdc_runtime_System_abortFxn__C                                       
00010af9  xdc_runtime_System_abortStd__E                                       
00012af3  xdc_runtime_System_aprintf__E                                        
000121d1  xdc_runtime_System_aprintf_va__F                                     
00011141  xdc_runtime_System_atexit__E                                         
000017d1  xdc_runtime_System_doPrint__I                                        
00016004  xdc_runtime_System_exitFxn__C                                        
00010b01  xdc_runtime_System_exitStd__E                                        
00010ba1  xdc_runtime_System_exit__E                                           
00016008  xdc_runtime_System_extendFxn__C                                      
0001600c  xdc_runtime_System_maxAtexitHandlers__C                              
00009551  xdc_runtime_System_printfExtend__I                                   
00012b0d  xdc_runtime_System_printf__E                                         
00012331  xdc_runtime_System_printf_va__F                                      
00016056  xdc_runtime_Text_charCnt__C                                          
000131e8  xdc_runtime_Text_charTab__A                                          
00016010  xdc_runtime_Text_charTab__C                                          
00016058  xdc_runtime_Text_isLoaded__C                                         
00016014  xdc_runtime_Text_nameEmpty__C                                        
00016018  xdc_runtime_Text_nameStatic__C                                       
0001601c  xdc_runtime_Text_nameUnknown__C                                      
00015640  xdc_runtime_Text_nodeTab__A                                          
00016020  xdc_runtime_Text_nodeTab__C                                          
00011ca1  xdc_runtime_Text_printVisFxn__I                                      
0000ff91  xdc_runtime_Text_putLab__E                                           
0000bca1  xdc_runtime_Text_putMod__E                                           
0000c921  xdc_runtime_Text_putSite__E                                          
0001605a  xdc_runtime_Text_registryModsLastId__C                               
0001605c  xdc_runtime_Text_unnamedModsLastId__C                                
0000f211  xdc_runtime_Text_visitRope2__I                                       
00016024  xdc_runtime_Text_visitRopeFxn__C                                     
00013081  xdc_runtime_Text_visitRope__I                                        
00010e21  xdc_runtime_Text_xprintf__I                                          


GLOBAL SYMBOLS: SORTED BY Symbol Address 

address   name                                                                 
-------   ----                                                                 
00000000  __ASM__                                                              
00000000  ti_sysbios_family_arm_v7r_vim_Hwi_vectors                            
00000001  xdc_runtime_Startup__EXECFXN__C                                      
00000001  xdc_runtime_Startup__RESETFXN__C                                     
00000091  __ISA__                                                              
000000a3  __PLAT__                                                             
000000c7  __TARG__                                                             
000000ee  __TRDR__                                                             
000008c5  __TI_printfi                                                         
00001000  __STACK_SIZE                                                         
0000117d  MmwDemo_CLIInit                                                      
000017cb  HwiP_restore                                                         
000017d1  xdc_runtime_System_doPrint__I                                        
00001cb5  MmwDemo_mssInitTask                                                  
00002541  ti_sysbios_knl_Event_pend__E                                         
000028d5  CLI_getMMWaveExtensionConfig                                         
000028e1  ti_sysbios_knl_Semaphore_pend__E                                     
00002efd  SOC_deviceInit                                                       
000031fc  __aeabi_uldivmod                                                     
000034c1  ti_sysbios_heaps_HeapMem_freeUnprotected__E                          
00003765  MMWave_deviceExecuteFxn                                              
000039e9  HwiP_disable                                                         
000039f1  ti_sysbios_family_arm_exc_Exception_excDumpContext__I                
00003c71  ti_sysbios_knl_Task_Instance_finalize__E                             
00003ed9  Mailbox_open                                                         
00004139  exp                                                                  
00004139  expl                                                                 
000045e5  MmwDemo_mssCtrlPathTask                                              
00004829  MMWave_decodeErrorLevel                                              
00004831  ti_sysbios_heaps_HeapMem_allocUnprotected__E                         
00004a61  ti_sysbios_knl_Task_sleep__E                                         
00004e95  MmwDemo_mssDataPathConfig                                            
000052a9  CRC_open                                                             
000056a1  DMA_setChannelParams                                                 
00005891  strtod                                                               
00005891  strtold                                                              
00005a75  MMWave_osalMutexUnlock                                               
00005a81  ti_sysbios_family_arm_v7r_vim_Hwi_dispatchIRQC__I                    
00005c65  MMWave_osalSemSignal                                                 
00005c71  ti_sysbios_knl_Task_Module_startup__E                                
00005f17  __TI_cleanup                                                         
00005f43  freopen                                                              
00005f6d  fopen                                                                
00006015  MmwDemo_mboxCallback                                                 
00006021  ti_sysbios_knl_Task_Instance_init__E                                 
000061e9  MmwDemo_bpmConfig                                                    
000066e5  UART_Params_init                                                     
000066f1  xdc_runtime_Error_policyDefault__E                                   
0000688d  rlDriverCmdInvoke                                                    
00006a11  ti_sysbios_timers_rti_Timer_Module_startup__E                        
00006b95  rlDriverRxHdrRead                                                    
00006d15  UartSci_isDMAEnabled                                                 
00006d21  ti_sysbios_family_arm_exc_Exception_excHandler__I                    
00006e9d  HwiP_disableInterrupt                                                
00006ea1  ti_sysbios_knl_Semaphore_post__E                                     
00007021  ti_sysbios_knl_Event_post__E                                         
00007195  GPIO_setConfig                                                       
00007304  ti_sysbios_family_arm_IntrinsicsSupport_maxbitA__I                   
00007304  ti_sysbios_family_arm_IntrinsicsSupport_maxbit__E                    
00007304  ti_sysbios_knl_Intrinsics_SupportProxy_maxbit__E                     
00007304  ti_sysbios_knl_Intrinsics_maxbit__E                                  
00007311  ti_sysbios_family_arm_v7r_vim_Hwi_reconfig__E                        
00007471  main                                                                 
00007afb  rlGetSubBlockId                                                      
00007b01  ti_sysbios_heaps_HeapMem_Instance_init__E                            
00007c41  xdc_runtime_Core_createObject__I                                     
00007d81  ti_sysbios_knl_Clock_workFunc__E                                     
00007ec1  xdc_runtime_Startup_startMods__I                                     
00007ff5  postProcessing                                                       
00008121  MMWave_openLink                                                      
00008249  rlDriverMsgRead                                                      
000086d9  SemaphoreP_Params_init                                               
000086e1  ti_sysbios_family_arm_v7r_vim_Hwi_Instance_init__E                   
000087f9  rlDriverConstructOutMsg                                              
00008801  ti_sysbios_knl_Swi_run__I                                            
00008919  rlDriverCmdSendRetry                                                 
00008a2d  MMWave_deviceInitFxn                                                 
00008b39  rlDriverGetHandle                                                    
00008b41  xdc_runtime_Core_constructObject__I                                  
00008c4d  Mailbox_write                                                        
00008d55  MmwDemo_mssMmwaveEventCallbackFxn                                    
00008e5d  MMWave_listGetHead                                                   
00008e61  ti_sysbios_timers_rti_Timer_getFreq__E                               
00009065  MMWave_startLink                                                     
00009165  CRC_computeSignature                                                 
00009261  DMA_disableInterrupt                                                 
0000935d  rlDriverInit                                                         
00009459  rlDriverRdVerifyMsg                                                  
00009551  xdc_runtime_System_printfExtend__I                                   
00009648  ti_sysbios_family_arm_v7a_Pmu_getEnabled__E                          
00009651  ti_sysbios_family_arm_v7r_vim_Hwi_Module_startup__E                  
00009741  ldexp                                                                
00009741  ldexpl                                                               
00009741  scalbn                                                               
00009741  scalbnl                                                              
0000982d  MMWave_listGetNext                                                   
00009831  ti_sysbios_heaps_HeapBuf_Module_startup__E                           
0000991d  CLI_open                                                             
00009a05  Inference                                                            
00009aed  DMA_clearChannelInterruptFlag                                        
00009d91  setvbuf                                                              
00009e6d  DMA_enableInterrupt                                                  
00009f45  MMWave_init                                                          
0000a0f5  Mailbox_read                                                         
0000a1c9  MmwDemo_mssDataPathStop                                              
0000a29d  rlSetMultiBpmChirpConfig                                             
0000a371  ti_sysbios_knl_Task_exit__E                                          
0000a445  __TI_zero_init                                                       
0000a451  ti_sysbios_knl_Task_schedule__I                                      
0000a525  SOC_controlSecureFirewall                                            
0000a5f4  ti_sysbios_family_arm_exc_Exception_excHandlerAsm__I                 
0000a65c  ti_sysbios_family_arm_exc_Exception_excHandlerDataAsm__I             
0000a6c5  rlRfCalibDataRestore                                                 
0000a791  rlSetChirpConfig                                                     
0000a85d  __TI_doflush                                                         
0000a8a9  fflush                                                               
0000a929  rlGetSubBlockLen                                                     
0000a931  ti_sysbios_knl_Task_checkStacks__E                                   
0000a9fd  MMWave_addChirp                                                      
0000aac5  MMWave_configBPM                                                     
0000ab8d  MMWave_flushCfg                                                      
0000ac55  MMWave_getChirpHandle                                                
0000ad21  ti_sysbios_knl_Task_postInit__I                                      
0000af71  ti_sysbios_family_arm_v7a_Pmu_configureCounter__E                    
0000b0f5  rlDriverMsgWrite                                                     
0000b1b5  rlSetFrameConfig                                                     
0000b275  rlDriverGetPlatformId                                                
0000b281  ti_sysbios_knl_Clock_TimerProxy_startup__E                           
0000b281  ti_sysbios_timers_rti_Timer_startup__E                               
0000b341  GPIO_write                                                           
0000b631  open                                                                 
0000b7a5  SOC_MPUEnable                                                        
0000b7c3  SOC_MPUDisable                                                       
0000b7e1  SOC_MPUEnableBackgroundRegion                                        
0000b7f7  SOC_MPUDisableBackgroundRegion                                       
0000b80d  SOC_MPUGetNumberOfRegions                                            
0000b817  SOC_MPUAreRegionsSeparate                                            
0000b81f  SOC_MPUSetRegion                                                     
0000b825  SOC_MPUGetRegion                                                     
0000b82b  SOC_MPUSetRegionBaseAddress                                          
0000b831  SOC_MPUGetRegionBaseAddress                                          
0000b837  SOC_MPUSetRegionTypeAndPermission                                    
0000b841  SOC_MPUGetRegionType                                                 
0000b84b  SOC_MPUGetRegionPermission                                           
0000b855  SOC_MPUSetRegionSizeRegister                                         
0000b85b  __aeabi_idiv0                                                        
0000b85d  MmwDemo_mssDataPathStart                                             
0000b911  ti_sysbios_gates_GateMutex_enter__E                                  
0000b9c4  ti_sysbios_family_arm_v7a_Pmu_configureCounterI__I                   
0000b9d1  ti_sysbios_knl_Task_startCore__E                                     
0000ba85  UartSci_openDMA                                                      
0000bb37  ti_sysbios_BIOS_nullFunc__I                                          
0000bb39  MMWave_addProfile                                                    
0000bbe9  rlSetProfileConfig                                                   
0000bca1  xdc_runtime_Text_putMod__E                                           
0000bd51  __TI_wrt_ok                                                          
0000bdb5  __TI_rd_ok                                                           
0000bdff  xdc_runtime_Startup_reset__I                                         
0000be01  ESM_processInterrupt                                                 
0000bf59  CLI_MMWaveExtensionHelp                                              
0000c0a9  MMWave_getBpmChirpHandle                                             
0000c1f9  Pinmux_Set_OverrideCtrl                                              
0000c2a1  rlSetAdvFrameConfig                                                  
0000c349  runPeopleDetection                                                   
0000c3f1  ti_sysbios_knl_Swi_post__E                                           
0000c499  DMA_assignChannel                                                    
0000c53d  DMA_getChannelInterruptFlag                                          
0000c5e1  ESM_init                                                             
0000c685  MMWave_addBpmChirp                                                   
0000c729  MMWave_start                                                         
0000c7cd  MmwDemo_waitSensorStopComplete                                       
0000c915  ti_sysbios_knl_Queue_Object__get__S                                  
0000c921  xdc_runtime_Text_putSite__E                                          
0000c9c5  __TI_auto_init                                                       
0000ca65  rlDriverWaitForResponse                                              
0000cb05  MemoryP_ctrlFree                                                     
0000cb11  ti_sysbios_knl_Task_blockI__E                                        
0000cbb1  MMWave_configLink                                                    
0000cc4d  MMWave_getProfileHandle                                              
0000cd85  __aeabi_memcpy                                                       
0000cd85  __aeabi_memcpy4                                                      
0000cd85  __aeabi_memcpy8                                                      
0000cd85  memcpy                                                               
0000ce21  ti_sysbios_family_arm_v7r_vim_Hwi_initIntController__I               
0000cec1  ti_sysbios_family_arm_v7r_vim_Hwi_mapChannel__I                      
0000cf61  ti_sysbios_knl_Semaphore_Instance_init__E                            
0000cffd  MMWave_getChirpCfg                                                   
0000d095  __TI_closefile                                                       
0000d0fb  fclose                                                               
0000d12d  fputc                                                                
0000d12d  putc                                                                 
0000d1b3  putchar                                                              
0000d1c4  ti_sysbios_family_xxx_Hwi_switchAndRunFunc                           
0000d210  ti_sysbios_family_xxx_Hwi_switchAndRunDispatchC                      
0000d2f5  rlDriverDeInit                                                       
0000d389  rlDriverMsgReadCmdCtx                                                
0000d41c  ti_sysbios_family_arm_v7r_vim_Hwi_dispatchIRQ__I                     
0000d4b1  GPIO_init                                                            
0000d541  Mailbox_close                                                        
0000d661  MmwDemo_waitSensorStartComplete                                      
0000d6f1  UartSci_initiateTxDMA                                                
0000d811  soft_max                                                             
0000d8a1  ti_sysbios_family_arm_v7a_Pmu_startCounter__E                        
0000d931  ti_sysbios_knl_Task_unblockI__E                                      
0000dad9  SOC_translateAddress                                                 
0000db65  UartSci_initiateRxDMA                                                
0000dbf1  rlDevicePowerOn                                                      
0000dc7d  rlDriverMsgCmdReply                                                  
0000dd09  MmwDemo_sleep                                                        
0000dd0d  SOC_isSecureDevice                                                   
0000dd11  ti_sysbios_family_arm_v7r_vim_Hwi_Instance_finalize__E               
0000dd9d  ti_sysbios_BIOS_RtsGateProxy_enter__E                                
0000dda1  xdc_runtime_Memory_alloc__E                                          
0000de2d  MMWave_getProfileCfg                                                 
0000dfc5  MmwDemo_gpioSwitchTask                                               
0000e04d  SOC_init                                                             
0000e0d5  vsnprintf                                                            
0000e15d  MMWave_deviceCfgAsyncEvent                                           
0000e1e1  MMWave_deviceEventFxn                                                
0000e265  MMWave_getNumBpmChirp                                                
0000e2e9  MMWave_open                                                          
0000e3ed  MMWave_getBpmChirpCfg                                                
0000e4ed  findDelta                                                            
0000e56d  rlDriverExecuteGetApi                                                
0000e5ed  ti_sysbios_BIOS_RtsGateProxy_leave__E                                
0000e5f1  ti_sysbios_timers_rti_Timer_initDevice__I                            
0000e671  HwiP_create                                                          
0000e6f1  MMWave_deviceOpenFxn                                                 
0000e76d  Mailbox_init                                                         
0000e864  ti_sysbios_family_arm_TaskSupport_buildTaskStack                     
0000e8e1  xdc_runtime_Core_deleteObject__I                                     
0000e9d9  __aeabi_memclr                                                       
0000e9d9  __aeabi_memclr4                                                      
0000e9d9  __aeabi_memclr8                                                      
0000e9db  __aeabi_memset                                                       
0000e9db  __aeabi_memset4                                                      
0000e9db  __aeabi_memset8                                                      
0000e9e1  memset                                                               
0000eacd  MMWave_getNumChirps                                                  
0000ebbd  MmwDemo_Dss2MssISR                                                   
0000ec35  MMWave_config                                                        
0000eca9  MMWave_deviceStartFxn                                                
0000ed91  SOC_getDeviceRFFreqScaleFactor                                       
0000ee04  _c_int00                                                             
0000ee79  rlDriverAsyncEventHandler                                            
0000eeed  rlDriverProcRdMsg                                                    
0000ef61  finddevice                                                           
0000ef8f  getdevice                                                            
0000efd5  frexp                                                                
0000efd5  frexpl                                                               
0000f0bd  MMWave_deviceCfgFxn                                                  
0000f12d  logFeatures                                                          
0000f19d  ti_sysbios_family_arm_TaskSupport_Module__startupDone__S             
0000f19d  ti_sysbios_knl_Task_SupportProxy_Module__startupDone__S              
0000f1a1  xdc_runtime_Error_print__E                                           
0000f211  xdc_runtime_Text_visitRope2__I                                       
0000f281  DMA_disableChannel                                                   
0000f2ed  GPIO_enableInt                                                       
0000f3c5  MMWave_stopLink                                                      
0000f431  Pinmux_Set_FuncSel                                                   
0000f49d  angleDelta                                                           
0000f509  __TI_decompress_lzss                                                 
0000f575  __TI_writemsg                                                        
0000f5a7  C$$IO$$                                                              
0000f5ab  __TI_readmsg                                                         
0000f64d  DMA_enableChannel                                                    
0000f6b5  MMWave_deviceStopFxn                                                 
0000f71d  Mailbox_readFlush                                                    
0000f785  rlDriverExecuteSetApi                                                
0000f7ed  rlDriverHostIrqHandler                                               
0000f855  HOSTlseek                                                            
0000f8bd  HOSTrename                                                           
0000f925  SemaphoreP_post                                                      
0000f925  SemaphoreP_postFromClock                                             
0000f925  SemaphoreP_postFromISR                                               
0000f931  ti_sysbios_knl_Swi_schedule__I                                       
0000f999  MmwDemo_mssSetHsiClk                                                 
0000fa01  rlDevicePowerOff                                                     
0000facd  SemaphoreP_create                                                    
0000fb31  fseek                                                                
0000fb95  sprintf                                                              
0000fbf8  ti_sysbios_family_arm_exc_Exception_initCore0__I                     
0000fc5d  ti_sysbios_family_arm_v7r_vim_Hwi_delete                             
0000fc61  ti_sysbios_family_arm_v7r_vim_Hwi_phantomIntHandler__I               
0000fcc5  UART_read                                                            
0000fcd1  ti_sysbios_knl_Clock_logTick__E                                      
0000fd35  UART_write                                                           
0000fd41  xdc_runtime_Startup_exec__E                                          
0000fda5  CLI_MMWaveExtensionHandler                                           
0000fe05  GPIO_setCallback                                                     
0000fe65  gestureInferenceProcessing                                           
0000fec5  UART_writePolling                                                    
0000fed1  ti_sysbios_heaps_HeapMem_alloc__E                                    
0000ff31  xdc_runtime_Assert_raise__I                                          
0000ff91  xdc_runtime_Text_putLab__E                                           
000100ad  MMWave_stop                                                          
00010109  HOSTopen                                                             
00010165  HOSTread                                                             
0001021b  rlDriverCalChkSum                                                    
00010275  ESM_highpriority_FIQ                                                 
000102cd  MMWave_execute                                                       
0001037d  MmwDemo_mmWaveCtrlTask                                               
000103d5  UartSci_closeDMA                                                     
0001042d  rlDriverMsgReadSpawnCtx                                              
00010485  close                                                                
000104dd  HOSTwrite                                                            
00010535  ti_sysbios_family_arm_v7r_tms570_Core_getId__E                       
00010535  ti_sysbios_hal_Core_CoreProxy_getId__E                               
00010541  ti_sysbios_knl_Swi_restoreHwi__E                                     
000105f1  CRC_getTransactionId                                                 
00010645  DMA_freeChannel                                                      
00010699  MMWave_initLink                                                      
000106ed  ltoa                                                                 
00010741  ti_sysbios_family_arm_v7r_vim_Hwi_create                             
00010795  xdc_runtime_Memory_HeapProxy_alloc__E                                
000107a1  ti_sysbios_heaps_HeapMem_getStats__E                                 
000107f5  xdc_runtime_Memory_HeapProxy_free__E                                 
00010801  ti_sysbios_knl_Swi_runLoop__I                                        
00010855  ti_sysbios_heaps_HeapMem_Module_GateProxy_enter__E                   
00010859  ti_sysbios_heaps_HeapMem_Module_GateProxy_leave__E                   
0001085d  ti_sysbios_knl_Clock_TimerProxy_getMaxTicks__E                       
00010861  ti_sysbios_knl_Swi_startup__E                                        
000108b5  ti_sysbios_knl_Semaphore_delete                                      
000108b9  xdc_runtime_System_Module_GateProxy_enter__E                         
000108bd  xdc_runtime_System_Module_GateProxy_leave__E                         
000108c1  xdc_runtime_Core_assignLabel__I                                      
00010915  CLI_write                                                            
00010965  CRC_getSignature                                                     
000109b5  MMWave_sync                                                          
00010a05  rlDeviceIdentifyCmdDir                                               
00010a55  rlDriverVerifyCRC                                                    
00010aa5  atoi                                                                 
00010af5  C$$EXIT                                                              
00010af9  abort                                                                
00010af9  xdc_runtime_System_abortStd__E                                       
00010b01  exit                                                                 
00010b01  xdc_runtime_System_exitStd__E                                        
00010b44  __aeabi_uidiv                                                        
00010b44  __aeabi_uidivmod                                                     
00010ba1  xdc_runtime_System_exit__E                                           
00010c89  copy_in                                                              
00010ce1  ti_sysbios_family_arm_v7r_vim_Hwi_getStackInfo__E                    
00010ce1  ti_sysbios_hal_Hwi_HwiProxy_getStackInfo__E                          
00010ce1  ti_sysbios_hal_Hwi_getStackInfo__E                                   
00010d2d  ti_sysbios_knl_Task_create                                           
00010dd1  xdc_runtime_Core_assignParams__I                                     
00010e21  xdc_runtime_Text_xprintf__I                                          
00010e6b  rlDeviceGetVersion                                                   
00010eb5  rlDriverOsiInit                                                      
00011011  HOSTclose                                                            
00011055  HOSTunlink                                                           
000110a1  ti_sysbios_family_arm_v7r_tms570_Core_Module_startup__E              
000110f1  ti_sysbios_knl_Task_allBlockedFunction__I                            
00011141  xdc_runtime_System_atexit__E                                         
00011185  MMWave_executeLink                                                   
000111c7  rlDriverValidateHdr                                                  
00011209  strtok                                                               
00011251  ti_sysbios_timers_rti_Timer_stop__E                                  
00011481  MMWave_decodeError                                                   
00011539  Mailbox_writeReset                                                   
00011575  SOC_unhaltBSS                                                        
000115b1  rlGetSubBlock                                                        
000115ec  ti_sysbios_family_arm_v7r_vim_Hwi_init__I                            
00011631  ti_sysbios_hal_Hwi_checkStack                                        
00011671  ti_sysbios_heaps_HeapMem_init__I                                     
000116b1  ti_sysbios_timers_rti_Timer_setPeriod__E                             
000116ed  HwiP_delete                                                          
00011727  maxCheck                                                             
00011761  CLI_MMWaveExtensionInit                                              
00011799  UART_init                                                            
000117d1  logEnergy                                                            
00011807  rlAppendSubBlock                                                     
0001183d  strncpy                                                              
000118dd  SOC_setMMWaveDSSLinkState                                            
00011911  SOC_setMMWaveMSSLinkState                                            
00011945  UART_open                                                            
00011979  ti_sysbios_knl_Semaphore_create                                      
00011a13  SemaphoreP_delete                                                    
00011a21  ti_sysbios_hal_Hwi_initStack                                         
00011a53  MMWave_listRemoveNode                                                
00011a85  SOC_getDevicePartNumber                                              
00011ab5  rlSensorStart                                                        
00011ae5  ti_sysbios_BIOS_atExitFunc__I                                        
00011b15  ti_sysbios_BIOS_startFunc__I                                         
00011b51  ti_sysbios_family_arm_TaskSupport_start__E                           
00011b51  ti_sysbios_knl_Task_SupportProxy_start__E                            
00011b81  ti_sysbios_gates_GateHwi_Object__create__S                           
00011bb1  ti_sysbios_gates_GateMutex_Object__create__S                         
00011be1  ti_sysbios_heaps_HeapMem_Object__create__S                           
00011c11  ti_sysbios_heaps_HeapMem_free__E                                     
00011c41  ti_sysbios_knl_Event_create                                          
00011c71  ti_sysbios_knl_Semaphore_construct                                   
00011ca1  xdc_runtime_Text_printVisFxn__I                                      
00011cd1  ti_sysbios_knl_Event_pendTimeout__I                                  
00011d01  ti_sysbios_knl_Semaphore_pendTimeout__I                              
00011d2f  malloc                                                               
00011db5  MMWave_osalMutexCreate                                               
00011de1  MMWave_osalSemCreate                                                 
00011e0d  SOC_waitBSSPowerUp                                                   
00011e39  compute_innerprod                                                    
00011e65  relu_activation                                                      
00011e91  rlDeviceGetMssVersion                                                
00011ebd  rlSensorStop                                                         
00011ee9  remove                                                               
00011ee9  unlink                                                               
00011f15  ti_sysbios_knl_Clock_doTick__I                                       
00011f41  ti_sysbios_knl_Queue_construct                                       
00011f71  ti_sysbios_knl_Swi_Module_startup__E                                 
00011fa1  ti_sysbios_timers_rti_Timer_periodicStub__E                          
00011fcd  SOC_SystemISR                                                        
00011ff7  rlDeviceGetMmWaveLinkVersion                                         
00012021  strspn                                                               
0001204d  Mailbox_Config_init                                                  
000120c5  log2Approx                                                           
000120ed  rlDriverConstructInMsg                                               
00012115  lseek                                                                
0001213d  write                                                                
00012171  ti_sysbios_knl_Idle_run__E                                           
000121a1  xdc_runtime_SysStd_abort__E                                          
000121a1  xdc_runtime_System_SupportProxy_abort__E                             
000121d1  xdc_runtime_System_aprintf_va__F                                     
000121f9  rlRfInitCalibConfig                                                  
0001221f  rlRfRunTimeCalibConfig                                               
00012245  rlRfSetDeviceCfg                                                     
0001226b  rlSetAdcOutConfig                                                    
00012291  rlSetBpmCommonConfig                                                 
000122b7  rlSetChannelConfig                                                   
000122dd  rlSetContModeConfig                                                  
00012303  memcmp                                                               
00012331  xdc_runtime_System_printf_va__F                                      
000123a1  MmwDemo_notifySensorStart                                            
000123c5  SOC_isMMWaveDSSOperational                                           
000123e9  SOC_isMMWaveMSSOperational                                           
0001240d  rlDeviceSetHsiClk                                                    
00012431  rlEnableContMode                                                     
00012455  rlRfSetCalMonTimeUnitConfig                                          
00012479  rlSetLowPowerModeConfig                                              
0001249d  ti_sysbios_BIOS_errorRaiseHook__I                                    
000124c1  ti_sysbios_BIOS_registerRTSLock__I                                   
000124e5  ti_sysbios_BIOS_removeRTSLock__I                                     
00012509  ti_sysbios_gates_GateMutex_Object__delete__S                         
00012531  ti_sysbios_knl_Clock_Module_startup__E                               
00012555  ti_sysbios_knl_Semaphore_Object__delete__S                           
00012581  ti_sysbios_knl_Task_restoreHwi__E                                    
000125c7  UartSci_disableRxDMA                                                 
000125e9  UartSci_enableRxDMA                                                  
0001260b  strcspn                                                              
0001262d  ESM_lowpriority_IRQ                                                  
0001264d  MMWave_listCat                                                       
0001266d  MmwDemo_mboxWrite                                                    
000126ad  rlRfInit                                                             
000126d1  ti_sysbios_family_arm_v7a_Pmu_Module_startup__E                      
000126f1  ti_sysbios_family_arm_v7r_vim_Hwi_Object__delete__S                  
00012711  ti_sysbios_family_arm_v7r_vim_Hwi_disableInterrupt__E                
00012711  ti_sysbios_hal_Hwi_HwiProxy_disableInterrupt__E                      
00012711  ti_sysbios_hal_Hwi_disableInterrupt__E                               
00012731  ti_sysbios_family_arm_v7r_vim_Hwi_enableInterrupt__E                 
00012731  ti_sysbios_hal_Hwi_HwiProxy_enableInterrupt__E                       
00012731  ti_sysbios_hal_Hwi_enableInterrupt__E                                
00012751  ti_sysbios_gates_GateHwi_Object__delete__S                           
00012771  ti_sysbios_heaps_HeapMem_Object__delete__S                           
00012791  ti_sysbios_knl_Semaphore_destruct                                    
000127cf  SOC_getOutAddr_LUTType                                               
000128b1  MMWave_listRemove                                                    
000128cd  MmwDemo_mssMmwaveStartCallbackFxn                                    
000128e9  MmwDemo_notifySensorStop                                             
00012905  SOC_getInAddr_LUTType                                                
00012920  ti_sysbios_family_arm_TaskSupport_glue                               
0001293c  ti_sysbios_family_arm_TaskSupport_swap__E                            
0001293c  ti_sysbios_knl_Task_SupportProxy_swap__E                             
00012959  memccpy                                                              
00012975  ti_sysbios_BIOS_rtsLock__I                                           
00012991  ti_sysbios_family_arm_v7r_vim_Hwi_clearInterrupt__E                  
00012991  ti_sysbios_hal_Hwi_HwiProxy_clearInterrupt__E                        
00012991  ti_sysbios_hal_Hwi_clearInterrupt__E                                 
000129b1  ti_sysbios_gates_GateMutex_Instance_init__E                          
000129d1  ti_sysbios_gates_GateMutex_leave__E                                  
000129ed  ti_sysbios_knl_Queue_destruct                                        
00012a09  MMWave_deviceSyncFxn                                                 
00012a23  MMWave_encodeError                                                   
00012a3d  MMWave_listAdd                                                       
00012a57  free                                                                 
00012a71  rlGetRfDieId                                                         
00012a8b  copysign                                                             
00012a8b  copysignl                                                            
00012aa5  ti_sysbios_gates_GateHwi_Handle__label__S                            
00012aa5  xdc_runtime_Main_Module_GateProxy_Handle__label__S                   
00012aa5  xdc_runtime_System_Module_GateProxy_Handle__label__S                 
00012abf  ti_sysbios_BIOS_RtsGateProxy_Handle__label__S                        
00012abf  ti_sysbios_gates_GateMutex_Handle__label__S                          
00012abf  ti_sysbios_heaps_HeapMem_Module_GateProxy_Handle__label__S           
00012ad9  ti_sysbios_heaps_HeapMem_Handle__label__S                            
00012ad9  xdc_runtime_Memory_HeapProxy_Handle__label__S                        
00012af3  xdc_runtime_System_aprintf__E                                        
00012b0d  xdc_runtime_System_printf__E                                         
00012b29  CLI_getMMWaveExtensionOpenConfig                                     
00012b41  MMWave_osalMutexLock                                                 
00012b59  MMWave_osalSemWait                                                   
00012bb9  rlDeviceGetRfVersion                                                 
00012bd1  rlDriverCalCRC                                                       
00012be9  rlDriverFillPayload                                                  
00012c01  rlDriverIsDeviceMapValid                                             
00012c19  _args_main                                                           
00012c31  strcmp                                                               
00012c49  ti_sysbios_BIOS_rtsUnlock__I                                         
00012c60  ti_sysbios_family_arm_v7a_Pmu_initCounters__I                        
00012c79  ti_sysbios_family_arm_v7r_vim_Hwi_Module__startupDone__F             
00012c79  ti_sysbios_family_arm_v7r_vim_Hwi_Module__startupDone__S             
00012c79  ti_sysbios_hal_Hwi_HwiProxy_Module__startupDone__S                   
00012c91  ti_sysbios_family_arm_v7r_vim_Hwi_Params__init__S                    
00012c91  ti_sysbios_hal_Hwi_HwiProxy_Params__init__S                          
00012ca9  ti_sysbios_knl_Semaphore_Params__init__S                             
00012cc1  ti_sysbios_knl_Task_Params__init__S                                  
00012ce1  ti_sysbios_knl_Task_enter__I                                         
00012cf9  ti_sysbios_knl_Clock_TimerProxy_Module__startupDone__S               
00012cf9  ti_sysbios_timers_rti_Timer_Module__startupDone__F                   
00012cf9  ti_sysbios_timers_rti_Timer_Module__startupDone__S                   
00012d11  xdc_runtime_Error_init__E                                            
00012d29  strchr                                                               
00012d3f  strlen                                                               
00012d55  ti_sysbios_BIOS_exitFunc__I                                          
00012d71  ti_sysbios_knl_Idle_loop__E                                          
00012d91  ti_sysbios_knl_Task_sleepTimeout__I                                  
00012da7  HwiP_Params_init                                                     
00012de3  MMWave_osalMutexDelete                                               
00012df7  MMWave_osalSemDelete                                                 
00012e0d  MmwDemo_mssMmwaveConfigCallbackFxn                                   
00012e21  MmwDemo_mssMmwaveStopCallbackFxn                                     
00012e49  UartSci_disableTxDMA                                                 
00012e5d  UartSci_enableTxDMA                                                  
00012e71  _DebugP_assert                                                       
00012e85  rlAppendDummy                                                        
00012e99  _register_unlock                                                     
00012e9f  _register_lock                                                       
00012ea7  _nop                                                                 
00012ead  strcpy                                                               
00012ec1  ti_sysbios_heaps_HeapMem_Object__get__S                              
00012ee1  ti_sysbios_knl_Event_Instance_init__E                                
00012ef5  ti_sysbios_knl_Swi_Object__get__S                                    
00012f09  CRC_initConfigParams                                                 
00012f1b  MMWave_deviceGetDeviceInfo                                           
00012f2d  MemoryP_ctrlAlloc                                                    
00012f3f  SemaphoreP_pend                                                      
00012f51  ti_sysbios_hal_Hwi_Module_startup__E                                 
00012f63  xdc_runtime_Startup_exec__I                                          
00012fa1  ti_sysbios_BIOS_setThreadType__E                                     
00012fb1  ti_sysbios_BIOS_start__E                                             
00012fc0  ti_sysbios_family_arm_v7a_Pmu_disableInterruptI__E                   
00012fd0  ti_sysbios_family_arm_v7a_Pmu_enableInterruptI__E                    
00012fe0  ti_sysbios_family_arm_v7a_Pmu_getNumCounters__E                      
00012ff0  ti_sysbios_family_arm_v7a_Pmu_startCounterI__E                       
00013000  ti_sysbios_family_arm_v7a_Pmu_stopCounterI__E                        
00013011  ti_sysbios_gates_GateMutex_Instance_finalize__E                      
00013021  ti_sysbios_heaps_HeapBuf_Object__get__S                              
00013031  ti_sysbios_knl_Semaphore_Instance_finalize__E                        
00013041  ti_sysbios_knl_Swi_disable__E                                        
00013051  ti_sysbios_knl_Task_Object__get__S                                   
00013061  ti_sysbios_knl_Task_disable__E                                       
00013071  xdc_runtime_Memory_free__E                                           
00013081  xdc_runtime_Text_visitRope__I                                        
00013091  __TI_decompress_none                                                 
000130a1  ti_sysbios_knl_Queue_empty__E                                        
000130b1  ti_sysbios_family_arm_TaskSupport_checkStack__E                      
000130b1  ti_sysbios_knl_Task_SupportProxy_checkStack__E                       
000130c1  ti_sysbios_family_arm_TaskSupport_getStackAlignment__E               
000130c1  ti_sysbios_knl_Task_SupportProxy_getStackAlignment__E                
000130d1  ti_sysbios_family_arm_exc_Exception_Module_startup__E                
000130e1  ti_sysbios_family_arm_v7r_vim_Hwi_switchFromBootStack__E             
000130e1  ti_sysbios_hal_Hwi_HwiProxy_switchFromBootStack__E                   
000130e1  ti_sysbios_hal_Hwi_switchFromBootStack__E                            
000130f1  xdc_runtime_Startup_rtsDone__E                                       
00013101  xdc_runtime_SysStd_exit__E                                           
00013101  xdc_runtime_System_SupportProxy_exit__E                              
00013111  ti_sysbios_gates_GateHwi_enter__E                                    
00013121  ti_sysbios_family_arm_v7r_vim_Hwi_startup__E                         
00013121  ti_sysbios_hal_Hwi_HwiProxy_startup__E                               
00013121  ti_sysbios_hal_Hwi_startup__E                                        
00013131  ti_sysbios_gates_GateHwi_leave__E                                    
00013141  ti_sysbios_heaps_HeapMem_isBlocking__E                               
00013151  ti_sysbios_knl_Queue_Instance_init__E                                
00013161  xdc_runtime_System_Module_startup__E                                 
00013171  ti_sysbios_gates_GateHwi_query__E                                    
00013171  xdc_runtime_Main_Module_GateProxy_query__E                           
00013171  xdc_runtime_System_Module_GateProxy_query__E                         
00013181  ti_sysbios_BIOS_RtsGateProxy_query__E                                
00013181  ti_sysbios_gates_GateMutex_query__E                                  
00013181  ti_sysbios_heaps_HeapMem_Module_GateProxy_query__E                   
00013191  ti_sysbios_knl_Task_startup__E                                       
000131a1  ti_sysbios_timers_rti_Timer_getMaxTicks__E                           
000131b1  xdc_runtime_SysStd_putch__E                                          
000131b1  xdc_runtime_System_SupportProxy_putch__E                             
000131c1  xdc_runtime_SysStd_ready__E                                          
000131c1  xdc_runtime_System_SupportProxy_ready__E                             
000131d1  ti_sysbios_BIOS_linkedWithIncorrectBootLibrary__E                    
000131e1  ti_sysbios_gates_GateHwi_Instance_init__E                            
000131e8  xdc_runtime_Text_charTab__A                                          
000150a6  ti_sysbios_family_arm_exc_Exception_Module__id__C                    
0001553e  _ctypes_                                                             
00015640  xdc_runtime_Text_nodeTab__A                                          
00015850  ti_sysbios_family_arm_v7r_vim_Hwi_channelMap__A                      
000159a0  ti_sysbios_knl_Task_Object__PARAMS__C                                
000159e4  UART_defaultParams                                                   
00015a50  ti_sysbios_family_arm_v7r_vim_Hwi_Object__PARAMS__C                  
00015a80  xdc_runtime_Startup_sfxnTab__A                                       
00015aac  ti_sysbios_heaps_HeapMem_Module__FXNS__C                             
00015ad4  Mailbox_defaultCfg                                                   
00015af8  ti_sysbios_gates_GateHwi_Module__FXNS__C                             
00015b1c  ti_sysbios_gates_GateMutex_Module__FXNS__C                           
00015b40  ti_sysbios_heaps_HeapMem_Object__PARAMS__C                           
00015b64  ti_sysbios_knl_Semaphore_Object__PARAMS__C                           
00015ba8  ti_sysbios_family_arm_v7r_vim_Hwi_Object__DESC__C                    
00015bc8  ti_sysbios_gates_GateHwi_Object__DESC__C                             
00015be8  ti_sysbios_gates_GateMutex_Object__DESC__C                           
00015c08  ti_sysbios_heaps_HeapMem_Object__DESC__C                             
00015c28  ti_sysbios_knl_Event_Object__DESC__C                                 
00015c48  ti_sysbios_knl_Queue_Object__DESC__C                                 
00015c68  ti_sysbios_knl_Semaphore_Object__DESC__C                             
00015c88  ti_sysbios_knl_Task_Object__DESC__C                                  
00015cc4  ti_sysbios_gates_GateHwi_Object__PARAMS__C                           
00015cdc  ti_sysbios_gates_GateMutex_Object__PARAMS__C                         
00015cf4  ti_sysbios_knl_Event_Object__PARAMS__C                               
00015d0c  ti_sysbios_knl_Queue_Object__PARAMS__C                               
00015d24  xdc_runtime_Startup_sfxnRts__A                                       
00015d3a  ti_sysbios_family_arm_v7a_Pmu_Module__id__C                          
00015d3c  ti_sysbios_family_arm_v7r_vim_Hwi_intReqEnaSet__A                    
00015d4c  ti_sysbios_family_arm_v7r_vim_Hwi_wakeEnaSet__A                      
00015d5c  ti_sysbios_knl_Idle_funcList__A                                      
00015d64  ti_sysbios_knl_Idle_funcList__C                                      
00015d6c  xdc_runtime_Startup_firstFxns__A                                     
00015d74  xdc_runtime_Startup_firstFxns__C                                     
00015d7c  xdc_runtime_Startup_lastFxns__C                                      
00015d88  ti_sysbios_family_arm_TaskSupport_stackAlignment__C                  
00015d8c  ti_sysbios_family_arm_exc_Exception_E_dataAbort__C                   
00015d90  ti_sysbios_family_arm_exc_Exception_E_prefetchAbort__C               
00015d94  ti_sysbios_family_arm_exc_Exception_E_swi__C                         
00015d98  ti_sysbios_family_arm_exc_Exception_E_undefinedInstruction__C        
00015d9c  ti_sysbios_family_arm_exc_Exception_excHookFuncs__A                  
00015da0  ti_sysbios_family_arm_exc_Exception_excHookFuncs__C                  
00015da4  ti_sysbios_family_arm_v7a_Pmu_A_invalidCounterId__C                  
00015da8  ti_sysbios_family_arm_v7a_Pmu_Module__diagsEnabled__C                
00015dac  ti_sysbios_family_arm_v7a_Pmu_Module__diagsIncluded__C               
00015db0  ti_sysbios_family_arm_v7a_Pmu_Module__diagsMask__C                   
00015db4  ti_sysbios_family_arm_v7r_tms570_Core_E_mismatchedIds__C             
00015db8  ti_sysbios_family_arm_v7r_tms570_Core_id__C                          
00015dbc  ti_sysbios_family_arm_v7r_vim_Hwi_A_badChannelId__C                  
00015dc0  ti_sysbios_family_arm_v7r_vim_Hwi_E_alreadyDefined__C                
00015dc4  ti_sysbios_family_arm_v7r_vim_Hwi_E_badIntNum__C                     
00015dc8  ti_sysbios_family_arm_v7r_vim_Hwi_E_phantomInterrupt__C              
00015dcc  ti_sysbios_family_arm_v7r_vim_Hwi_E_undefined__C                     
00015dd0  ti_sysbios_family_arm_v7r_vim_Hwi_E_unsupportedMaskingOption__C      
00015dd4  ti_sysbios_family_arm_v7r_vim_Hwi_LD_end__C                          
00015dd8  ti_sysbios_family_arm_v7r_vim_Hwi_LM_begin__C                        
00015ddc  ti_sysbios_family_arm_v7r_vim_Hwi_Module__diagsEnabled__C            
00015de0  ti_sysbios_family_arm_v7r_vim_Hwi_Module__diagsIncluded__C           
00015de4  ti_sysbios_family_arm_v7r_vim_Hwi_Module__diagsMask__C               
00015de8  ti_sysbios_family_arm_v7r_vim_Hwi_Module__loggerFxn1__C              
00015dec  ti_sysbios_family_arm_v7r_vim_Hwi_Module__loggerFxn8__C              
00015df0  ti_sysbios_family_arm_v7r_vim_Hwi_Module__loggerObj__C               
00015df4  ti_sysbios_family_arm_v7r_vim_Hwi_NUM_INTERRUPTS__C                  
00015df8  ti_sysbios_family_arm_v7r_vim_Hwi_channelMap__C                      
00015dfc  ti_sysbios_family_arm_v7r_vim_Hwi_intReqEnaSet__C                    
00015e00  ti_sysbios_family_arm_v7r_vim_Hwi_phantomFunc__C                     
00015e04  ti_sysbios_family_arm_v7r_vim_Hwi_swiDisable__C                      
00015e08  ti_sysbios_family_arm_v7r_vim_Hwi_swiRestoreHwi__C                   
00015e0c  ti_sysbios_family_arm_v7r_vim_Hwi_taskDisable__C                     
00015e10  ti_sysbios_family_arm_v7r_vim_Hwi_taskRestoreHwi__C                  
00015e14  ti_sysbios_family_arm_v7r_vim_Hwi_wakeEnaSet__C                      
00015e18  ti_sysbios_gates_GateMutex_A_badContext__C                           
00015e1c  ti_sysbios_gates_GateMutex_Instance_State_sem__O                     
00015e20  ti_sysbios_gates_GateMutex_Module__diagsEnabled__C                   
00015e24  ti_sysbios_gates_GateMutex_Module__diagsIncluded__C                  
00015e28  ti_sysbios_gates_GateMutex_Module__diagsMask__C                      
00015e2c  ti_sysbios_hal_Hwi_E_stackOverflow__C                                
00015e30  ti_sysbios_heaps_HeapBuf_Instance_State_freeList__O                  
00015e34  ti_sysbios_heaps_HeapBuf_Object__count__C                            
00015e38  ti_sysbios_heaps_HeapBuf_numConstructedHeaps__C                      
00015e3c  ti_sysbios_heaps_HeapMem_A_align__C                                  
00015e40  ti_sysbios_heaps_HeapMem_A_heapSize__C                               
00015e44  ti_sysbios_heaps_HeapMem_A_invalidFree__C                            
00015e48  ti_sysbios_heaps_HeapMem_A_zeroBlock__C                              
00015e4c  ti_sysbios_heaps_HeapMem_E_memory__C                                 
00015e50  ti_sysbios_heaps_HeapMem_Module__diagsEnabled__C                     
00015e54  ti_sysbios_heaps_HeapMem_Module__diagsIncluded__C                    
00015e58  ti_sysbios_heaps_HeapMem_Module__diagsMask__C                        
00015e5c  ti_sysbios_heaps_HeapMem_Module__gateObj__C                          
00015e60  ti_sysbios_heaps_HeapMem_Object__count__C                            
00015e64  ti_sysbios_heaps_HeapMem_reqAlign__C                                 
00015e68  ti_sysbios_knl_Clock_LM_begin__C                                     
00015e6c  ti_sysbios_knl_Clock_LM_tick__C                                      
00015e70  ti_sysbios_knl_Clock_LW_delayed__C                                   
00015e74  ti_sysbios_knl_Clock_Module_State_clockQ__O                          
00015e78  ti_sysbios_knl_Clock_Module__diagsEnabled__C                         
00015e7c  ti_sysbios_knl_Clock_Module__diagsIncluded__C                        
00015e80  ti_sysbios_knl_Clock_Module__diagsMask__C                            
00015e84  ti_sysbios_knl_Clock_Module__loggerFxn1__C                           
00015e88  ti_sysbios_knl_Clock_Module__loggerFxn2__C                           
00015e8c  ti_sysbios_knl_Clock_Module__loggerObj__C                            
00015e90  ti_sysbios_knl_Event_A_badContext__C                                 
00015e94  ti_sysbios_knl_Event_A_eventInUse__C                                 
00015e98  ti_sysbios_knl_Event_A_nullEventId__C                                
00015e9c  ti_sysbios_knl_Event_A_nullEventMasks__C                             
00015ea0  ti_sysbios_knl_Event_A_pendTaskDisabled__C                           
00015ea4  ti_sysbios_knl_Event_Instance_State_pendQ__O                         
00015ea8  ti_sysbios_knl_Event_LM_pend__C                                      
00015eac  ti_sysbios_knl_Event_LM_post__C                                      
00015eb0  ti_sysbios_knl_Event_Module__diagsEnabled__C                         
00015eb4  ti_sysbios_knl_Event_Module__diagsIncluded__C                        
00015eb8  ti_sysbios_knl_Event_Module__diagsMask__C                            
00015ebc  ti_sysbios_knl_Event_Module__loggerFxn4__C                           
00015ec0  ti_sysbios_knl_Event_Module__loggerFxn8__C                           
00015ec4  ti_sysbios_knl_Event_Module__loggerObj__C                            
00015ec8  ti_sysbios_knl_Semaphore_A_badContext__C                             
00015ecc  ti_sysbios_knl_Semaphore_A_noEvents__C                               
00015ed0  ti_sysbios_knl_Semaphore_A_overflow__C                               
00015ed4  ti_sysbios_knl_Semaphore_A_pendTaskDisabled__C                       
00015ed8  ti_sysbios_knl_Semaphore_Instance_State_pendQ__O                     
00015edc  ti_sysbios_knl_Semaphore_LM_pend__C                                  
00015ee0  ti_sysbios_knl_Semaphore_LM_post__C                                  
00015ee4  ti_sysbios_knl_Semaphore_Module__diagsEnabled__C                     
00015ee8  ti_sysbios_knl_Semaphore_Module__diagsIncluded__C                    
00015eec  ti_sysbios_knl_Semaphore_Module__diagsMask__C                        
00015ef0  ti_sysbios_knl_Semaphore_Module__loggerFxn2__C                       
00015ef4  ti_sysbios_knl_Semaphore_Module__loggerFxn4__C                       
00015ef8  ti_sysbios_knl_Semaphore_Module__loggerObj__C                        
00015efc  ti_sysbios_knl_Swi_LD_end__C                                         
00015f00  ti_sysbios_knl_Swi_LM_begin__C                                       
00015f04  ti_sysbios_knl_Swi_LM_post__C                                        
00015f08  ti_sysbios_knl_Swi_Module__diagsEnabled__C                           
00015f0c  ti_sysbios_knl_Swi_Module__diagsIncluded__C                          
00015f10  ti_sysbios_knl_Swi_Module__diagsMask__C                              
00015f14  ti_sysbios_knl_Swi_Module__loggerFxn1__C                             
00015f18  ti_sysbios_knl_Swi_Module__loggerFxn4__C                             
00015f1c  ti_sysbios_knl_Swi_Module__loggerObj__C                              
00015f20  ti_sysbios_knl_Swi_Object__count__C                                  
00015f24  ti_sysbios_knl_Task_A_badPriority__C                                 
00015f28  ti_sysbios_knl_Task_A_badTaskState__C                                
00015f2c  ti_sysbios_knl_Task_A_badThreadType__C                               
00015f30  ti_sysbios_knl_Task_A_badTimeout__C                                  
00015f34  ti_sysbios_knl_Task_A_noPendElem__C                                  
00015f38  ti_sysbios_knl_Task_A_sleepTaskDisabled__C                           
00015f3c  ti_sysbios_knl_Task_E_spOutOfBounds__C                               
00015f40  ti_sysbios_knl_Task_E_stackOverflow__C                               
00015f44  ti_sysbios_knl_Task_LD_block__C                                      
00015f48  ti_sysbios_knl_Task_LD_exit__C                                       
00015f4c  ti_sysbios_knl_Task_LD_ready__C                                      
00015f50  ti_sysbios_knl_Task_LM_sleep__C                                      
00015f54  ti_sysbios_knl_Task_LM_switch__C                                     
00015f58  ti_sysbios_knl_Task_Module_State_inactiveQ__O                        
00015f5c  ti_sysbios_knl_Task_Module__diagsEnabled__C                          
00015f60  ti_sysbios_knl_Task_Module__diagsIncluded__C                         
00015f64  ti_sysbios_knl_Task_Module__diagsMask__C                             
00015f68  ti_sysbios_knl_Task_Module__loggerFxn2__C                            
00015f6c  ti_sysbios_knl_Task_Module__loggerFxn4__C                            
00015f70  ti_sysbios_knl_Task_Module__loggerObj__C                             
00015f74  ti_sysbios_knl_Task_Object__count__C                                 
00015f78  ti_sysbios_knl_Task_allBlockedFunc__C                                
00015f7c  ti_sysbios_knl_Task_defaultStackHeap__C                              
00015f80  ti_sysbios_knl_Task_defaultStackSize__C                              
00015f84  ti_sysbios_knl_Task_numConstructedTasks__C                           
00015f88  ti_sysbios_timers_rti_Timer_E_cannotSupport__C                       
00015f8c  ti_sysbios_timers_rti_Timer_Module__diagsEnabled__C                  
00015f90  ti_sysbios_timers_rti_Timer_Module__diagsIncluded__C                 
00015f94  ti_sysbios_timers_rti_Timer_Module__diagsMask__C                     
00015f98  ti_sysbios_timers_rti_Timer_numTimerDevices__C                       
00015f9c  ti_sysbios_timers_rti_Timer_startupNeeded__C                         
00015fa0  xdc_runtime_Assert_E_assertFailed__C                                 
00015fa4  xdc_runtime_Core_A_initializedParams__C                              
00015fa8  xdc_runtime_Core_Module__diagsEnabled__C                             
00015fac  xdc_runtime_Core_Module__diagsIncluded__C                            
00015fb0  xdc_runtime_Core_Module__diagsMask__C                                
00015fb4  xdc_runtime_Error_E_memory__C                                        
00015fb8  xdc_runtime_Error_Module__diagsEnabled__C                            
00015fbc  xdc_runtime_Error_Module__diagsIncluded__C                           
00015fc0  xdc_runtime_Error_Module__diagsMask__C                               
00015fc4  xdc_runtime_Error_Module__loggerFxn8__C                              
00015fc8  xdc_runtime_Error_Module__loggerObj__C                               
00015fcc  xdc_runtime_Error_policyFxn__C                                       
00015fd0  xdc_runtime_Error_policy__C                                          
00015fd4  xdc_runtime_Error_raiseHook__C                                       
00015fd8  xdc_runtime_IGateProvider_Interface__BASE__C                         
00015fdc  xdc_runtime_IHeap_Interface__BASE__C                                 
00015fe0  xdc_runtime_IModule_Interface__BASE__C                               
00015fe4  xdc_runtime_Log_L_error__C                                           
00015fe8  xdc_runtime_Memory_defaultHeapInstance__C                            
00015fec  xdc_runtime_Startup_execImpl__C                                      
00015ff0  xdc_runtime_Startup_maxPasses__C                                     
00015ff4  xdc_runtime_Startup_sfxnRts__C                                       
00015ff8  xdc_runtime_Startup_sfxnTab__C                                       
00015ffc  xdc_runtime_System_Module__gateObj__C                                
00016000  xdc_runtime_System_abortFxn__C                                       
00016004  xdc_runtime_System_exitFxn__C                                        
00016008  xdc_runtime_System_extendFxn__C                                      
0001600c  xdc_runtime_System_maxAtexitHandlers__C                              
00016010  xdc_runtime_Text_charTab__C                                          
00016014  xdc_runtime_Text_nameEmpty__C                                        
00016018  xdc_runtime_Text_nameStatic__C                                       
0001601c  xdc_runtime_Text_nameUnknown__C                                      
00016020  xdc_runtime_Text_nodeTab__C                                          
00016024  xdc_runtime_Text_visitRopeFxn__C                                     
00016028  ti_sysbios_family_arm_v7r_tms570_Core_Module__id__C                  
0001602a  ti_sysbios_family_arm_v7r_vim_Hwi_Module__id__C                      
0001602c  ti_sysbios_family_arm_v7r_vim_Hwi_Module__loggerDefined__C           
0001602e  ti_sysbios_gates_GateMutex_Module__id__C                             
00016030  ti_sysbios_hal_Hwi_Module__id__C                                     
00016032  ti_sysbios_heaps_HeapMem_Module__id__C                               
00016034  ti_sysbios_knl_Clock_Module__id__C                                   
00016036  ti_sysbios_knl_Clock_Module__loggerDefined__C                        
00016038  ti_sysbios_knl_Event_Module__id__C                                   
0001603a  ti_sysbios_knl_Event_Module__loggerDefined__C                        
0001603c  ti_sysbios_knl_Semaphore_Module__id__C                               
0001603e  ti_sysbios_knl_Semaphore_Module__loggerDefined__C                    
00016040  ti_sysbios_knl_Swi_Module__id__C                                     
00016042  ti_sysbios_knl_Swi_Module__loggerDefined__C                          
00016044  ti_sysbios_knl_Task_Module__id__C                                    
00016046  ti_sysbios_knl_Task_Module__loggerDefined__C                         
00016048  ti_sysbios_timers_rti_Timer_Module__id__C                            
0001604a  ti_sysbios_timers_rti_Timer_continueOnSuspend__C                     
0001604c  xdc_runtime_Core_Module__id__C                                       
0001604e  xdc_runtime_Error_Module__loggerDefined__C                           
00016050  xdc_runtime_Error_maxDepth__C                                        
00016052  xdc_runtime_Main_Module__id__C                                       
00016054  xdc_runtime_Memory_Module__id__C                                     
00016056  xdc_runtime_Text_charCnt__C                                          
00016058  xdc_runtime_Text_isLoaded__C                                         
0001605a  xdc_runtime_Text_registryModsLastId__C                               
0001605c  xdc_runtime_Text_unnamedModsLastId__C                                
00016060  __TI_static_base__                                                   
00018f5c  __TI_Handler_Table_Base                                              
00018f68  __TI_Handler_Table_Limit                                             
00018f80  __TI_CINIT_Base                                                      
00018fa0  __TI_CINIT_Limit                                                     
08000000  ti_sysbios_heaps_HeapMem_Instance_State_0_buf__A                     
0800a000  peopleDetectorState                                                  
0800a004  peopleDetectorStateFlt                                               
0800a008  peopleDetectorStatePrev                                              
0800a00c  gestureTimeStamp                                                     
0800a014  gestureCnt                                                           
0800a01c  gestureCntPrev                                                       
0800a024  fltGestureCnt                                                        
0800a02c  numDetectionsPerBucket                                               
0800a03c  gestureProbabilityLog                                                
0800a0b4  featureVecPosLog                                                     
0800a19c  energyLog                                                            
0800a39c  gMmwMssMCB                                                           
0800a728  gANN_struct_t                                                        
0800ce5c  rl_txMsg                                                             
0800cf5c  rl_rxMsg                                                             
0800d240  hardCodedConfigIndex                                                 
0800d244  hardCodedConfigCommands                                              
0800d2b8  gCLI                                                                 
0800d45c  ti_sysbios_family_arm_v7r_vim_Hwi_Module_State_0_dispatchTable__A    
0800d65c  gCRCRegister                                                         
0800d660  gCLI_mmwave_freq_scale_factor                                        
0800d668  gCLIMMWaveOpenCfg                                                    
0800d68c  partInfoStringArray                                                  
0800d6cc  gCLIMMWaveExtensionTable                                             
0800d774  gCLIMMWaveControlCfg                                                 
0800d840  _ftable                                                              
0800d930  ti_sysbios_knl_Swi_Module_State_0_readyQ__A                          
0800d9b0  ti_sysbios_knl_Task_Module_State_0_readyQ__A                         
0800da30  _device                                                              
0800daa8  ti_sysbios_knl_Task_Object__table__V                                 
0800db04  gUartSciHwCfg                                                        
0800db5c  _stream                                                              
0800dbac  gMailboxMCB                                                          
0800dbfc  ti_sysbios_knl_Task_Module__state__V                                 
0800dc44  SOC_TranslateAddr_LUT                                                
0800dc84  ti_sysbios_gates_GateMutex_Object__table__V                          
0800dcc4  ti_sysbios_timers_rti_Timer_Object__table__V                         
0800dd00  ti_sysbios_family_arm_v7r_vim_Hwi_Module__state__V                   
0800dd34  ti_sysbios_knl_Swi_Object__table__V                                  
0800dd64  ti_sysbios_family_arm_v7r_vim_Hwi_Object__table__V                   
0800dd90  ti_sysbios_knl_Clock_Module__state__V                                
0800ddbc  gUartSciFxnTable                                                     
0800dde4  UART_config                                                          
0800de08  ti_sysbios_BIOS_Module__state__V                                     
0800de2c  xdc_runtime_Error_IgnoreBlock                                        
0800de4c  xdc_runtime_System_Module_State_0_atexitHandlers__A                  
0800de6c  ti_sysbios_knl_Swi_Module__state__V                                  
0800de88  gMailboxMssBssHwCfg                                                  
0800dea0  gMailboxMssDssHwCfg                                                  
0800deb8  ti_sysbios_heaps_HeapMem_Object__table__V                            
0800ded0  ti_sysbios_timers_rti_Timer_Module_State_0_device__A                 
0800dee8  gSOCHwAttrib                                                         
0800defc  ti_sysbios_family_arm_exc_Exception_Module__state__V                 
0800df10  __TI_ft_end                                                          
0800df14  __aeabi_stdin                                                        
0800df18  __aeabi_stdout                                                       
0800df1c  __aeabi_stderr                                                       
0800df20  ti_sysbios_timers_rti_Timer_Module_State_0_intFreqs__A               
0800df30  ti_sysbios_timers_rti_Timer_Module__state__V                         
0800df40  __TI_cleanup_ptr                                                     
0800df44  __TI_dtors_ptr                                                       
0800df48  __TI_enable_exit_profile_output                                      
0800df4c  gESMHwCfgAttrs                                                       
0800df58  ti_sysbios_family_arm_v7a_Pmu_Module__state__V                       
0800df64  _lock                                                                
0800df68  _unlock                                                              
0800df6c  gGPIOHwAtrrib                                                        
0800df74  ti_sysbios_family_arm_v7r_vim_Hwi_Module__root__V                    
0800df7c  ti_sysbios_gates_GateHwi_Module__root__V                             
0800df84  ti_sysbios_gates_GateMutex_Module__root__V                           
0800df8c  ti_sysbios_hal_Hwi_Object__table__V                                  
0800df94  ti_sysbios_heaps_HeapMem_Module__root__V                             
0800df9c  ti_sysbios_knl_Event_Module__root__V                                 
0800dfa4  ti_sysbios_knl_Queue_Module__root__V                                 
0800dfac  ti_sysbios_knl_Semaphore_Module__root__V                             
0800dfb4  ti_sysbios_knl_Task_Module__root__V                                  
0800dfbc  ti_sysbios_timers_rti_Timer_Module_State_0_handles__A                
0800dfc4  xdc_runtime_Registry_Module__state__V                                
0800dfcc  xdc_runtime_Startup_Module__state__V                                 
0800dfd4  xdc_runtime_System_Module__state__V                                  
0800dfdc  gPinmuxRegs                                                          
0800dfe4  errno                                                                
0800dff0  main_func_sp                                                         
0800dff8  ti_sysbios_family_arm_exc_Exception_Module_State_0_excContext__A     
0800dffc  ti_sysbios_family_arm_exc_Exception_Module_State_0_excStackBuffers__A
0800e000  ti_sysbios_family_arm_exc_Exception_Module_State_0_excStack__A       
0800e004  ti_sysbios_gates_GateHwi_Object__table__V                            
0800e008  ti_sysbios_heaps_HeapBuf_Module__state__V                            
0800e00c  ti_sysbios_knl_Task_Module_State_0_idleTask__A                       
0800e010  xdc_runtime_Memory_Module__state__V                                  
0800e014  ti_sysbios_family_arm_exc_Exception_Module_State_0_excActive__A      
0800e016  xdc_runtime_Error_Module__state__V                                   
0800e018  ti_sysbios_family_arm_exc_Exception_Module_State_0_excStack_0__A     
0800f018  ti_sysbios_knl_Task_Instance_State_0_stack__A                        
0800f818  gGPIOMCB                                                             
0800f9ac  __CIOBUF_                                                            
0800facc  gMMWave_MCB                                                          
0800fbc8  __TI_tmpnams                                                         
0800fc68  gEsmMCB                                                              
0800fcd8  gMMWave_DualcoreMCB                                                  
0800fce0  parmbuf                                                              
0800fce8  __stack                                                              
08010ce8  __STACK_END                                                          
08010ce8  ti_sysbios_family_arm_v7r_vim_Hwi_Module_State_0_fiqStack__A         
fffffdec  ti_sysbios_family_arm_v7r_vim_Hwi_vim                                
ffffffff  __TI_pprof_out_hndl                                                  
ffffffff  __TI_prof_data_size                                                  
ffffffff  __TI_prof_data_start                                                 
ffffffff  __binit__                                                            
ffffffff  __c_args__                                                           
ffffffff  binit                                                                
UNDEFED   SHT$$INIT_ARRAY$$Base                                                
UNDEFED   SHT$$INIT_ARRAY$$Limit                                               

[945 symbols]
